 guideXOS

 Timestamp is 69477c1f (Sat Dec 20 20:48:31 2025)

 Preferred load address is 0000000010000000

 Start         Length     Name                   Class
 0001:00000000 00000732H .text                   CODE
 0002:00000000 00000039H .unbox$M                CODE
 0003:00000000 00078e0cH .managedcode$I          CODE
 0004:00000000 00014274H .rdata                  DATA
 0004:00014274 00000018H .rdata$voltmd           DATA
 0004:0001428c 00000174H .rdata$zzzdbg           DATA
 0004:00014400 00014f8aH .xdata                  DATA
 0004:0002938a 00000000H .edata                  DATA
 0005:00000000 0036faa0H .data                   DATA
 0005:0036faa0 00000bc8H .bss                    DATA
 0006:00000000 000043d4H .pdata                  DATA
 0007:00000000 00000008H .modules$I              DATA
 0008:00000000 000000a0H .rsrc$01                DATA
 0008:000000a0 00000440H .rsrc$02                DATA

  Address         Publics by Value              Rva+Base               Lib:Object

 0000:00000000       __AbsoluteZero             0000000000000000     <absolute>
 0000:00000000       ___safe_se_handler_count   0000000000000000     <absolute>
 0000:00000000       ___safe_se_handler_table   0000000000000000     <absolute>
 0000:00000000       __arm64x_extra_rfe_table   0000000000000000     <absolute>
 0000:00000000       __arm64x_extra_rfe_table_size 0000000000000000     <absolute>
 0000:00000000       __arm64x_native_entrypoint 0000000000000000     <absolute>
 0000:00000000       __arm64x_redirection_metadata 0000000000000000     <absolute>
 0000:00000000       __arm64x_redirection_metadata_count 0000000000000000     <absolute>
 0000:00000000       __dynamic_value_reloc_table 0000000000000000     <absolute>
 0000:00000000       __enclave_config           0000000000000000     <absolute>
 0000:00000000       __guard_check_icall_a64n_fptr 0000000000000000     <absolute>
 0000:00000000       __guard_eh_cont_count      0000000000000000     <absolute>
 0000:00000000       __guard_eh_cont_table      0000000000000000     <absolute>
 0000:00000000       __guard_fids_count         0000000000000000     <absolute>
 0000:00000000       __guard_fids_table         0000000000000000     <absolute>
 0000:00000000       __guard_flags              0000000000000000     <absolute>
 0000:00000000       __guard_iat_count          0000000000000000     <absolute>
 0000:00000000       __guard_iat_table          0000000000000000     <absolute>
 0000:00000000       __guard_longjmp_count      0000000000000000     <absolute>
 0000:00000000       __guard_longjmp_table      0000000000000000     <absolute>
 0000:00000000       __hybrid_auxiliary_delayload_iat 0000000000000000     <absolute>
 0000:00000000       __hybrid_auxiliary_delayload_iat_copy 0000000000000000     <absolute>
 0000:00000000       __hybrid_auxiliary_iat     0000000000000000     <absolute>
 0000:00000000       __hybrid_auxiliary_iat_copy 0000000000000000     <absolute>
 0000:00000000       __hybrid_code_map          0000000000000000     <absolute>
 0000:00000000       __hybrid_code_map_count    0000000000000000     <absolute>
 0000:00000000       __hybrid_image_info_bitfield 0000000000000000     <absolute>
 0000:00000000       __x64_code_ranges_to_entry_points 0000000000000000     <absolute>
 0000:00000000       __x64_code_ranges_to_entry_points_count 0000000000000000     <absolute>
 0001:00000000       __GetNonGCStaticBase_guideXOS_Program 0000000010001000     guideXOS.obj
 0001:00000008       __GetNonGCStaticBase_guideXOS_Allocator 0000000010001008     guideXOS.obj
 0001:00000010       __GetNonGCStaticBase_guideXOS_GDT 0000000010001010     guideXOS.obj
 0001:00000018       __GetNonGCStaticBase_guideXOS_IDT 0000000010001018     guideXOS.obj
 0001:00000020       __GetNonGCStaticBase_guideXOS_System_StringPool 0000000010001020     guideXOS.obj
 0001:0000003d       __GetNonGCStaticBase_guideXOS_System_Windows_Forms_Control 000000001000103d     guideXOS.obj
 0001:00000045       __GetNonGCStaticBase_guideXOS_guideXOS_Kbd2Mouse 0000000010001045     guideXOS.obj
 0001:0000004d       __GetNonGCStaticBase_guideXOS_guideXOS_Console 000000001000104d     guideXOS.obj
 0001:00000055       __GetNonGCStaticBase_guideXOS_guideXOS_PageTable 0000000010001055     guideXOS.obj
 0001:0000005d       __GetNonGCStaticBase_guideXOS_guideXOS_Intel825xx 000000001000105d     guideXOS.obj
 0001:00000065       __GetNonGCStaticBase_guideXOS_guideXOS_NETv4 0000000010001065     guideXOS.obj
 0001:0000006d       __GetNonGCStaticBase_guideXOS_guideXOS_RTL8111 000000001000106d     guideXOS.obj
 0001:00000075       __GetNonGCStaticBase_guideXOS_guideXOS_SMP 0000000010001075     guideXOS.obj
 0001:0000007d       __GetNonGCStaticBase_guideXOS_guideXOS_Network_Http 000000001000107d     guideXOS.obj
 0001:00000085       __GetNonGCStaticBase_guideXOS_guideXOS_Kernel_Drivers_AC97 0000000010001085     guideXOS.obj
 0001:0000008d       __GetNonGCStaticBase_guideXOS_guideXOS_Kernel_Drivers_ACPI 000000001000108d     guideXOS.obj
 0001:00000095       __GetNonGCStaticBase_guideXOS_guideXOS_Kernel_Drivers_DisplayManager 0000000010001095     guideXOS.obj
 0001:0000009d       __GetNonGCStaticBase_guideXOS_guideXOS_Kernel_Drivers_EHCI 000000001000109d     guideXOS.obj
 0001:000000a5       __GetNonGCStaticBase_guideXOS_guideXOS_Kernel_Drivers_Framebuffer 00000000100010a5     guideXOS.obj
 0001:000000ad       __GetNonGCStaticBase_guideXOS_guideXOS_Kernel_Drivers_HPET 00000000100010ad     guideXOS.obj
 0001:000000b5       __GetNonGCStaticBase_guideXOS_guideXOS_Kernel_Drivers_Keyboard 00000000100010b5     guideXOS.obj
 0001:000000bd       __GetNonGCStaticBase_guideXOS_guideXOS_Kernel_Drivers_PS2Keyboard 00000000100010bd     guideXOS.obj
 0001:000000c5       __GetNonGCStaticBase_guideXOS_guideXOS_Kernel_Drivers_PS2Mouse 00000000100010c5     guideXOS.obj
 0001:000000cd       __GetNonGCStaticBase_guideXOS_guideXOS_Kernel_Drivers_RTC 00000000100010cd     guideXOS.obj
 0001:000000d5       __GetNonGCStaticBase_guideXOS_guideXOS_Kernel_Drivers_SATA 00000000100010d5     guideXOS.obj
 0001:000000dd       __GetNonGCStaticBase_guideXOS_guideXOS_Kernel_Drivers_Timer 00000000100010dd     guideXOS.obj
 0001:000000e5       __GetNonGCStaticBase_guideXOS_guideXOS_Kernel_Drivers_VMwareTools 00000000100010e5     guideXOS.obj
 0001:000000ed       __GetNonGCStaticBase_guideXOS_guideXOS_Kernel_Drivers_USBStorage 00000000100010ed     guideXOS.obj
 0001:0000010a       __GetNonGCStaticBase_guideXOS_guideXOS_OS_Configuration 000000001000110a     guideXOS.obj
 0001:00000112       __GetNonGCStaticBase_guideXOS_guideXOS_OS_Firewall 0000000010001112     guideXOS.obj
 0001:0000012f       __GetNonGCStaticBase_guideXOS_guideXOS_OS_SystemMode 000000001000112f     guideXOS.obj
 0001:00000137       __GetNonGCStaticBase_guideXOS_guideXOS_Misc_Audio 0000000010001137     guideXOS.obj
 0001:0000013f       __GetNonGCStaticBase_guideXOS_guideXOS_Misc_BootSplash 000000001000113f     guideXOS.obj
 0001:00000147       __GetNonGCStaticBase_guideXOS_guideXOS_Misc_Panic 0000000010001147     guideXOS.obj
 0001:0000014f       __GetNonGCStaticBase_guideXOS_guideXOS_Misc_ThreadPool 000000001000114f     guideXOS.obj
 0001:00000157       __GetNonGCStaticBase_guideXOS_guideXOS_GUI_BackgroundRotationManager 0000000010001157     guideXOS.obj
 0001:0000015f       __GetNonGCStaticBase_guideXOS_guideXOS_GUI_Busy 000000001000115f     guideXOS.obj
 0001:00000167       __GetNonGCStaticBase_guideXOS_guideXOS_GUI_Desktop 0000000010001167     guideXOS.obj
 0001:0000016f       __GetNonGCStaticBase_guideXOS_guideXOS_GUI_Icons 000000001000116f     guideXOS.obj
 0001:0000018c       __GetNonGCStaticBase_guideXOS_guideXOS_GUI_SpecialEffects 000000001000118c     guideXOS.obj
 0001:00000194       __GetNonGCStaticBase_guideXOS_guideXOS_GUI_StartMenu 0000000010001194     guideXOS.obj
 0001:0000019c       __GetNonGCStaticBase_guideXOS_guideXOS_GUI_UISettings 000000001000119c     guideXOS.obj
 0001:000001a4       __GetNonGCStaticBase_guideXOS_guideXOS_GUI_WindowManager 00000000100011a4     guideXOS.obj
 0001:000001ac       __GetNonGCStaticBase_guideXOS_guideXOS_GUI_WorkspaceManager 00000000100011ac     guideXOS.obj
 0001:000001c9       __GetNonGCStaticBase_guideXOS_guideXOS_DockableWidgets_Clock 00000000100011c9     guideXOS.obj
 0001:000001d1       __GetNonGCStaticBase_guideXOS_guideXOS_DockableWidgets_Uptime 00000000100011d1     guideXOS.obj
 0001:000001d9       __GetNonGCStaticBase_guideXOS_guideXOS_DefaultApps_nexIRC 00000000100011d9     guideXOS.obj
 0001:000001e1       __GetNonGCStaticBase_guideXOS_guideXOS_DefaultApps_WAVPlayer 00000000100011e1     guideXOS.obj
 0001:000001e9       __GetNonGCStaticBase_guideXOS_guideXOS_DefaultApps_WebBrowser 00000000100011e9     guideXOS.obj
 0001:000001f1       __GetGCStaticBase_guideXOS_Program 00000000100011f1     guideXOS.obj
 0001:000001fc       __GetGCStaticBase_guideXOS_Allocator 00000000100011fc     guideXOS.obj
 0001:00000207       __GetGCStaticBase_guideXOS_IDT 0000000010001207     guideXOS.obj
 0001:00000212       __GetGCStaticBase_guideXOS_System_DateTime 0000000010001212     guideXOS.obj
 0001:0000021d       __GetGCStaticBase_guideXOS_System_StringPool 000000001000121d     guideXOS.obj
 0001:0000023d       __GetGCStaticBase_guideXOS_guideXOS_Animator 000000001000123d     guideXOS.obj
 0001:00000248       __GetGCStaticBase_guideXOS_guideXOS_ASC16 0000000010001248     guideXOS.obj
 0001:00000253       __GetGCStaticBase_guideXOS_guideXOS_Console 0000000010001253     guideXOS.obj
 0001:0000025e       __GetGCStaticBase_guideXOS_guideXOS_NETv4 000000001000125e     guideXOS.obj
 0001:00000269       __GetGCStaticBase_guideXOS_guideXOS_FS_Disk 0000000010001269     guideXOS.obj
 0001:00000274       __GetGCStaticBase_guideXOS_guideXOS_FS_File 0000000010001274     guideXOS.obj
 0001:0000027f       __GetGCStaticBase_guideXOS_guideXOS_Kernel_Drivers_AC97 000000001000127f     guideXOS.obj
 0001:0000028a       __GetGCStaticBase_guideXOS_guideXOS_Kernel_Drivers_ACPI 000000001000128a     guideXOS.obj
 0001:00000295       __GetGCStaticBase_guideXOS_guideXOS_Kernel_Drivers_DisplayManager 0000000010001295     guideXOS.obj
 0001:000002a0       __GetGCStaticBase_guideXOS_guideXOS_Kernel_Drivers_Framebuffer 00000000100012a0     guideXOS.obj
 0001:000002ab       __GetGCStaticBase_guideXOS_guideXOS_Kernel_Drivers_IDE 00000000100012ab     guideXOS.obj
 0001:000002b6       __GetGCStaticBase_guideXOS_guideXOS_Kernel_Drivers_Keyboard 00000000100012b6     guideXOS.obj
 0001:000002c1       __GetGCStaticBase_guideXOS_guideXOS_Kernel_Drivers_PCI 00000000100012c1     guideXOS.obj
 0001:000002cc       __GetGCStaticBase_guideXOS_guideXOS_Kernel_Drivers_PS2Mouse 00000000100012cc     guideXOS.obj
 0001:000002d7       __GetGCStaticBase_guideXOS_guideXOS_Kernel_Drivers_SATA 00000000100012d7     guideXOS.obj
 0001:000002e2       __GetGCStaticBase_guideXOS_guideXOS_Kernel_Drivers_USBStorage 00000000100012e2     guideXOS.obj
 0001:00000302       __GetGCStaticBase_guideXOS_guideXOS_OS_Firewall 0000000010001302     guideXOS.obj
 0001:00000322       __GetGCStaticBase_guideXOS_guideXOS_OS_Session 0000000010001322     guideXOS.obj
 0001:0000032d       __GetGCStaticBase_guideXOS_guideXOS_OS_SystemMode 000000001000132d     guideXOS.obj
 0001:00000338       __GetGCStaticBase_guideXOS_guideXOS_Modules_ModuleManager 0000000010001338     guideXOS.obj
 0001:00000358       __GetGCStaticBase_guideXOS_guideXOS_Misc_BootSplash 0000000010001358     guideXOS.obj
 0001:00000363       __GetGCStaticBase_guideXOS_guideXOS_Misc_Interrupts 0000000010001363     guideXOS.obj
 0001:0000036e       __GetGCStaticBase_guideXOS_guideXOS_Misc_ThreadPool 000000001000136e     guideXOS.obj
 0001:00000379       __GetGCStaticBase_guideXOS_guideXOS_GUI_BackgroundRotationManager 0000000010001379     guideXOS.obj
 0001:00000384       __GetGCStaticBase_guideXOS_guideXOS_GUI_Desktop 0000000010001384     guideXOS.obj
 0001:0000038f       __GetGCStaticBase_guideXOS_guideXOS_GUI_Icons 000000001000138f     guideXOS.obj
 0001:000003af       __GetGCStaticBase_guideXOS_guideXOS_GUI_Lockscreen 00000000100013af     guideXOS.obj
 0001:000003ba       __GetGCStaticBase_guideXOS_guideXOS_GUI_NotificationManager 00000000100013ba     guideXOS.obj
 0001:000003c5       __GetGCStaticBase_guideXOS_guideXOS_GUI_OnScreenKeyboard 00000000100013c5     guideXOS.obj
 0001:000003e5       __GetGCStaticBase_guideXOS_guideXOS_GUI_PinnedManager 00000000100013e5     guideXOS.obj
 0001:00000405       __GetGCStaticBase_guideXOS_guideXOS_GUI_RecentManager 0000000010001405     guideXOS.obj
 0001:00000425       __GetGCStaticBase_guideXOS_guideXOS_GUI_SpecialEffects 0000000010001425     guideXOS.obj
 0001:00000430       __GetGCStaticBase_guideXOS_guideXOS_GUI_WindowManager 0000000010001430     guideXOS.obj
 0001:0000043b       __GetGCStaticBase_guideXOS_guideXOS_GUI_WorkspaceManager 000000001000143b     guideXOS.obj
 0001:0000045b       __GetGCStaticBase_guideXOS_guideXOS_DockableWidgets_Clock 000000001000145b     guideXOS.obj
 0001:00000466       __GetGCStaticBase_guideXOS_guideXOS_DockableWidgets_Uptime 0000000010001466     guideXOS.obj
 0001:00000471       __GetGCStaticBase_guideXOS_guideXOS_DefaultApps_WAVPlayer 0000000010001471     guideXOS.obj
 0001:0000047c       __GetGCStaticBase_guideXOS_Program___c 000000001000147c     guideXOS.obj
 0001:00000487       __GetGCStaticBase_guideXOS_guideXOS_Modules_ModuleManager___c 0000000010001487     guideXOS.obj
 0001:00000492       __GetGCStaticBase_guideXOS_guideXOS_GUI_DisplayOptions___c 0000000010001492     guideXOS.obj
 0001:0000049d       __GetGCStaticBase_guideXOS_guideXOS_GUI_SaveDialog___O 000000001000149d     guideXOS.obj
 0001:000004a8       __GetGCStaticBase_guideXOS_System_Array_EmptyArray_1<String> 00000000100014a8     guideXOS.obj
 0001:000004c8       __DelegateCtor_guideXOS_System_Delegate__InitializeClosedInstance__guideXOS_guideXOS_GUI_GXMScriptWindow__Keyboard_OnKeyChanged 00000000100014c8     guideXOS.obj
 0001:000004d4       __DelegateCtor_guideXOS_System_Delegate__InitializeClosedInstance__guideXOS_guideXOS_GUI_GXMScriptWindow___OpenSaveDialogForTextBox_b__40_0 00000000100014d4     guideXOS.obj
 0001:000004e0       __DelegateCtor_guideXOS_System_Delegate__InitializeClosedInstance__guideXOS_guideXOS_GUI_GXMScriptWindow___OpenOpenDialogForTextBox_b__41_0 00000000100014e0     guideXOS.obj
 0001:000004ec       __DelegateCtor_guideXOS_System_Delegate__InitializeClosedInstance__guideXOS_guideXOS_GUI_NetworkConfigurationDialog__Keyboard_OnKeyChanged 00000000100014ec     guideXOS.obj
 0001:000004f8       __DelegateCtor_guideXOS_System_Delegate__InitializeClosedInstance__guideXOS_guideXOS_GUI_OpenDialog__Keyboard_OnKeyChanged 00000000100014f8     guideXOS.obj
 0001:00000504       __DelegateCtor_guideXOS_System_Delegate__InitializeClosedInstance__guideXOS_guideXOS_GUI_SaveDialog__Keyboard_OnKeyChanged 0000000010001504     guideXOS.obj
 0001:00000510       __DelegateCtor_guideXOS_System_Delegate__InitializeClosedInstance__guideXOS_guideXOS_DefaultApps_ComputerFiles__Keyboard_OnKeyChanged 0000000010001510     guideXOS.obj
 0001:0000051c       __DelegateCtor_guideXOS_System_Delegate__InitializeClosedInstance__guideXOS_guideXOS_DefaultApps_FConsole__Keyboard_OnKeyChanged 000000001000151c     guideXOS.obj
 0001:00000528       __DelegateCtor_guideXOS_System_Delegate__InitializeClosedInstance__guideXOS_guideXOS_DefaultApps_FConsole__Console_OnWrite 0000000010001528     guideXOS.obj
 0001:00000534       __DelegateCtor_guideXOS_System_Delegate__InitializeClosedInstance__guideXOS_guideXOS_DefaultApps_nexIRC__Keyboard_OnKeyChanged 0000000010001534     guideXOS.obj
 0001:00000540       __DelegateCtor_guideXOS_System_Delegate__InitializeClosedInstance__guideXOS_guideXOS_DefaultApps_Notepad__Keyboard_OnKeyChanged 0000000010001540     guideXOS.obj
 0001:0000054c       __DelegateCtor_guideXOS_System_Delegate__InitializeClosedInstance__guideXOS_guideXOS_DefaultApps_Notepad___OnSetVisible_b__19_0 000000001000154c     guideXOS.obj
 0001:00000558       __DelegateCtor_guideXOS_System_Delegate__InitializeClosedInstance__guideXOS_guideXOS_DefaultApps_Notepad___OnSetVisible_b__19_3 0000000010001558     guideXOS.obj
 0001:00000564       __DelegateCtor_guideXOS_System_Delegate__InitializeClosedInstance__guideXOS_guideXOS_DefaultApps_Notepad___OnSetVisible_b__19_1 0000000010001564     guideXOS.obj
 0001:00000570       __DelegateCtor_guideXOS_System_Delegate__InitializeClosedInstance__guideXOS_guideXOS_DefaultApps_Notepad___OnSetVisible_b__19_2 0000000010001570     guideXOS.obj
 0001:0000057c       __DelegateCtor_guideXOS_System_Delegate__InitializeClosedInstance__guideXOS_guideXOS_DefaultApps_WebBrowser__OnKey 000000001000157c     guideXOS.obj
 0001:00000588       __DelegateCtor_guideXOS_System_Delegate__InitializeClosedInstance__guideXOS_Program___c___SMain_b__22_0 0000000010001588     guideXOS.obj
 0001:00000594       __DelegateCtor_guideXOS_System_Delegate__InitializeClosedInstance__guideXOS_guideXOS_FS_FAT___c__DisplayClass50_0___FindPath_b__0 0000000010001594     guideXOS.obj
 0001:000005a0       __DelegateCtor_guideXOS_System_Delegate__InitializeClosedInstance__guideXOS_guideXOS_FS_FAT___c__DisplayClass50_1___FindPath_b__1 00000000100015a0     guideXOS.obj
 0001:000005ac       __DelegateCtor_guideXOS_System_Delegate__InitializeClosedInstance__guideXOS_guideXOS_FS_FAT___c__DisplayClass60_0___GetFiles_b__0 00000000100015ac     guideXOS.obj
 0001:000005b8       __DelegateCtor_guideXOS_System_Delegate__InitializeClosedInstance__guideXOS_guideXOS_Modules_ModuleManager___c___InitializeBuiltins_b__7_0 00000000100015b8     guideXOS.obj
 0001:000005c4       __DelegateCtor_guideXOS_System_Delegate__InitializeClosedInstance__guideXOS_guideXOS_GUI_DisplayOptions___c___OnInput_b__40_0 00000000100015c4     guideXOS.obj
 0001:000005d0       __DelegateCtor_guideXOS_System_Delegate__InitializeClosedInstance__guideXOS_guideXOS_GUI_DisplayOptions___c___OnInput_b__40_1 00000000100015d0     guideXOS.obj
 0001:000005dc       __DelegateCtor_guideXOS_System_Delegate__InitializeClosedInstance__guideXOS_guideXOS_DefaultApps_DiskManager___c__DisplayClass38_0___ReadMBRForEntry_b__0 00000000100015dc     guideXOS.obj
 0001:000005e8       __DelegateCtor_guideXOS_System_Delegate__InitializeClosedInstance__guideXOS_guideXOS_DefaultApps_DiskManager___c__DisplayClass54_0___TryCreatePartitionLargestFree_b__0 00000000100015e8     guideXOS.obj
 0001:000005f4       __DelegateCtor_guideXOS_System_Delegate__InitializeClosedInstance__guideXOS_guideXOS_DefaultApps_DiskManager___c__DisplayClass54_0___TryCreatePartitionLargestFree_b__1 00000000100015f4     guideXOS.obj
 0001:00000600       __DelegateCtor_guideXOS_System_Delegate__InitializeClosedInstance__guideXOS_guideXOS_DefaultApps_Notepad___c__DisplayClass24_0___OpenSaveAs_b__0 0000000010001600     guideXOS.obj
 0001:0000060c       __DelegateCtor_guideXOS_System_Delegate__InitializeOpenStaticThunk__guideXOS_guideXOS_GUI_Icons__DocumentIcon__guideXOS_System_Func_2<Int32__System___Canon>__InvokeOpenStaticThunk 000000001000160c     guideXOS.obj
 0001:0000061f       __GenericLookupFromType_guideXOS_System_Array_EmptyArray_1<System___Canon>_GCStaticBase_guideXOS_System_Array_EmptyArray_1<T_System___Canon> 000000001000161f     guideXOS.obj
 0001:00000650       cpuid_supported            0000000010001650     cpuid_safe.obj
 0001:00000656       cpuid_safe                 0000000010001656     cpuid_safe.obj
 0001:00000670       Hlt                        0000000010001670     native_stubs.obj
 0001:00000672       Cli                        0000000010001672     native_stubs.obj
 0001:00000674       Sti                        0000000010001674     native_stubs.obj
 0001:00000676       Nop                        0000000010001676     native_stubs.obj
 0001:00000678       Rdtsc                      0000000010001678     native_stubs.obj
 0001:00000682       ReadCR2                    0000000010001682     native_stubs.obj
 0001:00000686       WriteCR3                   0000000010001686     native_stubs.obj
 0001:0000068a       Invlpg                     000000001000168a     native_stubs.obj
 0001:0000068e       Out8                       000000001000168e     native_stubs.obj
 0001:00000695       In8                        0000000010001695     native_stubs.obj
 0001:0000069c       Out16                      000000001000169c     native_stubs.obj
 0001:000006a5       In16                       00000000100016a5     native_stubs.obj
 0001:000006ad       Out32                      00000000100016ad     native_stubs.obj
 0001:000006b4       In32                       00000000100016b4     native_stubs.obj
 0001:000006b9       Stosb                      00000000100016b9     native_stubs.obj
 0001:000006c4       Stosd                      00000000100016c4     native_stubs.obj
 0001:000006cf       Movsb                      00000000100016cf     native_stubs.obj
 0001:000006db       Movsd                      00000000100016db     native_stubs.obj
 0001:000006e7       Load_GDT                   00000000100016e7     native_stubs.obj
 0001:000006eb       Load_IDT                   00000000100016eb     native_stubs.obj
 0001:000006ef       set_idt_entries            00000000100016ef     native_stubs.obj
 0001:000006f0       enable_sse                 00000000100016f0     native_stubs.obj
 0001:0000070b       vmware_send                000000001000170b     native_stubs.obj
 0001:0000070e       Insw                       000000001000170e     native_stubs.obj
 0001:0000071b       Outsw                      000000001000171b     native_stubs.obj
 0001:00000728       mystrtoul                  0000000010001728     native_stubs.obj
 0001:0000072b       lodepng_decode_memory      000000001000172b     native_stubs.obj
 0001:00000731       Schedule_Next              0000000010001731     native_stubs.obj
 0002:00000000       unbox_UInt8__ToString      0000000010002000     guideXOS.obj
 0002:0000000c       unbox_Int32__ToString      000000001000200c     guideXOS.obj
 0002:00000018       unbox_UInt16__ToString     0000000010002018     guideXOS.obj
 0002:00000024       unbox_UInt32__ToString     0000000010002024     guideXOS.obj
 0002:00000030       unbox_UInt64__ToString     0000000010002030     guideXOS.obj
 0003:00000000       guideXOS_Program__SMain    0000000010003000     guideXOS.obj
 0003:00000c60       guideXOS_Program__RefreshCachedIcons 0000000010003c60     guideXOS.obj
 0003:00000d84       guideXOS_Allocator__FindOrAddOwner 0000000010003d84     guideXOS.obj
 0003:00000e94       guideXOS_Allocator__Initialize 0000000010003e94     guideXOS.obj
 0003:00000f88       guideXOS_Allocator__get_MemoryInUse 0000000010003f88     guideXOS.obj
 0003:00000fa0       guideXOS_Allocator__GetPageIndexStart 0000000010003fa0     guideXOS.obj
 0003:00000ff4       guideXOS_Allocator__Free   0000000010003ff4     guideXOS.obj
 0003:00001248       guideXOS_Allocator__SuspiciousSize 0000000010004248     guideXOS.obj
 0003:00001268       guideXOS_Allocator__Allocate_0 0000000010004268     guideXOS.obj
 0003:000015d8       guideXOS_Allocator__Reallocate 00000000100045d8     guideXOS.obj
 0003:00001700       guideXOS_Allocator__ClearAllocate_0 0000000010004700     guideXOS.obj
 0003:000017a8       guideXOS_Allocator__GetTagBytes 00000000100047a8     guideXOS.obj
 0003:000017d0       guideXOS_Allocator__GetOwnerBytes 00000000100047d0     guideXOS.obj
 0003:00001908       guideXOS_Allocator__GetOwnerListSnapshot 0000000010004908     guideXOS.obj
 0003:00001a50       guideXOS_GDT__FillEntry    0000000010004a50     guideXOS.obj
 0003:00001a90       guideXOS_GDT__Initialise   0000000010004a90     guideXOS.obj
 0003:00001be0       guideXOS_GDT__SetKernelStack 0000000010004be0     guideXOS.obj
 0003:00001c04       guideXOS_IDT__Initialize   0000000010004c04     guideXOS.obj
 0003:00001cf8       guideXOS_IDT__AllowUserSoftwareInterrupt 0000000010004cf8     guideXOS.obj
 0003:00001d90       guideXOS_IDT__intr_handler 0000000010004d90     guideXOS.obj
 0003:00001d90       intr_handler               0000000010004d90     guideXOS.obj
 0003:00001f44       guideXOS_Native__Load_GDT  0000000010004f44     guideXOS.obj
 0003:00001f98       guideXOS_Native__Load_IDT  0000000010004f98     guideXOS.obj
 0003:00001fec       guideXOS_Internal_Runtime_EEType__get_IsArray 0000000010004fec     guideXOS.obj
 0003:00002010       guideXOS_Internal_Runtime_EEType__get_ArrayRank 0000000010005010     guideXOS.obj
 0003:00002030       __imp_GetCurrentThreadId   0000000010005030     guideXOS.obj
 0003:00002030       guideXOS_Internal_Runtime_CompilerHelpers_StartupCodeHelpers____imp_GetCurrentThreadId 0000000010005030     guideXOS.obj
 0003:00002034       __CheckForDebuggerJustMyCode 0000000010005034     guideXOS.obj
 0003:00002034       guideXOS_Internal_Runtime_CompilerHelpers_StartupCodeHelpers____CheckForDebuggerJustMyCode 0000000010005034     guideXOS.obj
 0003:00002038       __fail_fast                0000000010005038     guideXOS.obj
 0003:00002038       guideXOS_Internal_Runtime_CompilerHelpers_StartupCodeHelpers__FailFast 0000000010005038     guideXOS.obj
 0003:0000203c       guideXOS_Internal_Runtime_CompilerHelpers_StartupCodeHelpers__MemSet 000000001000503c     guideXOS.obj
 0003:0000203c       memset                     000000001000503c     guideXOS.obj
 0003:00002058       guideXOS_Internal_Runtime_CompilerHelpers_StartupCodeHelpers__MemCpy 0000000010005058     guideXOS.obj
 0003:00002058       memcpy                     0000000010005058     guideXOS.obj
 0003:00002074       RhpFallbackFailFast        0000000010005074     guideXOS.obj
 0003:00002074       guideXOS_Internal_Runtime_CompilerHelpers_StartupCodeHelpers__RhpFallbackFailFast 0000000010005074     guideXOS.obj
 0003:00002078       RhpReversePInvoke2         0000000010005078     guideXOS.obj
 0003:00002078       guideXOS_Internal_Runtime_CompilerHelpers_StartupCodeHelpers__RhpReversePInvoke2 0000000010005078     guideXOS.obj
 0003:0000207c       RhpReversePInvokeReturn2   000000001000507c     guideXOS.obj
 0003:0000207c       guideXOS_Internal_Runtime_CompilerHelpers_StartupCodeHelpers__RhpReversePInvokeReturn2 000000001000507c     guideXOS.obj
 0003:00002080       RhpReversePInvoke          0000000010005080     guideXOS.obj
 0003:00002080       guideXOS_Internal_Runtime_CompilerHelpers_StartupCodeHelpers__RhpReversePInvoke 0000000010005080     guideXOS.obj
 0003:00002084       RhpReversePInvokeReturn    0000000010005084     guideXOS.obj
 0003:00002084       guideXOS_Internal_Runtime_CompilerHelpers_StartupCodeHelpers__RhpReversePInvokeReturn 0000000010005084     guideXOS.obj
 0003:00002088       RhpPInvoke                 0000000010005088     guideXOS.obj
 0003:00002088       guideXOS_Internal_Runtime_CompilerHelpers_StartupCodeHelpers__RhpPinvoke 0000000010005088     guideXOS.obj
 0003:0000208c       RhpPInvokeReturn           000000001000508c     guideXOS.obj
 0003:0000208c       guideXOS_Internal_Runtime_CompilerHelpers_StartupCodeHelpers__RhpPinvokeReturn 000000001000508c     guideXOS.obj
 0003:00002090       RhpNewFast                 0000000010005090     guideXOS.obj
 0003:00002090       guideXOS_Internal_Runtime_CompilerHelpers_StartupCodeHelpers__RhpNewFast 0000000010005090     guideXOS.obj
 0003:0000211c       RhpNewArray                000000001000511c     guideXOS.obj
 0003:0000211c       guideXOS_Internal_Runtime_CompilerHelpers_StartupCodeHelpers__RhpNewArray 000000001000511c     guideXOS.obj
 0003:000021e0       RhpAssignRef               00000000100051e0     guideXOS.obj
 0003:000021e0       guideXOS_Internal_Runtime_CompilerHelpers_StartupCodeHelpers__RhpAssignRef 00000000100051e0     guideXOS.obj
 0003:000021e4       RhpByRefAssignRef          00000000100051e4     guideXOS.obj
 0003:000021e4       guideXOS_Internal_Runtime_CompilerHelpers_StartupCodeHelpers__RhpByRefAssignRef 00000000100051e4     guideXOS.obj
 0003:000021e8       RhpCheckedAssignRef        00000000100051e8     guideXOS.obj
 0003:000021e8       guideXOS_Internal_Runtime_CompilerHelpers_StartupCodeHelpers__RhpCheckedAssignRef 00000000100051e8     guideXOS.obj
 0003:000021ec       RhpStelemRef               00000000100051ec     guideXOS.obj
 0003:000021ec       guideXOS_Internal_Runtime_CompilerHelpers_StartupCodeHelpers__RhpStelemRef 00000000100051ec     guideXOS.obj
 0003:00002224       RhTypeCast_IsInstanceOfClass 0000000010005224     guideXOS.obj
 0003:00002224       guideXOS_Internal_Runtime_CompilerHelpers_StartupCodeHelpers__RhTypeCast_IsInstanceOfClass 0000000010005224     guideXOS.obj
 0003:00002250       guideXOS_Internal_Runtime_CompilerHelpers_StartupCodeHelpers__InitializeModules 0000000010005250     guideXOS.obj
 0003:00002408       guideXOS_Internal_Runtime_CompilerHelpers_StartupCodeHelpers__InitializeStatics 0000000010005408     guideXOS.obj
 0003:000024f4       guideXOS_Internal_Runtime_CompilerHelpers_SynchronizedMethodHelpers__MonitorEnterStatic 00000000100054f4     guideXOS.obj
 0003:000024f8       guideXOS_Internal_Runtime_CompilerHelpers_SynchronizedMethodHelpers__MonitorExitStatic 00000000100054f8     guideXOS.obj
 0003:000024fc       guideXOS_Internal_Runtime_CompilerHelpers_ThrowHelpers__Error 00000000100054fc     guideXOS.obj
 0003:000025ac       guideXOS_Internal_Runtime_CompilerHelpers_ThrowHelpers__ThrowOverflowException 00000000100055ac     guideXOS.obj
 0003:000025c4       guideXOS_Internal_Runtime_CompilerHelpers_ThrowHelpers__ThrowIndexOutOfRangeException 00000000100055c4     guideXOS.obj
 0003:000025dc       UInt8__ToString            00000000100055dc     guideXOS.obj
 0003:000025f8       guideXOS_System_Delegate__InitializeOpenStaticThunk 00000000100055f8     guideXOS.obj
 0003:0000261c       guideXOS_System_Delegate__InitializeClosedInstance 000000001000561c     guideXOS.obj
 0003:00002648       Int32__ToString            0000000010005648     guideXOS.obj
 0003:00002668       Int32__op_Implicit         0000000010005668     guideXOS.obj
 0003:0000266c       Int64__ToString            000000001000566c     guideXOS.obj
 0003:0000275c       guideXOS_System_Math__Sqrt 000000001000575c     guideXOS.obj
 0003:000027c0       guideXOS_System_Math__Ceiling 00000000100057c0     guideXOS.obj
 0003:000027e0       guideXOS_System_MathF__Floor 00000000100057e0     guideXOS.obj
 0003:00002840       Object___ctor              0000000010005840     guideXOS.obj
 0003:00002844       Object__ToString           0000000010005844     guideXOS.obj
 0003:0000284c       Object__Dispose            000000001000584c     guideXOS.obj
 0003:0000289c       String__FromASCII          000000001000589c     guideXOS.obj
 0003:00002934       String__Ctor               0000000010005934     guideXOS.obj
 0003:00002954       String__Ctor_1             0000000010005954     guideXOS.obj
 0003:000029a0       String__Ctor_2             00000000100059a0     guideXOS.obj
 0003:00002a5c       String__LastIndexOf        0000000010005a5c     guideXOS.obj
 0003:00002a88       String__Ctor_3             0000000010005a88     guideXOS.obj
 0003:00002acc       String__ToString           0000000010005acc     guideXOS.obj
 0003:00002ad0       String__Equals_0           0000000010005ad0     guideXOS.obj
 0003:00002b18       String__Concat             0000000010005b18     guideXOS.obj
 0003:00002c04       String__IndexOf            0000000010005c04     guideXOS.obj
 0003:00002c34       String__Concat_0           0000000010005c34     guideXOS.obj
 0003:00002ca8       String__Concat_1           0000000010005ca8     guideXOS.obj
 0003:00002d6c       String__Concat_2           0000000010005d6c     guideXOS.obj
 0003:00002e54       String__Format             0000000010005e54     guideXOS.obj
 0003:00003060       String__Split              0000000010006060     guideXOS.obj
 0003:00003174       String__Substring          0000000010006174     guideXOS.obj
 0003:000031b4       String__Substring_0        00000000100061b4     guideXOS.obj
 0003:000031f0       String__EndsWith_0         00000000100061f0     guideXOS.obj
 0003:0000327c       String__ToUpper            000000001000627c     guideXOS.obj
 0003:00003310       String__ToLower            0000000010006310     guideXOS.obj
 0003:000033a4       guideXOS_System_StringPool___cctor 00000000100063a4     guideXOS.obj
 0003:00003524       guideXOS_System_StringPool__GetPercentage 0000000010006524     guideXOS.obj
 0003:000035f8       guideXOS_System_StringPool__GetNumber 00000000100065f8     guideXOS.obj
 0003:000036c0       guideXOS_System_StringPool__GetNumber_0 00000000100066c0     guideXOS.obj
 0003:00003768       guideXOS_System_StringPool__GetMemorySize 0000000010006768     guideXOS.obj
 0003:000039f0       guideXOS_System_StringPool__GetTransferRate 00000000100069f0     guideXOS.obj
 0003:00003adc       guideXOS_System_StringPool__FormatUptime 0000000010006adc     guideXOS.obj
 0003:00003d80       UInt16__ToString           0000000010006d80     guideXOS.obj
 0003:00003d9c       UInt32__ToString           0000000010006d9c     guideXOS.obj
 0003:00003db8       UInt64__ToString           0000000010006db8     guideXOS.obj
 0003:00003e80       UInt64__ToStringHex        0000000010006e80     guideXOS.obj
 0003:00003f28       guideXOS_System_Threading_Monitor__Unlock 0000000010006f28     guideXOS.obj
 0003:00003f6c       RhTypeCast_CheckCastClass  0000000010006f6c     guideXOS.obj
 0003:00003f6c       guideXOS_System_Runtime_TypeCast__CheckCastClass 0000000010006f6c     guideXOS.obj
 0003:00003f94       RhTypeCast_CheckCastArray  0000000010006f94     guideXOS.obj
 0003:00003f94       guideXOS_System_Runtime_TypeCast__CheckCastArray 0000000010006f94     guideXOS.obj
 0003:00003fbc       RhTypeCast_IsInstanceOfArray 0000000010006fbc     guideXOS.obj
 0003:00003fbc       guideXOS_System_Runtime_TypeCast__IsInstanceOfArray 0000000010006fbc     guideXOS.obj
 0003:00004018       guideXOS_System_Runtime_CompilerServices_ClassConstructorRunner__CheckStaticClassConstructionReturnNonGCStaticBase 0000000010007018     guideXOS.obj
 0003:00004030       guideXOS_System_Runtime_CompilerServices_ClassConstructorRunner__CheckStaticClassConstructionReturnGCStaticBase 0000000010007030     guideXOS.obj
 0003:00004048       guideXOS_System_Runtime_CompilerServices_ClassConstructorRunner__CheckStaticClassConstruction 0000000010007048     guideXOS.obj
 0003:0000407c       guideXOS_System_Drawing_Image___ctor 000000001000707c     guideXOS.obj
 0003:000040b8       guideXOS_System_Drawing_Image___ctor_0 00000000100070b8     guideXOS.obj
 0003:000040bc       guideXOS_System_Drawing_Image__Resample 00000000100070bc     guideXOS.obj
 0003:00004460       guideXOS_System_Drawing_Image__ResizeImage 0000000010007460     guideXOS.obj
 0003:000045d4       guideXOS_System_Drawing_Image__Dispose 00000000100075d4     guideXOS.obj
 0003:0000465c       guideXOS_guideXOS_Animation___ctor 000000001000765c     guideXOS.obj
 0003:0000466c       guideXOS_guideXOS_API__HandleSystemCall 000000001000766c     guideXOS.obj
 0003:00004a08       guideXOS_guideXOS_API__API_SndWrite 0000000010007a08     guideXOS.obj
 0003:00004a10       guideXOS_guideXOS_API__API_Calloc 0000000010007a10     guideXOS.obj
 0003:00004a18       guideXOS_guideXOS_API__API_StartThread 0000000010007a18     guideXOS.obj
 0003:00004a54       guideXOS_guideXOS_API__API_Error 0000000010007a54     guideXOS.obj
 0003:00004a5c       guideXOS_guideXOS_API__API_GetTime 0000000010007a5c     guideXOS.obj
 0003:00004adc       guideXOS_guideXOS_API__API_DrawImage 0000000010007adc     guideXOS.obj
 0003:00004b10       guideXOS_guideXOS_API__API_WriteString 0000000010007b10     guideXOS.obj
 0003:00004b70       guideXOS_guideXOS_API__API_Width 0000000010007b70     guideXOS.obj
 0003:00004b84       guideXOS_guideXOS_API__API_Height 0000000010007b84     guideXOS.obj
 0003:00004b98       guideXOS_guideXOS_API__API_Update 0000000010007b98     guideXOS.obj
 0003:00004ba0       guideXOS_guideXOS_API__API_Clear 0000000010007ba0     guideXOS.obj
 0003:00004bc0       DebugWrite                 0000000010007bc0     guideXOS.obj
 0003:00004bc0       guideXOS_guideXOS_API__API_DebugWrite 0000000010007bc0     guideXOS.obj
 0003:00004bc8       DebugWriteLine             0000000010007bc8     guideXOS.obj
 0003:00004bc8       guideXOS_guideXOS_API__API_DebugWriteLine 0000000010007bc8     guideXOS.obj
 0003:00004be4       Lock                       0000000010007be4     guideXOS.obj
 0003:00004be4       guideXOS_guideXOS_API__API_Lock 0000000010007be4     guideXOS.obj
 0003:00004c0c       Unlock                     0000000010007c0c     guideXOS.obj
 0003:00004c0c       guideXOS_guideXOS_API__API_Unlock 0000000010007c0c     guideXOS.obj
 0003:00004c4c       guideXOS_guideXOS_API__API_DrawPoint 0000000010007c4c     guideXOS.obj
 0003:00004c80       guideXOS_guideXOS_API__API_SwitchToConsoleMode 0000000010007c80     guideXOS.obj
 0003:00004c88       guideXOS_guideXOS_API__API_ReadAllBytes 0000000010007c88     guideXOS.obj
 0003:00004d90       guideXOS_guideXOS_API__API_Sleep 0000000010007d90     guideXOS.obj
 0003:00004d98       guideXOS_guideXOS_API__API_GetTick 0000000010007d98     guideXOS.obj
 0003:00004dac       guideXOS_guideXOS_API__API_Write 0000000010007dac     guideXOS.obj
 0003:00004db8       guideXOS_guideXOS_API__API_WriteLine 0000000010007db8     guideXOS.obj
 0003:00004dc0       guideXOS_guideXOS_API__API_Allocate 0000000010007dc0     guideXOS.obj
 0003:00004dc8       guideXOS_guideXOS_API__API_Free 0000000010007dc8     guideXOS.obj
 0003:00004dd0       guideXOS_guideXOS_API__API_Reallocate 0000000010007dd0     guideXOS.obj
 0003:00004dd8       guideXOS_guideXOS_API__SayHello 0000000010007dd8     guideXOS.obj
 0003:00004de4       guideXOS_guideXOS_Kbd2Mouse__OnKeyChanged 0000000010007de4     guideXOS.obj
 0003:00004f68       guideXOS_guideXOS_ASC16__DrawChar 0000000010007f68     guideXOS.obj
 0003:00004ffc       guideXOS_guideXOS_Console__add_OnWrite 0000000010007ffc     guideXOS.obj
 0003:00005084       guideXOS_guideXOS_Console__Setup 0000000010008084     guideXOS.obj
 0003:0000513c       guideXOS_guideXOS_Console__Write 000000001000813c     guideXOS.obj
 0003:000051ec       guideXOS_guideXOS_Console__Write_0 00000000100081ec     guideXOS.obj
 0003:00005270       guideXOS_guideXOS_Console__WriteFramebuffer 0000000010008270     guideXOS.obj
 0003:0000537c       guideXOS_guideXOS_Console__MoveUp 000000001000837c     guideXOS.obj
 0003:000053b0       guideXOS_guideXOS_Console__MoveUpFramebuffer 00000000100083b0     guideXOS.obj
 0003:0000545c       guideXOS_guideXOS_Console__UpdateCursorFramebuffer 000000001000845c     guideXOS.obj
 0003:0000550c       guideXOS_guideXOS_Console__WriteLine 000000001000850c     guideXOS.obj
 0003:000055a4       guideXOS_guideXOS_Console__WriteLine_0 00000000100085a4     guideXOS.obj
 0003:000055e8       guideXOS_guideXOS_Console__Clear 00000000100085e8     guideXOS.obj
 0003:00005604       guideXOS_guideXOS_Console__ClearFramebuffer 0000000010008604     guideXOS.obj
 0003:000056c0       guideXOS_guideXOS_PageTable__Initialise 00000000100086c0     guideXOS.obj
 0003:00005794       guideXOS_guideXOS_PageTable__GetPageInternal 0000000010008794     guideXOS.obj
 0003:00005850       guideXOS_guideXOS_PageTable__MapOnRoot 0000000010008850     guideXOS.obj
 0003:000058e0       guideXOS_guideXOS_PageTable__Next_0 00000000100088e0     guideXOS.obj
 0003:000059b0       guideXOS_guideXOS_Intel825xx__Initialize 00000000100089b0     guideXOS.obj
 0003:000063bc       guideXOS_guideXOS_Intel825xx__Reset 00000000100093bc     guideXOS.obj
 0003:000063f0       guideXOS_guideXOS_Intel825xx__TXsetup 00000000100093f0     guideXOS.obj
 0003:00006460       guideXOS_guideXOS_Intel825xx__RXsetup 0000000010009460     guideXOS.obj
 0003:000064f8       guideXOS_guideXOS_Intel825xx__ReadROM 00000000100094f8     guideXOS.obj
 0003:0000652c       guideXOS_guideXOS_Intel825xx__OnInterrupt 000000001000952c     guideXOS.obj
 0003:000065b0       guideXOS_guideXOS_Intel825xx__Linkup 00000000100095b0     guideXOS.obj
 0003:000065ec       guideXOS_guideXOS_Intel825xx__Send 00000000100095ec     guideXOS.obj
 0003:0000664c       guideXOS_guideXOS_NETv4__Initialize 000000001000964c     guideXOS.obj
 0003:00006734       guideXOS_guideXOS_NETv4__SwapLeftRight 0000000010009734     guideXOS.obj
 0003:00006750       guideXOS_guideXOS_NETv4__SwapLeftRight_0 0000000010009750     guideXOS.obj
 0003:00006780       guideXOS_guideXOS_NETv4__SwapLeftRight_1 0000000010009780     guideXOS.obj
 0003:0000679c       guideXOS_guideXOS_NETv4__SwapLeftRight_2 000000001000979c     guideXOS.obj
 0003:000067d8       guideXOS_guideXOS_NETv4__OnData_0 00000000100097d8     guideXOS.obj
 0003:0000684c       guideXOS_guideXOS_NETv4__DNSQuery 000000001000984c     guideXOS.obj
 0003:00006d40       guideXOS_guideXOS_NETv4__DHCPDiscover 0000000010009d40     guideXOS.obj
 0003:00007260       guideXOS_guideXOS_NETv4__MakeDHCPRequestPacket 000000001000a260     guideXOS.obj
 0003:00007330       guideXOS_guideXOS_NETv4__UDPBind 000000001000a330     guideXOS.obj
 0003:0000738c       guideXOS_guideXOS_NETv4__UDPSend 000000001000a38c     guideXOS.obj
 0003:000074f0       guideXOS_guideXOS_NETv4__MakeUDPPacket 000000001000a4f0     guideXOS.obj
 0003:000075fc       guideXOS_guideXOS_NETv4__UDPOnData_0 000000001000a5fc     guideXOS.obj
 0003:0000775c       guideXOS_guideXOS_NETv4__TCPOnData 000000001000a75c     guideXOS.obj
 0003:00007d78       guideXOS_guideXOS_NETv4__TCPConnect 000000001000ad78     guideXOS.obj
 0003:00007e18       guideXOS_guideXOS_NETv4__TCPClose 000000001000ae18     guideXOS.obj
 0003:00007e50       guideXOS_guideXOS_NETv4__TCPSendData 000000001000ae50     guideXOS.obj
 0003:00007ee0       guideXOS_guideXOS_NETv4__TCPSend 000000001000aee0     guideXOS.obj
 0003:00008038       guideXOS_guideXOS_NETv4__MakeTCPPacket 000000001000b038     guideXOS.obj
 0003:000081fc       guideXOS_guideXOS_NETv4__IPOnData 000000001000b1fc     guideXOS.obj
 0003:00008328       guideXOS_guideXOS_NETv4__MakeIPPacket 000000001000b328     guideXOS.obj
 0003:00008390       guideXOS_guideXOS_NETv4__IPChecksum 000000001000b390     guideXOS.obj
 0003:000083e0       guideXOS_guideXOS_NETv4__ICMPOnData 000000001000b3e0     guideXOS.obj
 0003:00008554       guideXOS_guideXOS_NETv4__ICMPPing 000000001000b554     guideXOS.obj
 0003:000086c0       guideXOS_guideXOS_NETv4__ARPLookup 000000001000b6c0     guideXOS.obj
 0003:0000884c       guideXOS_guideXOS_NETv4__ARPOnData 000000001000b84c     guideXOS.obj
 0003:00008a68       guideXOS_guideXOS_NETv4__MakeARPPacket 000000001000ba68     guideXOS.obj
 0003:00008ae0       guideXOS_guideXOS_NETv4__ARPRequire 000000001000bae0     guideXOS.obj
 0003:00008be4       guideXOS_guideXOS_NETv4__MakeEthernetPacket 000000001000bbe4     guideXOS.obj
 0003:00008c20       guideXOS_guideXOS_RTL8111__Initialize 000000001000bc20     guideXOS.obj
 0003:000096d4       guideXOS_guideXOS_RTL8111__ResetRXDesc 000000001000c6d4     guideXOS.obj
 0003:0000970c       guideXOS_guideXOS_RTL8111__Send 000000001000c70c     guideXOS.obj
 0003:000097cc       guideXOS_guideXOS_RTL8111__OnInterrupt 000000001000c7cc     guideXOS.obj
 0003:000098b8       guideXOS_guideXOS_SMP__ApplicationProcessorMain 000000001000c8b8     guideXOS.obj
 0003:00009940       guideXOS_guideXOS_SMP__Initialize 000000001000c940     guideXOS.obj
 0003:00009b30       guideXOS_guideXOS_Network_Http__NextEphemeralPort 000000001000cb30     guideXOS.obj
 0003:00009b64       guideXOS_guideXOS_Network_Http__PostJson 000000001000cb64     guideXOS.obj
 0003:00009bf4       guideXOS_guideXOS_Network_Http__BuildPost 000000001000cbf4     guideXOS.obj
 0003:00009ddc       guideXOS_guideXOS_Network_Http__Send 000000001000cddc     guideXOS.obj
 0003:0000a360       guideXOS_guideXOS_Network_Http__Resolve 000000001000d360     guideXOS.obj
 0003:0000a494       guideXOS_guideXOS_Network_Http__IsZero 000000001000d494     guideXOS.obj
 0003:0000a4b4       guideXOS_guideXOS_Network_Http__EqualsIp 000000001000d4b4     guideXOS.obj
 0003:0000a4f4       guideXOS_guideXOS_Network_Http__ReceiveAll 000000001000d4f4     guideXOS.obj
 0003:0000a634       guideXOS_guideXOS_Network_Http__IsHttpComplete 000000001000d634     guideXOS.obj
 0003:0000a7a8       guideXOS_guideXOS_Network_Http__HeaderContentLengthBytes 000000001000d7a8     guideXOS.obj
 0003:0000a854       guideXOS_guideXOS_Network_Http__HeaderChunkedBytes 000000001000d854     guideXOS.obj
 0003:0000a89c       guideXOS_guideXOS_Network_Http__ParseHttp 000000001000d89c     guideXOS.obj
 0003:0000acc4       guideXOS_guideXOS_Network_Http__DecodeChunked 000000001000dcc4     guideXOS.obj
 0003:0000ae20       guideXOS_guideXOS_Network_Http__IndexOf 000000001000de20     guideXOS.obj
 0003:0000ae88       guideXOS_guideXOS_Network_Http__Match 000000001000de88     guideXOS.obj
 0003:0000af3c       guideXOS_guideXOS_Network_Http__ToAsciiBytes 000000001000df3c     guideXOS.obj
 0003:0000afd0       guideXOS_guideXOS_Network_Http__BytesToAscii_0 000000001000dfd0     guideXOS.obj
 0003:0000b084       guideXOS_guideXOS_Network_Http__SetHeader 000000001000e084     guideXOS.obj
 0003:0000b148       guideXOS_guideXOS_Network_Http__GetHeader 000000001000e148     guideXOS.obj
 0003:0000b1b0       guideXOS_guideXOS_Network_Http__EqualsIgnoreCase 000000001000e1b0     guideXOS.obj
 0003:0000b224       guideXOS_guideXOS_Network_Http__IndexOfIgnoreCase 000000001000e224     guideXOS.obj
 0003:0000b2b8       guideXOS_guideXOS_Network_Http__IndexOf_0 000000001000e2b8     guideXOS.obj
 0003:0000b2e8       guideXOS_guideXOS_Network_Http__HasPrefix 000000001000e2e8     guideXOS.obj
 0003:0000b330       guideXOS_guideXOS_Network_Http__TrimSpaces 000000001000e330     guideXOS.obj
 0003:0000b394       guideXOS_guideXOS_Network_Http__ParseInt 000000001000e394     guideXOS.obj
 0003:0000b3cc       guideXOS_guideXOS_Network_Http__ParseIntToString 000000001000e3cc     guideXOS.obj
 0003:0000b4fc       guideXOS_guideXOS_Network_Http__ParseHex 000000001000e4fc     guideXOS.obj
 0003:0000b55c       guideXOS_guideXOS_Graph_Graphics__FromImage 000000001000e55c     guideXOS.obj
 0003:0000b5c0       guideXOS_guideXOS_Graph_Graphics__Update 000000001000e5c0     guideXOS.obj
 0003:0000b5c4       guideXOS_guideXOS_Graph_Graphics__Clear 000000001000e5c4     guideXOS.obj
 0003:0000b62c       guideXOS_guideXOS_Graph_Graphics__Copy 000000001000e62c     guideXOS.obj
 0003:0000b6c8       guideXOS_guideXOS_Graph_Graphics__FillRectangle 000000001000e6c8     guideXOS.obj
 0003:0000b740       guideXOS_guideXOS_Graph_Graphics__AFillRectangle 000000001000e740     guideXOS.obj
 0003:0000b8ac       guideXOS_guideXOS_Graph_Graphics__GetPoint 000000001000e8ac     guideXOS.obj
 0003:0000b8d8       guideXOS_guideXOS_Graph_Graphics__DrawPoint 000000001000e8d8     guideXOS.obj
 0003:0000b9c8       guideXOS_guideXOS_Graph_Graphics__DrawRectangle 000000001000e9c8     guideXOS.obj
 0003:0000ba84       guideXOS_guideXOS_Graph_Graphics__Save 000000001000ea84     guideXOS.obj
 0003:0000bb60       guideXOS_guideXOS_Graph_Graphics__ADrawImage 000000001000eb60     guideXOS.obj
 0003:0000bc10       guideXOS_guideXOS_Graph_Graphics__DrawImage 000000001000ec10     guideXOS.obj
 0003:0000be68       guideXOS_guideXOS_Graph_Graphics__FPartOfNumber 000000001000ee68     guideXOS.obj
 0003:0000be98       guideXOS_guideXOS_Graph_Graphics__DrawPoint_0 000000001000ee98     guideXOS.obj
 0003:0000bf00       guideXOS_guideXOS_Graph_Graphics__DrawLine 000000001000ef00     guideXOS.obj
 0003:0000c0d8       guideXOS_guideXOS_Graph_Graphics__BlurRectangle 000000001000f0d8     guideXOS.obj
 0003:0000c658       guideXOS_guideXOS_Graph_Graphics__ResetBlurBuffers 000000001000f658     guideXOS.obj
 0003:0000c750       guideXOS_guideXOS_FS_AutoFS___ctor 000000001000f750     guideXOS.obj
 0003:0000c8d8       guideXOS_guideXOS_FS_AutoFS___ctor_0 000000001000f8d8     guideXOS.obj
 0003:0000ca60       guideXOS_guideXOS_FS_AutoFS__LooksLikeTar 000000001000fa60     guideXOS.obj
 0003:0000caa4       guideXOS_guideXOS_FS_AutoFS__LooksLikeFat 000000001000faa4     guideXOS.obj
 0003:0000cb34       guideXOS_guideXOS_FS_AutoFS__LooksLikeExt 000000001000fb34     guideXOS.obj
 0003:0000cbb0       guideXOS_guideXOS_FS_AutoFS__LooksLikeExt_0 000000001000fbb0     guideXOS.obj
 0003:0000cbd8       guideXOS_guideXOS_FS_AutoFS__GetFiles 000000001000fbd8     guideXOS.obj
 0003:0000cbe4       guideXOS_guideXOS_FS_AutoFS__ReadAllBytes 000000001000fbe4     guideXOS.obj
 0003:0000cbf0       guideXOS_guideXOS_FS_AutoFS__WriteAllBytes 000000001000fbf0     guideXOS.obj
 0003:0000cbfc       guideXOS_guideXOS_FS_AutoFS__Format 000000001000fbfc     guideXOS.obj
 0003:0000cc08       guideXOS_guideXOS_FS_EXT2___ctor 000000001000fc08     guideXOS.obj
 0003:0000cdc8       guideXOS_guideXOS_FS_EXT2___ctor_0 000000001000fdc8     guideXOS.obj
 0003:0000cf7c       guideXOS_guideXOS_FS_EXT2__ReadBytes 000000001000ff7c     guideXOS.obj
 0003:0000d0a8       guideXOS_guideXOS_FS_EXT2__WriteBytes 00000000100100a8     guideXOS.obj
 0003:0000d1e8       guideXOS_guideXOS_FS_EXT2__ReadBlock 00000000100101e8     guideXOS.obj
 0003:0000d288       guideXOS_guideXOS_FS_EXT2__WriteBlock 0000000010010288     guideXOS.obj
 0003:0000d3c0       guideXOS_guideXOS_FS_EXT2__ReadBlockRange 00000000100103c0     guideXOS.obj
 0003:0000d46c       guideXOS_guideXOS_FS_EXT2__ReadU32 000000001001046c     guideXOS.obj
 0003:0000d4d4       guideXOS_guideXOS_FS_EXT2__WriteU16 00000000100104d4     guideXOS.obj
 0003:0000d508       guideXOS_guideXOS_FS_EXT2__WriteU32 0000000010010508     guideXOS.obj
 0003:0000d568       guideXOS_guideXOS_FS_EXT2__ReadInode 0000000010010568     guideXOS.obj
 0003:0000d67c       guideXOS_guideXOS_FS_EXT2__WriteInode 000000001001067c     guideXOS.obj
 0003:0000d754       guideXOS_guideXOS_FS_EXT2__EnumDirectory 0000000010010754     guideXOS.obj
 0003:0000dba0       guideXOS_guideXOS_FS_EXT2__ResolvePathToInode 0000000010010ba0     guideXOS.obj
 0003:0000dd18       guideXOS_guideXOS_FS_EXT2__StrEq 0000000010010d18     guideXOS.obj
 0003:0000dd60       guideXOS_guideXOS_FS_EXT2__GetFiles 0000000010010d60     guideXOS.obj
 0003:0000def8       guideXOS_guideXOS_FS_EXT2__ReadAllBytes 0000000010010ef8     guideXOS.obj
 0003:0000e190       guideXOS_guideXOS_FS_EXT2__WriteAllBytes 0000000010011190     guideXOS.obj
 0003:0000e4f4       guideXOS_guideXOS_FS_EXT2__Format 00000000100114f4     guideXOS.obj
 0003:0000e504       guideXOS_guideXOS_FS_FAT___ctor 0000000010011504     guideXOS.obj
 0003:0000e698       guideXOS_guideXOS_FS_FAT___ctor_0 0000000010011698     guideXOS.obj
 0003:0000e81c       guideXOS_guideXOS_FS_FAT__InvalidateSector 000000001001181c     guideXOS.obj
 0003:0000e86c       guideXOS_guideXOS_FS_FAT__ReadSectorsCached 000000001001186c     guideXOS.obj
 0003:0000ea50       guideXOS_guideXOS_FS_FAT__WriteSector 0000000010011a50     guideXOS.obj
 0003:0000ead0       guideXOS_guideXOS_FS_FAT__ReadFatEntry 0000000010011ad0     guideXOS.obj
 0003:0000ecb0       guideXOS_guideXOS_FS_FAT__WriteFatEntry 0000000010011cb0     guideXOS.obj
 0003:0000f160       guideXOS_guideXOS_FS_FAT__IsEOC 0000000010012160     guideXOS.obj
 0003:0000f198       guideXOS_guideXOS_FS_FAT__EOC 0000000010012198     guideXOS.obj
 0003:0000f1b8       guideXOS_guideXOS_FS_FAT__GetClusterChain 00000000100121b8     guideXOS.obj
 0003:0000f264       guideXOS_guideXOS_FS_FAT__ReadCluster 0000000010012264     guideXOS.obj
 0003:0000f3a8       guideXOS_guideXOS_FS_FAT__ZeroCluster 00000000100123a8     guideXOS.obj
 0003:0000f480       guideXOS_guideXOS_FS_FAT__ReadAllClusterChain 0000000010012480     guideXOS.obj
 0003:0000f630       guideXOS_guideXOS_FS_FAT__ComposeShortName 0000000010012630     guideXOS.obj
 0003:0000f6e0       guideXOS_guideXOS_FS_FAT__AssembleLfn 00000000100126e0     guideXOS.obj
 0003:0000f7cc       guideXOS_guideXOS_FS_FAT__IterateDirectory 00000000100127cc     guideXOS.obj
 0003:0000f8dc       guideXOS_guideXOS_FS_FAT__IterateDirSectorRangeCluster 00000000100128dc     guideXOS.obj
 0003:0000f98c       guideXOS_guideXOS_FS_FAT__IterateDirEntries 000000001001298c     guideXOS.obj
 0003:0000fb20       guideXOS_guideXOS_FS_FAT__EqualsIgnoreCase 0000000010012b20     guideXOS.obj
 0003:0000fb8c       guideXOS_guideXOS_FS_FAT__FindPath 0000000010012b8c     guideXOS.obj
 0003:0000ffa8       guideXOS_guideXOS_FS_FAT__FindEntryLoc 0000000010012fa8     guideXOS.obj
 0003:00010724       guideXOS_guideXOS_FS_FAT__NextFreeCluster 0000000010013724     guideXOS.obj
 0003:00010784       guideXOS_guideXOS_FS_FAT__AllocateClustersForSize 0000000010013784     guideXOS.obj
 0003:000108e0       guideXOS_guideXOS_FS_FAT__FreeClusterChain 00000000100138e0     guideXOS.obj
 0003:00010948       guideXOS_guideXOS_FS_FAT__WriteDataToChain 0000000010013948     guideXOS.obj
 0003:00010c60       guideXOS_guideXOS_FS_FAT__WriteDirEntry 0000000010013c60     guideXOS.obj
 0003:00010df4       guideXOS_guideXOS_FS_FAT__GenerateShortName 0000000010013df4     guideXOS.obj
 0003:0001103c       guideXOS_guideXOS_FS_FAT__EnsureDirHasFreeSlot 000000001001403c     guideXOS.obj
 0003:00011124       guideXOS_guideXOS_FS_FAT__GetFiles 0000000010014124     guideXOS.obj
 0003:00011258       guideXOS_guideXOS_FS_FAT__ReadAllBytes 0000000010014258     guideXOS.obj
 0003:000112fc       guideXOS_guideXOS_FS_FAT__WriteAllBytes 00000000100142fc     guideXOS.obj
 0003:000115c8       guideXOS_guideXOS_FS_FAT__Format 00000000100145c8     guideXOS.obj
 0003:00011f98       guideXOS_guideXOS_FS_FileInfo__Dispose 0000000010014f98     guideXOS.obj
 0003:00012020       guideXOS_guideXOS_FS_FileInfo___ctor 0000000010015020     guideXOS.obj
 0003:00012024       guideXOS_guideXOS_FS_File__Exists 0000000010015024     guideXOS.obj
 0003:000120d4       guideXOS_guideXOS_FS_FileSystem__SizeToSec 00000000100150d4     guideXOS.obj
 0003:000120f4       guideXOS_guideXOS_FS_FileSystem__IsInDirectory 00000000100150f4     guideXOS.obj
 0003:00012158       guideXOS_guideXOS_FS_TarFS___ctor_0 0000000010015158     guideXOS.obj
 0003:0001218c       guideXOS_guideXOS_FS_TarFS__GetFiles 000000001001518c     guideXOS.obj
 0003:00012418       guideXOS_guideXOS_FS_TarFS__ReadAllBytes 0000000010015418     guideXOS.obj
 0003:00012738       guideXOS_guideXOS_FS_TarFS__WriteAllBytes 0000000010015738     guideXOS.obj
 0003:0001273c       guideXOS_guideXOS_FS_TarFS__Format 000000001001573c     guideXOS.obj
 0003:00012740       _putchar                   0000000010015740     guideXOS.obj
 0003:00012740       guideXOS_guideXOS_Kernel_Libraries_stdio___putchar 0000000010015740     guideXOS.obj
 0003:00012754       fopen                      0000000010015754     guideXOS.obj
 0003:00012754       guideXOS_guideXOS_Kernel_Libraries_stdio__fopen 0000000010015754     guideXOS.obj
 0003:000128f4       fseek                      00000000100158f4     guideXOS.obj
 0003:000128f4       guideXOS_guideXOS_Kernel_Libraries_stdio__fseek 00000000100158f4     guideXOS.obj
 0003:0001290c       fread                      000000001001590c     guideXOS.obj
 0003:0001290c       guideXOS_guideXOS_Kernel_Libraries_stdio__fread 000000001001590c     guideXOS.obj
 0003:00012970       guideXOS_guideXOS_Kernel_Libraries_stdlib__malloc 0000000010015970     guideXOS.obj
 0003:00012970       malloc                     0000000010015970     guideXOS.obj
 0003:00012984       free                       0000000010015984     guideXOS.obj
 0003:00012984       guideXOS_guideXOS_Kernel_Libraries_stdlib__free 0000000010015984     guideXOS.obj
 0003:00012994       guideXOS_guideXOS_Kernel_Libraries_stdlib__realloc 0000000010015994     guideXOS.obj
 0003:00012994       realloc                    0000000010015994     guideXOS.obj
 0003:000129a4       calloc                     00000000100159a4     guideXOS.obj
 0003:000129a4       guideXOS_guideXOS_Kernel_Libraries_stdlib__calloc 00000000100159a4     guideXOS.obj
 0003:00012a1c       guideXOS_guideXOS_Kernel_Libraries_stdlib__kmalloc 0000000010015a1c     guideXOS.obj
 0003:00012a1c       kmalloc                    0000000010015a1c     guideXOS.obj
 0003:00012a30       guideXOS_guideXOS_Kernel_Libraries_stdlib__kfree 0000000010015a30     guideXOS.obj
 0003:00012a30       kfree                      0000000010015a30     guideXOS.obj
 0003:00012a40       guideXOS_guideXOS_Kernel_Libraries_stdlib__krealloc 0000000010015a40     guideXOS.obj
 0003:00012a40       krealloc                   0000000010015a40     guideXOS.obj
 0003:00012a50       guideXOS_guideXOS_Kernel_Libraries_stdlib__kcalloc 0000000010015a50     guideXOS.obj
 0003:00012a50       kcalloc                    0000000010015a50     guideXOS.obj
 0003:00012ac8       guideXOS_guideXOS_Kernel_Drivers_ACPI__GetRSDP 0000000010015ac8     guideXOS.obj
 0003:00012af0       guideXOS_guideXOS_Kernel_Drivers_ACPI__Shutdown 0000000010015af0     guideXOS.obj
 0003:00012bac       guideXOS_guideXOS_Kernel_Drivers_ACPI__Initialize 0000000010015bac     guideXOS.obj
 0003:00012c70       guideXOS_guideXOS_Kernel_Drivers_ACPI__ParseDT 0000000010015c70     guideXOS.obj
 0003:00012e40       guideXOS_guideXOS_Kernel_Drivers_ACPI__RemapIRQ 0000000010015e40     guideXOS.obj
 0003:00012e98       guideXOS_guideXOS_Kernel_Drivers_ACPITimer__Sleep 0000000010015e98     guideXOS.obj
 0003:00012f7c       guideXOS_guideXOS_Kernel_Drivers_ACPITimer__SleepMicroseconds 0000000010015f7c     guideXOS.obj
 0003:000130a0       guideXOS_guideXOS_Kernel_Drivers_Resolution__ToString 00000000100160a0     guideXOS.obj
 0003:00013114       guideXOS_guideXOS_Kernel_Drivers_DisplayManager__EnsureSvga 0000000010016114     guideXOS.obj
 0003:000131f0       guideXOS_guideXOS_Kernel_Drivers_DisplayManager__TrySetResolution 00000000100161f0     guideXOS.obj
 0003:000132e0       guideXOS_guideXOS_Kernel_Drivers_DisplayManager__ToASCII 00000000100162e0     guideXOS.obj
 0003:00013324       guideXOS_guideXOS_Kernel_Drivers_DisplayManager__SaveResolution 0000000010016324     guideXOS.obj
 0003:000133d4       guideXOS_guideXOS_Kernel_Drivers_EHCI__SendAndReceive 00000000100163d4     guideXOS.obj
 0003:000136c4       guideXOS_guideXOS_Kernel_Drivers_EHCI__WaitForComplete 00000000100166c4     guideXOS.obj
 0003:0001376c       guideXOS_guideXOS_Kernel_Drivers_EHCI__BulkTransfer 000000001001676c     guideXOS.obj
 0003:000139fc       guideXOS_guideXOS_Kernel_Drivers_Framebuffer__set_TripleBuffered 00000000100169fc     guideXOS.obj
 0003:00013a80       guideXOS_guideXOS_Kernel_Drivers_Framebuffer__Update 0000000010016a80     guideXOS.obj
 0003:00013b50       guideXOS_guideXOS_Kernel_Drivers_Framebuffer__Initialize 0000000010016b50     guideXOS.obj
 0003:00013c8c       guideXOS_guideXOS_Kernel_Drivers_HPET__Initialize 0000000010016c8c     guideXOS.obj
 0003:00013cfc       guideXOS_guideXOS_Kernel_Drivers_HPET__WriteRegister 0000000010016cfc     guideXOS.obj
 0003:00013d20       guideXOS_guideXOS_Kernel_Drivers_HPET__ReadRegister 0000000010016d20     guideXOS.obj
 0003:00013d40       guideXOS_guideXOS_Kernel_Drivers_IDE__Initialize 0000000010016d40     guideXOS.obj
 0003:00013da4       guideXOS_guideXOS_Kernel_Drivers_IDE__ScanPorts 0000000010016da4     guideXOS.obj
 0003:000143d0       guideXOS_guideXOS_Kernel_Drivers_IDE___ScanPorts_g__WaitForIdentifyData_3_2 00000000100173d0     guideXOS.obj
 0003:0001443c       guideXOS_guideXOS_Kernel_Drivers_IDEDevice__ReadOrWrite 000000001001743c     guideXOS.obj
 0003:00014700       guideXOS_guideXOS_Kernel_Drivers_IDEDevice__WaitForReadyStatus 0000000010017700     guideXOS.obj
 0003:00014764       guideXOS_guideXOS_Kernel_Drivers_IDEDevice__Read 0000000010017764     guideXOS.obj
 0003:000147c4       guideXOS_guideXOS_Kernel_Drivers_IDEDevice__Write 00000000100177c4     guideXOS.obj
 0003:00014828       guideXOS_guideXOS_Kernel_Drivers_IDEDevice___ctor 0000000010017828     guideXOS.obj
 0003:00014848       guideXOS_guideXOS_Kernel_Drivers_IOAPIC__Initialize 0000000010017848     guideXOS.obj
 0003:000148a4       guideXOS_guideXOS_Kernel_Drivers_IOAPIC__In 00000000100178a4     guideXOS.obj
 0003:000148d0       guideXOS_guideXOS_Kernel_Drivers_IOAPIC__Out 00000000100178d0     guideXOS.obj
 0003:00014900       guideXOS_guideXOS_Kernel_Drivers_IOAPIC__SetEntry 0000000010017900     guideXOS.obj
 0003:00014934       guideXOS_guideXOS_Kernel_Drivers_IOAPIC__SetEntry_0 0000000010017934     guideXOS.obj
 0003:00014954       guideXOS_guideXOS_Kernel_Drivers_Keyboard__InvokeOnKeyChanged 0000000010017954     guideXOS.obj
 0003:00014984       guideXOS_guideXOS_Kernel_Drivers_Keyboard__SimulateKey 0000000010017984     guideXOS.obj
 0003:00014a2c       guideXOS_guideXOS_Kernel_Drivers_Keyboard__CleanKeyInfo 0000000010017a2c     guideXOS.obj
 0003:00014a58       guideXOS_guideXOS_Kernel_Drivers_LocalAPIC__ReadRegister 0000000010017a58     guideXOS.obj
 0003:00014a78       guideXOS_guideXOS_Kernel_Drivers_LocalAPIC__Initialize 0000000010017a78     guideXOS.obj
 0003:00014aa4       guideXOS_guideXOS_Kernel_Drivers_LocalAPIC__SendIPI 0000000010017aa4     guideXOS.obj
 0003:00014af4       guideXOS_guideXOS_Kernel_Drivers_LocalAPICTimer__StartTimer 0000000010017af4     guideXOS.obj
 0003:00014b60       guideXOS_guideXOS_Kernel_Drivers_LocalAPICTimer__EstimateBusSpeed 0000000010017b60     guideXOS.obj
 0003:00014c14       guideXOS_guideXOS_Kernel_Drivers_PCIDevice__WriteRegister 0000000010017c14     guideXOS.obj
 0003:00014c80       guideXOS_guideXOS_Kernel_Drivers_PCIDevice___ctor 0000000010017c80     guideXOS.obj
 0003:00014c84       guideXOS_guideXOS_Kernel_Drivers_PCI__GetDevice 0000000010017c84     guideXOS.obj
 0003:00014cf4       guideXOS_guideXOS_Kernel_Drivers_PCI__Initialise 0000000010017cf4     guideXOS.obj
 0003:00014d8c       guideXOS_guideXOS_Kernel_Drivers_PCI__CheckBus 0000000010017d8c     guideXOS.obj
 0003:000152c8       guideXOS_guideXOS_Kernel_Drivers_PCI__ReadRegister16 00000000100182c8     guideXOS.obj
 0003:00015370       guideXOS_guideXOS_Kernel_Drivers_PCI__ReadRegister8 0000000010018370     guideXOS.obj
 0003:00015418       guideXOS_guideXOS_Kernel_Drivers_PCI__WriteRegister16 0000000010018418     guideXOS.obj
 0003:000154b8       guideXOS_guideXOS_Kernel_Drivers_PCI__GetVendorID 00000000100184b8     guideXOS.obj
 0003:00015544       guideXOS_guideXOS_Kernel_Drivers_PCI__GetHeaderType 0000000010018544     guideXOS.obj
 0003:000155d8       guideXOS_guideXOS_Kernel_Drivers_PCI__GetAddressBase 00000000100185d8     guideXOS.obj
 0003:000155f8       guideXOS_guideXOS_Kernel_Drivers_PCIExpress__Initialize 00000000100185f8     guideXOS.obj
 0003:00015690       guideXOS_guideXOS_Kernel_Drivers_PCIExpress__CheckBus 0000000010018690     guideXOS.obj
 0003:00015964       guideXOS_guideXOS_Kernel_Drivers_PIC__Disable 0000000010018964     guideXOS.obj
 0003:00015b50       guideXOS_guideXOS_Kernel_Drivers_Power__Reboot 0000000010018b50     guideXOS.obj
 0003:00015bec       guideXOS_guideXOS_Kernel_Drivers_PS2Keyboard__Initialize 0000000010018bec     guideXOS.obj
 0003:00015cdc       guideXOS_guideXOS_Kernel_Drivers_PS2Keyboard__OnInterrupt 0000000010018cdc     guideXOS.obj
 0003:00015eb4       guideXOS_guideXOS_Kernel_Drivers_PS2Keyboard__TranslateSet2ToSet1 0000000010018eb4     guideXOS.obj
 0003:0001628c       guideXOS_guideXOS_Kernel_Drivers_PS2Keyboard__UpdateModifiers 000000001001928c     guideXOS.obj
 0003:00016378       guideXOS_guideXOS_Kernel_Drivers_PS2Keyboard__ScancodeToKey 0000000010019378     guideXOS.obj
 0003:00016774       guideXOS_guideXOS_Kernel_Drivers_PS2Keyboard__GetChar 0000000010019774     guideXOS.obj
 0003:00016cd4       guideXOS_guideXOS_Kernel_Drivers_PS2Mouse__Initialise 0000000010019cd4     guideXOS.obj
 0003:000171f4       guideXOS_guideXOS_Kernel_Drivers_PS2Mouse__WriteRegister 000000001001a1f4     guideXOS.obj
 0003:00017314       guideXOS_guideXOS_Kernel_Drivers_PS2Mouse__OnInterrupt 000000001001a314     guideXOS.obj
 0003:00017690       guideXOS_guideXOS_Kernel_Drivers_Ramdisk__Read 000000001001a690     guideXOS.obj
 0003:000176fc       guideXOS_guideXOS_Kernel_Drivers_Ramdisk__Write 000000001001a6fc     guideXOS.obj
 0003:0001776c       guideXOS_guideXOS_Kernel_Drivers_RTC__get_Second 000000001001a76c     guideXOS.obj
 0003:00017804       guideXOS_guideXOS_Kernel_Drivers_RTC__get_Minute 000000001001a804     guideXOS.obj
 0003:000178a0       guideXOS_guideXOS_Kernel_Drivers_RTC__get_Hour 000000001001a8a0     guideXOS.obj
 0003:00017954       guideXOS_guideXOS_Kernel_Drivers_RTC__get_Century 000000001001a954     guideXOS.obj
 0003:000179f0       guideXOS_guideXOS_Kernel_Drivers_RTC__get_Year 000000001001a9f0     guideXOS.obj
 0003:00017a8c       guideXOS_guideXOS_Kernel_Drivers_RTC__get_Month 000000001001aa8c     guideXOS.obj
 0003:00017b28       guideXOS_guideXOS_Kernel_Drivers_RTC__get_Day 000000001001ab28     guideXOS.obj
 0003:00017bc4       guideXOS_guideXOS_Kernel_Drivers_SATA__Initialize 000000001001abc4     guideXOS.obj
 0003:00017fa4       guideXOS_guideXOS_Kernel_Drivers_SATA__CheckPortType 000000001001afa4     guideXOS.obj
 0003:00018000       guideXOS_guideXOS_Kernel_Drivers_Serial__Initialise 000000001001b000     guideXOS.obj
 0003:00018160       guideXOS_guideXOS_Kernel_Drivers_Serial__Write_0 000000001001b160     guideXOS.obj
 0003:000181e8       guideXOS_guideXOS_Kernel_Drivers_SMBIOS__Initialise 000000001001b1e8     guideXOS.obj
 0003:000182d4       guideXOS_guideXOS_Kernel_Drivers_SMBIOS__PrintIndex 000000001001b2d4     guideXOS.obj
 0003:00018334       guideXOS_guideXOS_Kernel_Drivers_Timer__Initialize 000000001001b334     guideXOS.obj
 0003:0001840c       guideXOS_guideXOS_Kernel_Drivers_Timer__EstimateCPUSpeed 000000001001b40c     guideXOS.obj
 0003:00018490       guideXOS_guideXOS_Kernel_Drivers_Timer__OnInterrupt 000000001001b490     guideXOS.obj
 0003:000184d4       guideXOS_guideXOS_Kernel_Drivers_Timer__Sleep 000000001001b4d4     guideXOS.obj
 0003:0001853c       guideXOS_guideXOS_Kernel_Drivers_USBMSCBot__TryCreateDisk 000000001001b53c     guideXOS.obj
 0003:00018624       guideXOS_guideXOS_Kernel_Drivers_VMWareSVGAII___ctor 000000001001b624     guideXOS.obj
 0003:000187c0       guideXOS_guideXOS_Kernel_Drivers_VMWareSVGAII__InitializeFIFO 000000001001b7c0     guideXOS.obj
 0003:00018930       guideXOS_guideXOS_Kernel_Drivers_VMWareSVGAII__SetMode 000000001001b930     guideXOS.obj
 0003:00018b58       guideXOS_guideXOS_Kernel_Drivers_VMwareTools__Initialize 000000001001bb58     guideXOS.obj
 0003:00018ba0       guideXOS_guideXOS_Kernel_Drivers_VMwareTools__vmware_handle_mouse 000000001001bba0     guideXOS.obj
 0003:00018cfc       guideXOS_guideXOS_Kernel_Drivers_VMwareTools__mouse_absolute 000000001001bcfc     guideXOS.obj
 0003:00018df4       guideXOS_guideXOS_Kernel_Drivers_VMwareTools__is_vmware_backdoor 000000001001bdf4     guideXOS.obj
 0003:00018e78       guideXOS_guideXOS_Kernel_Drivers_USBStorage__GetFirst 000000001001be78     guideXOS.obj
 0003:00018eac       guideXOS_guideXOS_Kernel_Drivers_USBStorage___cctor 000000001001beac     guideXOS.obj
 0003:00018ef8       guideXOS_guideXOS_OS_App__get__name 000000001001bef8     guideXOS.obj
 0003:00018f00       guideXOS_guideXOS_OS_App__get__icon 000000001001bf00     guideXOS.obj
 0003:00018f08       guideXOS_guideXOS_OS_App__get__appObject 000000001001bf08     guideXOS.obj
 0003:00018f10       guideXOS_guideXOS_OS_App__set__appObject 000000001001bf10     guideXOS.obj
 0003:00018f1c       guideXOS_guideXOS_OS_App__get_Name 000000001001bf1c     guideXOS.obj
 0003:00018f24       guideXOS_guideXOS_OS_App__get_Icon 000000001001bf24     guideXOS.obj
 0003:00018f2c       guideXOS_guideXOS_OS_App__get_AppObject 000000001001bf2c     guideXOS.obj
 0003:00018f34       guideXOS_guideXOS_OS_App__set_AppObject 000000001001bf34     guideXOS.obj
 0003:00018f3c       guideXOS_guideXOS_OS_AppCollection__Load 000000001001bf3c     guideXOS.obj
 0003:00019ae0       guideXOS_guideXOS_OS_AppCollection__LaunchGXMFromFile 000000001001cae0     guideXOS.obj
 0003:00019bf0       guideXOS_guideXOS_OS_AppCollection__get_Length 000000001001cbf0     guideXOS.obj
 0003:00019bf8       guideXOS_guideXOS_OS_AppCollection__Name 000000001001cbf8     guideXOS.obj
 0003:00019c24       guideXOS_guideXOS_OS_AppCollection__Icon 000000001001cc24     guideXOS.obj
 0003:00019c50       guideXOS_guideXOS_OS_AuthClient__JsonEscape 000000001001cc50     guideXOS.obj
 0003:00019e34       guideXOS_guideXOS_OS_AuthClient__ParseGuidFromJson 000000001001ce34     guideXOS.obj
 0003:00019ee8       guideXOS_guideXOS_OS_AuthClient__IndexOfIgnoreCase 000000001001cee8     guideXOS.obj
 0003:00019f74       guideXOS_guideXOS_OS_AuthClient__IndexOfFrom 000000001001cf74     guideXOS.obj
 0003:00019fa8       guideXOS_guideXOS_OS_AuthClient__TryLogin 000000001001cfa8     guideXOS.obj
 0003:0001a0e8       guideXOS_guideXOS_OS_AuthClient__TryRegister 000000001001d0e8     guideXOS.obj
 0003:0001a238       guideXOS_guideXOS_OS_Configuration__Initialize 000000001001d238     guideXOS.obj
 0003:0001a294       guideXOS_guideXOS_OS_Configuration__LoadConfiguration 000000001001d294     guideXOS.obj
 0003:0001a2e4       guideXOS_guideXOS_OS_Configuration__SaveConfiguration 000000001001d2e4     guideXOS.obj
 0003:0001a358       guideXOS_guideXOS_OS_Configuration__LoadUISettings 000000001001d358     guideXOS.obj
 0003:0001a514       guideXOS_guideXOS_OS_Configuration__SaveUISettings 000000001001d514     guideXOS.obj
 0003:0001a754       guideXOS_guideXOS_OS_Configuration__FindValue 000000001001d754     guideXOS.obj
 0003:0001a81c       guideXOS_guideXOS_OS_Configuration__ParseInt 000000001001d81c     guideXOS.obj
 0003:0001a884       guideXOS_guideXOS_OS_Configuration__ParseBool 000000001001d884     guideXOS.obj
 0003:0001a940       guideXOS_guideXOS_OS_Configuration__GetBytesFromString 000000001001d940     guideXOS.obj
 0003:0001a9dc       guideXOS_guideXOS_OS_Configuration__GetStringFromBytes 000000001001d9dc     guideXOS.obj
 0003:0001aa60       guideXOS_guideXOS_OS_Firewall__ListHas 000000001001da60     guideXOS.obj
 0003:0001aab8       guideXOS_guideXOS_OS_Firewall__get_Exceptions 000000001001dab8     guideXOS.obj
 0003:0001ab20       guideXOS_guideXOS_OS_Firewall__AddException 000000001001db20     guideXOS.obj
 0003:0001ab78       guideXOS_guideXOS_OS_Firewall__Check 000000001001db78     guideXOS.obj
 0003:0001abec       guideXOS_guideXOS_OS_Firewall__QueueAlert 000000001001dbec     guideXOS.obj
 0003:0001ac7c       guideXOS_guideXOS_OS_Firewall__ShowAlert 000000001001dc7c     guideXOS.obj
 0003:0001acc4       guideXOS_guideXOS_OS_Firewall__RemoveAlert 000000001001dcc4     guideXOS.obj
 0003:0001ad40       guideXOS_guideXOS_OS_Firewall___cctor 000000001001dd40     guideXOS.obj
 0003:0001add0       guideXOS_guideXOS_OS_SystemMode__get_IsLiveMode 000000001001ddd0     guideXOS.obj
 0003:0001adf4       guideXOS_guideXOS_OS_SystemMode__DetectMode 000000001001ddf4     guideXOS.obj
 0003:0001aeec       guideXOS_guideXOS_OS_SystemMode__CanWriteSettings 000000001001deec     guideXOS.obj
 0003:0001b038       guideXOS_guideXOS_Modules_ModuleManager__Register 000000001001e038     guideXOS.obj
 0003:0001b0e8       guideXOS_guideXOS_Modules_ModuleManager__InitializeBuiltins 000000001001e0e8     guideXOS.obj
 0003:0001b140       guideXOS_guideXOS_Modules_ModuleManager___cctor 000000001001e140     guideXOS.obj
 0003:0001b18c       guideXOS_guideXOS_Misc_TrueTypeFont___ctor 000000001001e18c     guideXOS.obj
 0003:0001b2a0       guideXOS_guideXOS_Misc_TrueTypeFont__ParseFont 000000001001e2a0     guideXOS.obj
 0003:0001b580       guideXOS_guideXOS_Misc_TrueTypeFont__ParseHeadTable 000000001001e580     guideXOS.obj
 0003:0001b60c       guideXOS_guideXOS_Misc_TrueTypeFont__ParseMaxpTable 000000001001e60c     guideXOS.obj
 0003:0001b68c       guideXOS_guideXOS_Misc_TrueTypeFont__ParseLocaTable 000000001001e68c     guideXOS.obj
 0003:0001b844       guideXOS_guideXOS_Misc_TrueTypeFont__ParseHheaTable 000000001001e844     guideXOS.obj
 0003:0001b8c4       guideXOS_guideXOS_Misc_TrueTypeFont__ParseHmtxTable 000000001001e8c4     guideXOS.obj
 0003:0001bae8       guideXOS_guideXOS_Misc_TrueTypeFont__ParseCmapTable 000000001001eae8     guideXOS.obj
 0003:0001bd30       guideXOS_guideXOS_Misc_TrueTypeFont__ParseCmapFormat4 000000001001ed30     guideXOS.obj
 0003:0001bfa4       guideXOS_guideXOS_Misc_TrueTypeFont__LoadGlyphOutline 000000001001efa4     guideXOS.obj
 0003:0001c73c       guideXOS_guideXOS_Misc_TrueTypeFont__RenderChar 000000001001f73c     guideXOS.obj
 0003:0001c8f0       guideXOS_guideXOS_Misc_TrueTypeFont__RasterizeOutline 000000001001f8f0     guideXOS.obj
 0003:0001cb08       guideXOS_guideXOS_Misc_TrueTypeFont__FindNextOnCurve 000000001001fb08     guideXOS.obj
 0003:0001cb4c       guideXOS_guideXOS_Misc_TrueTypeFont__DrawLine 000000001001fb4c     guideXOS.obj
 0003:0001cc24       guideXOS_guideXOS_Misc_TrueTypeFont__DrawQuadraticBezier 000000001001fc24     guideXOS.obj
 0003:0001cd68       guideXOS_guideXOS_Misc_TrueTypeFont__FloodFill 000000001001fd68     guideXOS.obj
 0003:0001cde8       guideXOS_guideXOS_Misc_TrueTypeFont__DrawString 000000001001fde8     guideXOS.obj
 0003:0001cf8c       guideXOS_guideXOS_Misc_TrueTypeFont__ReadInt16 000000001001ff8c     guideXOS.obj
 0003:0001cfc8       guideXOS_guideXOS_Misc_TrueTypeFont__ReadUInt16 000000001001ffc8     guideXOS.obj
 0003:0001d008       guideXOS_guideXOS_Misc_TrueTypeFont__ReadUInt32 0000000010020008     guideXOS.obj
 0003:0001d038       guideXOS_guideXOS_Misc_Audio__snd_write 0000000010020038     guideXOS.obj
 0003:0001d038       snd_write                  0000000010020038     guideXOS.obj
 0003:0001d120       guideXOS_guideXOS_Misc_Audio__snd_clear 0000000010020120     guideXOS.obj
 0003:0001d120       snd_clear                  0000000010020120     guideXOS.obj
 0003:0001d134       guideXOS_guideXOS_Misc_Bitmap___ctor 0000000010020134     guideXOS.obj
 0003:0001d37c       guideXOS_guideXOS_Misc_BootSplash__Initialize 000000001002037c     guideXOS.obj
 0003:0001d3f8       guideXOS_guideXOS_Misc_BootSplash__Cleanup 00000000100203f8     guideXOS.obj
 0003:0001d430       guideXOS_guideXOS_Misc_BootSplash__Tick 0000000010020430     guideXOS.obj
 0003:0001d7a4       guideXOS_guideXOS_Misc_ClassID__GetName 00000000100207a4     guideXOS.obj
 0003:0001d90c       KMain                      000000001002090c     guideXOS.obj
 0003:0001d90c       guideXOS_guideXOS_Misc_EntryPoint__KMain 000000001002090c     guideXOS.obj
 0003:0001ddd4       Entry                      0000000010020dd4     guideXOS.obj
 0003:0001ddd4       guideXOS_guideXOS_Misc_EntryPoint__Entry 0000000010020dd4     guideXOS.obj
 0003:0001e26c       guideXOS_guideXOS_Misc_EntryPoint__DetectArchitecture 000000001002126c     guideXOS.obj
 0003:0001e304       guideXOS_guideXOS_Misc_EntryPoint__TestPointerIntegrity 0000000010021304     guideXOS.obj
 0003:0001e310       guideXOS_guideXOS_Misc_GXMLoader__TryExecute 0000000010021310     guideXOS.obj
 0003:0001e768       guideXOS_guideXOS_Misc_GXMLoader__ApplyGuiLine 0000000010021768     guideXOS.obj
 0003:0001fb8c       guideXOS_guideXOS_Misc_GXMLoader__NextField 0000000010022b8c     guideXOS.obj
 0003:0001fc00       guideXOS_guideXOS_Misc_GXMLoader__IndexOf 0000000010022c00     guideXOS.obj
 0003:0001fc34       guideXOS_guideXOS_Misc_GXMLoader__StringEquals 0000000010022c34     guideXOS.obj
 0003:0001fca8       guideXOS_guideXOS_Misc_GXMLoader__ToInt 0000000010022ca8     guideXOS.obj
 0003:0001fd0c       guideXOS_guideXOS_Misc_GXMLoader__ToBool 0000000010022d0c     guideXOS.obj
 0003:0001fe7c       guideXOS_guideXOS_Misc_GXMLoader__ExtractUtf8 0000000010022e7c     guideXOS.obj
 0003:0001ff6c       guideXOS_guideXOS_Misc_GXMLoader__ReadU32 0000000010022f6c     guideXOS.obj
 0003:0001ffd4       guideXOS_guideXOS_Misc_IFont__DrawChar 0000000010022fd4     guideXOS.obj
 0003:00020268       guideXOS_guideXOS_Misc_IFont__DrawString 0000000010023268     guideXOS.obj
 0003:000202e0       guideXOS_guideXOS_Misc_IFont__DrawString_0 00000000100232e0     guideXOS.obj
 0003:00020358       guideXOS_guideXOS_Misc_IFont__MeasureString 0000000010023358     guideXOS.obj
 0003:000203c8       guideXOS_guideXOS_Misc_IFont__DrawString_1 00000000100233c8     guideXOS.obj
 0003:000204f8       guideXOS_guideXOS_Misc_Interrupts__EnableInterrupt_0 00000000100234f8     guideXOS.obj
 0003:00020560       guideXOS_guideXOS_Misc_Interrupts__HandleInterrupt 0000000010023560     guideXOS.obj
 0003:000205c8       guideXOS_guideXOS_Misc_Panic__Error 00000000100235c8     guideXOS.obj
 0003:00020670       guideXOS_guideXOS_Misc_Panic__ShowEnhancedCrashScreen 0000000010023670     guideXOS.obj
 0003:00020850       guideXOS_guideXOS_Misc_Panic__DrawPanicHeader 0000000010023850     guideXOS.obj
 0003:000209fc       guideXOS_guideXOS_Misc_Panic__DrawExceptionInfo 00000000100239fc     guideXOS.obj
 0003:000216b0       guideXOS_guideXOS_Misc_Panic__DrawRegisters 00000000100246b0     guideXOS.obj
 0003:000219b4       guideXOS_guideXOS_Misc_Panic__FormatRegister 00000000100249b4     guideXOS.obj
 0003:00021a7c       guideXOS_guideXOS_Misc_Panic__DrawStackTrace 0000000010024a7c     guideXOS.obj
 0003:00021d78       guideXOS_guideXOS_Misc_Panic__DrawSystemInfo 0000000010024d78     guideXOS.obj
 0003:00022134       guideXOS_guideXOS_Misc_Panic__DrawTimingAnalysis 0000000010025134     guideXOS.obj
 0003:0002246c       guideXOS_guideXOS_Misc_Panic__DrawControlRegisters 000000001002546c     guideXOS.obj
 0003:00022a18       guideXOS_guideXOS_Misc_Panic__DrawRFlagsBreakdown 0000000010025a18     guideXOS.obj
 0003:00022d80       guideXOS_guideXOS_Misc_Panic__DrawSectionHeader 0000000010025d80     guideXOS.obj
 0003:00022df8       guideXOS_guideXOS_Misc_Panic__DrawFooter 0000000010025df8     guideXOS.obj
 0003:00022ed8       guideXOS_guideXOS_Misc_Panic__DrawText 0000000010025ed8     guideXOS.obj
 0003:00022f2c       guideXOS_guideXOS_Misc_Panic__DrawTextLarge 0000000010025f2c     guideXOS.obj
 0003:00022fc4       guideXOS_guideXOS_Misc_Panic__GetExceptionName 0000000010025fc4     guideXOS.obj
 0003:0002311c       guideXOS_guideXOS_Misc_PNG__BuildFallback 000000001002611c     guideXOS.obj
 0003:000231b4       guideXOS_guideXOS_Misc_PNG__HasPngHeader 00000000100261b4     guideXOS.obj
 0003:00023238       guideXOS_guideXOS_Misc_PNG__TryGetIHDRDims 0000000010026238     guideXOS.obj
 0003:000232fc       guideXOS_guideXOS_Misc_PNG___ctor 00000000100262fc     guideXOS.obj
 0003:000235d0       guideXOS_guideXOS_Misc_PNG__lodepng_decode_memory 00000000100265d0     guideXOS.obj
 0003:0002366c       guideXOS_guideXOS_Misc_SchedulerExtensions__EnterUserMode 000000001002666c     guideXOS.obj
 0003:000236e4       guideXOS_guideXOS_Misc_SVG__BuildFallback 00000000100266e4     guideXOS.obj
 0003:0002377c       guideXOS_guideXOS_Misc_SVG___ctor 000000001002677c     guideXOS.obj
 0003:00023968       guideXOS_guideXOS_Misc_SVG__RenderSVG 0000000010026968     guideXOS.obj
 0003:00023dbc       guideXOS_guideXOS_Misc_SVG__GetMinIndex 0000000010026dbc     guideXOS.obj
 0003:00023df0       guideXOS_guideXOS_Misc_SVG__FindString 0000000010026df0     guideXOS.obj
 0003:00023e64       guideXOS_guideXOS_Misc_SVG__FindChar 0000000010026e64     guideXOS.obj
 0003:00023e98       guideXOS_guideXOS_Misc_SVG__RenderRectElement 0000000010026e98     guideXOS.obj
 0003:000240c0       guideXOS_guideXOS_Misc_SVG__RenderCircleElement 00000000100270c0     guideXOS.obj
 0003:000242b8       guideXOS_guideXOS_Misc_SVG__RenderEllipseElement 00000000100272b8     guideXOS.obj
 0003:000244b8       guideXOS_guideXOS_Misc_SVG__RenderPathElement 00000000100274b8     guideXOS.obj
 0003:00024914       guideXOS_guideXOS_Misc_SVG__RenderPolygonElement 0000000010027914     guideXOS.obj
 0003:00024c48       guideXOS_guideXOS_Misc_SVG__RenderPolylineElement 0000000010027c48     guideXOS.obj
 0003:00024efc       guideXOS_guideXOS_Misc_SVG__ParseNextNumber 0000000010027efc     guideXOS.obj
 0003:00024fe0       guideXOS_guideXOS_Misc_SVG__SplitString 0000000010027fe0     guideXOS.obj
 0003:0002517c       guideXOS_guideXOS_Misc_SVG__DrawLine 000000001002817c     guideXOS.obj
 0003:00025284       guideXOS_guideXOS_Misc_SVG__DrawRectStroke 0000000010028284     guideXOS.obj
 0003:000253a0       guideXOS_guideXOS_Misc_SVG__ParseFloatAttr 00000000100283a0     guideXOS.obj
 0003:0002549c       guideXOS_guideXOS_Misc_SVG__ParseSimpleFloat 000000001002849c     guideXOS.obj
 0003:00025540       guideXOS_guideXOS_Misc_SVG__ParseColorAttr 0000000010028540     guideXOS.obj
 0003:0002579c       guideXOS_guideXOS_Misc_SVG__SetPixel 000000001002879c     guideXOS.obj
 0003:000258dc       guideXOS_guideXOS_Misc_Thread__NewThread 00000000100288dc     guideXOS.obj
 0003:00025980       guideXOS_guideXOS_Misc_Thread__Start 0000000010028980     guideXOS.obj
 0003:00025a30       guideXOS_guideXOS_Misc_Thread__Start_0 0000000010028a30     guideXOS.obj
 0003:00025b20       guideXOS_guideXOS_Misc_Thread__Sleep 0000000010028b20     guideXOS.obj
 0003:00025b28       guideXOS_guideXOS_Misc_ThreadPool__Initialize 0000000010028b28     guideXOS.obj
 0003:00025cdc       guideXOS_guideXOS_Misc_ThreadPool__Terminate 0000000010028cdc     guideXOS.obj
 0003:00025d78       guideXOS_guideXOS_Misc_ThreadPool__IdleThread 0000000010028d78     guideXOS.obj
 0003:00025dbc       guideXOS_guideXOS_Misc_ThreadPool__get_CanLock 0000000010028dbc     guideXOS.obj
 0003:00025dd8       guideXOS_guideXOS_Misc_ThreadPool__Lock 0000000010028dd8     guideXOS.obj
 0003:00025e10       guideXOS_guideXOS_Misc_ThreadPool__UnLock 0000000010028e10     guideXOS.obj
 0003:00025e24       guideXOS_guideXOS_Misc_ThreadPool__Schedule 0000000010028e24     guideXOS.obj
 0003:00026194       guideXOS_guideXOS_Misc_UserModeStub__iret_to_user 0000000010029194     guideXOS.obj
 0003:00026194       iret_to_user               0000000010029194     guideXOS.obj
 0003:000261a0       guideXOS_guideXOS_Misc_VendorID__GetName 00000000100291a0     guideXOS.obj
 0003:0002d5f0       guideXOS_guideXOS_Misc_WAV__Decode 00000000100305f0     guideXOS.obj
 0003:0002d744       guideXOS_guideXOS_GUI_BackgroundRotationManager__Initialize 0000000010030744     guideXOS.obj
 0003:0002d944       guideXOS_guideXOS_GUI_BackgroundRotationManager__LoadBackgroundPaths 0000000010030944     guideXOS.obj
 0003:0002dbec       guideXOS_guideXOS_GUI_BackgroundRotationManager__Update 0000000010030bec     guideXOS.obj
 0003:0002dc90       guideXOS_guideXOS_GUI_BackgroundRotationManager__RotateToNext 0000000010030c90     guideXOS.obj
 0003:0002de38       guideXOS_guideXOS_GUI_BackgroundRotationManager__StartFadeTransition 0000000010030e38     guideXOS.obj
 0003:0002de74       guideXOS_guideXOS_GUI_BackgroundRotationManager__DrawBackground 0000000010030e74     guideXOS.obj
 0003:0002dee0       guideXOS_guideXOS_GUI_Busy__Pop 0000000010030ee0     guideXOS.obj
 0003:0002def8       guideXOS_guideXOS_GUI_Desktop__IsBootFromUSB 0000000010030ef8     guideXOS.obj
 0003:0002df88       guideXOS_guideXOS_GUI_Desktop__ClearDirCache 0000000010030f88     guideXOS.obj
 0003:0002e084       guideXOS_guideXOS_GUI_Desktop__GetDirectoryEntries 0000000010031084     guideXOS.obj
 0003:0002e118       guideXOS_guideXOS_GUI_Desktop__IsMouseOverAnyVisibleWindow 0000000010031118     guideXOS.obj
 0003:0002e180       guideXOS_guideXOS_GUI_Desktop__SetIconSize 0000000010031180     guideXOS.obj
 0003:0002e1b8       guideXOS_guideXOS_GUI_Desktop__Update 00000000100311b8     guideXOS.obj
 0003:0002f208       guideXOS_guideXOS_GUI_Desktop__ClickEvent 0000000010032208     guideXOS.obj
 0003:0002f398       guideXOS_guideXOS_GUI_Desktop__OnClick 0000000010032398     guideXOS.obj
 0003:0002fc0c       guideXOS_guideXOS_GUI_DisplayOptions___ctor 0000000010032c0c     guideXOS.obj
 0003:0002ffc8       guideXOS_guideXOS_GUI_DisplayOptions__LoadBackgrounds 0000000010032fc8     guideXOS.obj
 0003:0003067c       guideXOS_guideXOS_GUI_DisplayOptions__LoadFonts 000000001003367c     guideXOS.obj
 0003:00030888       guideXOS_guideXOS_GUI_DisplayOptions__OnInput 0000000010033888     guideXOS.obj
 0003:00031978       guideXOS_guideXOS_GUI_DisplayOptions__RevertResolution 0000000010034978     guideXOS.obj
 0003:00031a28       guideXOS_guideXOS_GUI_DisplayOptions__ApplyGradient 0000000010034a28     guideXOS.obj
 0003:00031c44       guideXOS_guideXOS_GUI_DisplayOptions__CreateGradient 0000000010034c44     guideXOS.obj
 0003:00031f2c       guideXOS_guideXOS_GUI_DisplayOptions__DrawGradientPreview 0000000010034f2c     guideXOS.obj
 0003:0003239c       guideXOS_guideXOS_GUI_DisplayOptions__ApplyFont 000000001003539c     guideXOS.obj
 0003:00032564       guideXOS_guideXOS_GUI_DisplayOptions__OnDraw 0000000010035564     guideXOS.obj
 0003:00034204       guideXOS_guideXOS_GUI_DisplayOptions__Dispose 0000000010037204     guideXOS.obj
 0003:0003438c       guideXOS_guideXOS_GUI_ColorPicker__OnInput 000000001003738c     guideXOS.obj
 0003:00034474       guideXOS_guideXOS_GUI_ColorPicker__OnDraw 0000000010037474     guideXOS.obj
 0003:00034544       guideXOS_guideXOS_GUI_ColorPicker__SampleColor 0000000010037544     guideXOS.obj
 0003:00034594       guideXOS_guideXOS_GUI_DockableWidget__HandleDragging 0000000010037594     guideXOS.obj
 0003:00034760       guideXOS_guideXOS_GUI_DockableWidget__CheckForDocking 0000000010037760     guideXOS.obj
 0003:00034860       guideXOS_guideXOS_GUI_DockableWidget__IsNearWidget 0000000010037860     guideXOS.obj
 0003:000348c4       guideXOS_guideXOS_GUI_DockableWidget__CreateContainerWith 00000000100378c4     guideXOS.obj
 0003:00034958       guideXOS_guideXOS_GUI_DockableWidget__UndockFromContainer 0000000010037958     guideXOS.obj
 0003:000349b4       guideXOS_guideXOS_GUI_DockableWidget__DrawCloseButton 00000000100379b4     guideXOS.obj
 0003:00034ac4       guideXOS_guideXOS_GUI_GXMScriptWindow___ctor 0000000010037ac4     guideXOS.obj
 0003:00034ce0       guideXOS_guideXOS_GUI_GXMScriptWindow__AddTextBox 0000000010037ce0     guideXOS.obj
 0003:00034d9c       guideXOS_guideXOS_GUI_GXMScriptWindow__AddList 0000000010037d9c     guideXOS.obj
 0003:00034ed8       guideXOS_guideXOS_GUI_GXMScriptWindow__AddDropdown 0000000010037ed8     guideXOS.obj
 0003:00035014       guideXOS_guideXOS_GUI_GXMScriptWindow__AddOnClick 0000000010038014     guideXOS.obj
 0003:00035098       guideXOS_guideXOS_GUI_GXMScriptWindow__AddOnChange 0000000010038098     guideXOS.obj
 0003:0003511c       guideXOS_guideXOS_GUI_GXMScriptWindow__AddOnTextChange 000000001003811c     guideXOS.obj
 0003:000351a0       guideXOS_guideXOS_GUI_GXMScriptWindow__Keyboard_OnKeyChanged 00000000100381a0     guideXOS.obj
 0003:00035390       guideXOS_guideXOS_GUI_GXMScriptWindow__MapFromKey 0000000010038390     guideXOS.obj
 0003:000355f0       guideXOS_guideXOS_GUI_GXMScriptWindow__OnInput 00000000100385f0     guideXOS.obj
 0003:000359ec       guideXOS_guideXOS_GUI_GXMScriptWindow__RunActions 00000000100389ec     guideXOS.obj
 0003:00035ac8       guideXOS_guideXOS_GUI_GXMScriptWindow__ExecuteAction 0000000010038ac8     guideXOS.obj
 0003:00035e80       guideXOS_guideXOS_GUI_GXMScriptWindow__ExecuteTextAction 0000000010038e80     guideXOS.obj
 0003:00035f2c       guideXOS_guideXOS_GUI_GXMScriptWindow__ReplaceToken 0000000010038f2c     guideXOS.obj
 0003:0003603c       guideXOS_guideXOS_GUI_GXMScriptWindow__IndexOf 000000001003903c     guideXOS.obj
 0003:000360ac       guideXOS_guideXOS_GUI_GXMScriptWindow__ParseInt 00000000100390ac     guideXOS.obj
 0003:00036110       guideXOS_guideXOS_GUI_GXMScriptWindow__SaveFileAction 0000000010039110     guideXOS.obj
 0003:000364ac       guideXOS_guideXOS_GUI_GXMScriptWindow__LoadFileAction 00000000100394ac     guideXOS.obj
 0003:00036b04       guideXOS_guideXOS_GUI_GXMScriptWindow__SaveTextFromTextBox 0000000010039b04     guideXOS.obj
 0003:00036d40       guideXOS_guideXOS_GUI_GXMScriptWindow__LoadTextIntoTextBox 0000000010039d40     guideXOS.obj
 0003:00037000       guideXOS_guideXOS_GUI_GXMScriptWindow__OpenSaveDialogForTextBox 000000001003a000     guideXOS.obj
 0003:000370f8       guideXOS_guideXOS_GUI_GXMScriptWindow__OpenOpenDialogForTextBox 000000001003a0f8     guideXOS.obj
 0003:000371c4       guideXOS_guideXOS_GUI_GXMScriptWindow__LoadAndExecuteScript 000000001003a1c4     guideXOS.obj
 0003:0003768c       guideXOS_guideXOS_GUI_GXMScriptWindow__Notify 000000001003a68c     guideXOS.obj
 0003:000376f0       guideXOS_guideXOS_GUI_GXMScriptWindow__OnDraw 000000001003a6f0     guideXOS.obj
 0003:00037e58       guideXOS_guideXOS_GUI_GXMScriptWindow__Dispose 000000001003ae58     guideXOS.obj
 0003:00038858       guideXOS_guideXOS_GUI_GXMScriptWindow___OpenSaveDialogForTextBox_b__40_0 000000001003b858     guideXOS.obj
 0003:00038a7c       guideXOS_guideXOS_GUI_GXMScriptWindow___OpenOpenDialogForTextBox_b__41_0 000000001003ba7c     guideXOS.obj
 0003:00038cd0       guideXOS_guideXOS_GUI_IconsPrivate___ctor 000000001003bcd0     guideXOS.obj
 0003:00039990       guideXOS_guideXOS_GUI_IconsPrivate__LoadIcon 000000001003c990     guideXOS.obj
 0003:00039ab4       guideXOS_guideXOS_GUI_Icons__DocumentIcon 000000001003cab4     guideXOS.obj
 0003:00039b38       guideXOS_guideXOS_GUI_Icons__ImageIcon 000000001003cb38     guideXOS.obj
 0003:00039bbc       guideXOS_guideXOS_GUI_Icons__AudioIcon 000000001003cbbc     guideXOS.obj
 0003:00039c40       guideXOS_guideXOS_GUI_Icons__FolderIcon 000000001003cc40     guideXOS.obj
 0003:00039cc4       guideXOS_guideXOS_GUI_Icons__TaskbarIcon 000000001003ccc4     guideXOS.obj
 0003:00039d48       guideXOS_guideXOS_GUI_Icons__TaskbarIconOver 000000001003cd48     guideXOS.obj
 0003:00039dcc       guideXOS_guideXOS_GUI_Icons__TaskbarIconDown 000000001003cdcc     guideXOS.obj
 0003:00039e50       guideXOS_guideXOS_GUI_Icons___cctor 000000001003ce50     guideXOS.obj
 0003:00039f48       guideXOS_guideXOS_GUI_Lockscreen__Run 000000001003cf48     guideXOS.obj
 0003:0003a2a8       guideXOS_guideXOS_GUI_Lockscreen__DrawLockscreenUI 000000001003d2a8     guideXOS.obj
 0003:0003a738       guideXOS_guideXOS_GUI_MessageBox__SetText 000000001003d738     guideXOS.obj
 0003:0003a7c0       guideXOS_guideXOS_GUI_NetworkConfigurationDialog___ctor 000000001003d7c0     guideXOS.obj
 0003:0003aa84       guideXOS_guideXOS_GUI_NetworkConfigurationDialog__LoadCurrentConfig 000000001003da84     guideXOS.obj
 0003:0003ad8c       guideXOS_guideXOS_GUI_NetworkConfigurationDialog__Keyboard_OnKeyChanged 000000001003dd8c     guideXOS.obj
 0003:0003b054       guideXOS_guideXOS_GUI_NetworkConfigurationDialog__OnInput 000000001003e054     guideXOS.obj
 0003:0003b464       guideXOS_guideXOS_GUI_NetworkConfigurationDialog__GetOctetArray 000000001003e464     guideXOS.obj
 0003:0003b4e8       guideXOS_guideXOS_GUI_NetworkConfigurationDialog__ApplyConfiguration 000000001003e4e8     guideXOS.obj
 0003:0003b8e0       guideXOS_guideXOS_GUI_NetworkConfigurationDialog__ParseOctet 000000001003e8e0     guideXOS.obj
 0003:0003b93c       guideXOS_guideXOS_GUI_NetworkConfigurationDialog__OnDraw 000000001003e93c     guideXOS.obj
 0003:0003bfe0       guideXOS_guideXOS_GUI_NetworkConfigurationDialog__DrawRadioButton 000000001003efe0     guideXOS.obj
 0003:0003c104       guideXOS_guideXOS_GUI_NetworkConfigurationDialog__DrawIPFields 000000001003f104     guideXOS.obj
 0003:0003c6b0       guideXOS_guideXOS_GUI_NetworkConfigurationDialog__DrawButton 000000001003f6b0     guideXOS.obj
 0003:0003c808       guideXOS_guideXOS_GUI_NetworkConfigurationDialog__Dispose 000000001003f808     guideXOS.obj
 0003:0003c84c       guideXOS_guideXOS_GUI_Notify___ctor 000000001003f84c     guideXOS.obj
 0003:0003c910       guideXOS_guideXOS_GUI_Notify__Dispose 000000001003f910     guideXOS.obj
 0003:0003c9dc       guideXOS_guideXOS_GUI_NotificationManager__Add 000000001003f9dc     guideXOS.obj
 0003:0003ca24       guideXOS_guideXOS_GUI_OnScreenKeyboard__OnInput 000000001003fa24     guideXOS.obj
 0003:0003cc98       guideXOS_guideXOS_GUI_OnScreenKeyboard__SendKey 000000001003fc98     guideXOS.obj
 0003:0003cd2c       guideXOS_guideXOS_GUI_OnScreenKeyboard__CharToConsoleKey 000000001003fd2c     guideXOS.obj
 0003:0003ce80       guideXOS_guideXOS_GUI_OnScreenKeyboard__OnDraw 000000001003fe80     guideXOS.obj
 0003:0003d0d4       guideXOS_guideXOS_GUI_OnScreenKeyboard__DrawKey 00000000100400d4     guideXOS.obj
 0003:0003d1d8       guideXOS_guideXOS_GUI_OnScreenKeyboard__DrawSpecialKey 00000000100401d8     guideXOS.obj
 0003:0003d2dc       guideXOS_guideXOS_GUI_OnScreenKeyboard___cctor 00000000100402dc     guideXOS.obj
 0003:0003d3b4       guideXOS_guideXOS_GUI_OpenDialog___ctor 00000000100403b4     guideXOS.obj
 0003:0003d4ec       guideXOS_guideXOS_GUI_OpenDialog__Keyboard_OnKeyChanged 00000000100404ec     guideXOS.obj
 0003:0003d700       guideXOS_guideXOS_GUI_OpenDialog__VisibleRows 0000000010040700     guideXOS.obj
 0003:0003d718       guideXOS_guideXOS_GUI_OpenDialog__RefreshEntries 0000000010040718     guideXOS.obj
 0003:0003d850       guideXOS_guideXOS_GUI_OpenDialog__GoUp 0000000010040850     guideXOS.obj
 0003:0003d8f0       guideXOS_guideXOS_GUI_OpenDialog__OpenSelected 00000000100408f0     guideXOS.obj
 0003:0003d9ec       guideXOS_guideXOS_GUI_OpenDialog__OnInput 00000000100409ec     guideXOS.obj
 0003:0003dc54       guideXOS_guideXOS_GUI_OpenDialog__OnDraw 0000000010040c54     guideXOS.obj
 0003:0003e4f4       guideXOS_guideXOS_GUI_PinnedManager__IsPinned 00000000100414f4     guideXOS.obj
 0003:0003e580       guideXOS_guideXOS_GUI_PinnedManager__PinApp 0000000010041580     guideXOS.obj
 0003:0003e67c       guideXOS_guideXOS_GUI_PinnedManager__PinFile 000000001004167c     guideXOS.obj
 0003:0003e790       guideXOS_guideXOS_GUI_PinnedManager__PinComputerFiles 0000000010041790     guideXOS.obj
 0003:0003e828       guideXOS_guideXOS_GUI_PinnedManager___cctor 0000000010041828     guideXOS.obj
 0003:0003e874       guideXOS_guideXOS_GUI_RecentManager__AddProgram 0000000010041874     guideXOS.obj
 0003:0003ea04       guideXOS_guideXOS_GUI_RecentManager__AddDocument 0000000010041a04     guideXOS.obj
 0003:0003eb94       guideXOS_guideXOS_GUI_RecentManager___cctor 0000000010041b94     guideXOS.obj
 0003:0003ec1c       guideXOS_guideXOS_GUI_RightMenu___ctor 0000000010041c1c     guideXOS.obj
 0003:0003ec64       guideXOS_guideXOS_GUI_RightMenu__OnSetVisible 0000000010041c64     guideXOS.obj
 0003:0003ec9c       guideXOS_guideXOS_GUI_RightMenu__OnInput 0000000010041c9c     guideXOS.obj
 0003:0003f094       guideXOS_guideXOS_GUI_RightMenu__Hit 0000000010042094     guideXOS.obj
 0003:0003f0c4       guideXOS_guideXOS_GUI_RightMenu__OnDraw 00000000100420c4     guideXOS.obj
 0003:0003f700       guideXOS_guideXOS_GUI_SaveChangesDialog___ctor 0000000010042700     guideXOS.obj
 0003:0003f7b4       guideXOS_guideXOS_GUI_SaveChangesDialog__OnInput 00000000100427b4     guideXOS.obj
 0003:0003f934       guideXOS_guideXOS_GUI_SaveChangesDialog__OnDraw 0000000010042934     guideXOS.obj
 0003:0003fbb0       guideXOS_guideXOS_GUI_SaveDialog___ctor 0000000010042bb0     guideXOS.obj
 0003:0003fd5c       guideXOS_guideXOS_GUI_SaveDialog__RefreshEntries 0000000010042d5c     guideXOS.obj
 0003:0003fea4       guideXOS_guideXOS_GUI_SaveDialog__GoUp 0000000010042ea4     guideXOS.obj
 0003:0003ff44       guideXOS_guideXOS_GUI_SaveDialog__Keyboard_OnKeyChanged 0000000010042f44     guideXOS.obj
 0003:00040404       guideXOS_guideXOS_GUI_SaveDialog__VisibleRows 0000000010043404     guideXOS.obj
 0003:00040430       guideXOS_guideXOS_GUI_SaveDialog__StartsWithFast 0000000010043430     guideXOS.obj
 0003:00040480       guideXOS_guideXOS_GUI_SaveDialog__FuzzyResolveIfUnique 0000000010043480     guideXOS.obj
 0003:000406b4       guideXOS_guideXOS_GUI_SaveDialog__SaveAction 00000000100436b4     guideXOS.obj
 0003:00040760       guideXOS_guideXOS_GUI_SaveDialog__OnInput 0000000010043760     guideXOS.obj
 0003:00040a30       guideXOS_guideXOS_GUI_SaveDialog__OnDraw 0000000010043a30     guideXOS.obj
 0003:00041044       guideXOS_guideXOS_GUI_ShutdownDialog___ctor 0000000010044044     guideXOS.obj
 0003:000410d8       guideXOS_guideXOS_GUI_ShutdownDialog__OnInput 00000000100440d8     guideXOS.obj
 0003:0004119c       guideXOS_guideXOS_GUI_ShutdownDialog__OnDraw 000000001004419c     guideXOS.obj
 0003:00041460       guideXOS_guideXOS_GUI_SpecialEffects__NextRandom 0000000010044460     guideXOS.obj
 0003:00041498       guideXOS_guideXOS_GUI_SpecialEffects__EnsureTablesInitialized 0000000010044498     guideXOS.obj
 0003:00043020       guideXOS_guideXOS_GUI_SpecialEffects__FastSin 0000000010046020     guideXOS.obj
 0003:00043074       guideXOS_guideXOS_GUI_SpecialEffects__FastCos 0000000010046074     guideXOS.obj
 0003:000430c8       guideXOS_guideXOS_GUI_SpecialEffects__IntSqrt 00000000100460c8     guideXOS.obj
 0003:0004310c       guideXOS_guideXOS_GUI_SpecialEffects__GetRandomEffect 000000001004610c     guideXOS.obj
 0003:00043190       guideXOS_guideXOS_GUI_SpecialEffects__RenderEffect 0000000010046190     guideXOS.obj
 0003:00043374       guideXOS_guideXOS_GUI_SpecialEffects__RenderDigitize 0000000010046374     guideXOS.obj
 0003:000435e8       guideXOS_guideXOS_GUI_SpecialEffects__RenderDerezz 00000000100465e8     guideXOS.obj
 0003:0004392c       guideXOS_guideXOS_GUI_SpecialEffects__RenderBurnIn 000000001004692c     guideXOS.obj
 0003:00043c10       guideXOS_guideXOS_GUI_SpecialEffects__RenderBurnOut 0000000010046c10     guideXOS.obj
 0003:00043db4       guideXOS_guideXOS_GUI_SpecialEffects__RenderSmokeIn 0000000010046db4     guideXOS.obj
 0003:00043fe8       guideXOS_guideXOS_GUI_SpecialEffects__RenderSmokeOut 0000000010046fe8     guideXOS.obj
 0003:000441e8       guideXOS_guideXOS_GUI_SpecialEffects__RenderGlitch 00000000100471e8     guideXOS.obj
 0003:00044490       guideXOS_guideXOS_GUI_SpecialEffects__RenderRipple 0000000010047490     guideXOS.obj
 0003:0004475c       guideXOS_guideXOS_GUI_SpecialEffects__RenderExplode 000000001004775c     guideXOS.obj
 0003:000449b4       guideXOS_guideXOS_GUI_SpecialEffects__RenderImplode 00000000100479b4     guideXOS.obj
 0003:00044c28       guideXOS_guideXOS_GUI_StartMenu___ctor 0000000010047c28     guideXOS.obj
 0003:00044c84       guideXOS_guideXOS_GUI_StartMenu__OnSetVisible 0000000010047c84     guideXOS.obj
 0003:00044d40       guideXOS_guideXOS_GUI_StartMenu__BuildBackgroundBlurCache 0000000010047d40     guideXOS.obj
 0003:00045100       guideXOS_guideXOS_GUI_StartMenu__RefreshRecentCacheIfNeeded 0000000010048100     guideXOS.obj
 0003:00045200       guideXOS_guideXOS_GUI_StartMenu__OnInput 0000000010048200     guideXOS.obj
 0003:00045f6c       guideXOS_guideXOS_GUI_StartMenu__OnDraw 0000000010048f6c     guideXOS.obj
 0003:00047c40       guideXOS_guideXOS_GUI_StartMenu__ToggleAllPrograms 000000001004ac40     guideXOS.obj
 0003:00047c68       guideXOS_guideXOS_GUI_StartMenu__BuildAllProgramsOrder 000000001004ac68     guideXOS.obj
 0003:00047f28       guideXOS_guideXOS_GUI_StartMenu__CompareIgnoreCase 000000001004af28     guideXOS.obj
 0003:00047fb0       guideXOS_guideXOS_GUI_StartMenu__TruncateToWidth 000000001004afb0     guideXOS.obj
 0003:000480b4       guideXOS_guideXOS_GUI_Taskbar__get_IsWorkspaceSwitcherVisible 000000001004b0b4     guideXOS.obj
 0003:000480c8       guideXOS_guideXOS_GUI_Taskbar__CloseWorkspaceSwitcher 000000001004b0c8     guideXOS.obj
 0003:000480d8       guideXOS_guideXOS_GUI_Taskbar__ShowWorkspaceSwitcher 000000001004b0d8     guideXOS.obj
 0003:000480e0       guideXOS_guideXOS_GUI_Taskbar__DrawWorkspaceSwitcher 000000001004b0e0     guideXOS.obj
 0003:00048118       guideXOS_guideXOS_GUI_Taskbar__Draw 000000001004b118     guideXOS.obj
 0003:00049de8       guideXOS_guideXOS_GUI_Taskbar__ToggleShowDesktop 000000001004cde8     guideXOS.obj
 0003:00049f0c       guideXOS_guideXOS_GUI_Taskbar__OpenOnScreenKeyboard 000000001004cf0c     guideXOS.obj
 0003:0004a034       guideXOS_guideXOS_GUI_Taskbar__StartAnimation 000000001004d034     guideXOS.obj
 0003:0004a0b0       guideXOS_guideXOS_GUI_Taskbar__UpdateAnimation 000000001004d0b0     guideXOS.obj
 0003:0004a188       guideXOS_guideXOS_GUI_TaskbarMenu__OnSetVisible 000000001004d188     guideXOS.obj
 0003:0004a1f4       guideXOS_guideXOS_GUI_TaskbarMenu__OnInput 000000001004d1f4     guideXOS.obj
 0003:0004a2f8       guideXOS_guideXOS_GUI_TaskbarMenu__OnDraw 000000001004d2f8     guideXOS.obj
 0003:0004a440       guideXOS_guideXOS_GUI_UI__IsMouseOver 000000001004d440     guideXOS.obj
 0003:0004a48c       guideXOS_guideXOS_GUI_UI__ButtonFillColor 000000001004d48c     guideXOS.obj
 0003:0004a4e4       guideXOS_guideXOS_GUI_UIPrimitives__AFillRoundedRect 000000001004d4e4     guideXOS.obj
 0003:0004a694       guideXOS_guideXOS_GUI_UIPrimitives__AFillRoundedRectTop 000000001004d694     guideXOS.obj
 0003:0004a7e4       guideXOS_guideXOS_GUI_UIPrimitives__DrawRoundedRect 000000001004d7e4     guideXOS.obj
 0003:0004aaa8       guideXOS_guideXOS_GUI_UIPrimitives__CornerInset 000000001004daa8     guideXOS.obj
 0003:0004ab2c       guideXOS_guideXOS_GUI_USBDrives__RefreshList 000000001004db2c     guideXOS.obj
 0003:0004acf4       guideXOS_guideXOS_GUI_USBDrives__FormatSize 000000001004dcf4     guideXOS.obj
 0003:0004ae00       guideXOS_guideXOS_GUI_USBDrives__OnInput 000000001004de00     guideXOS.obj
 0003:0004af48       guideXOS_guideXOS_GUI_USBDrives__OnDraw 000000001004df48     guideXOS.obj
 0003:0004b18c       guideXOS_guideXOS_GUI_USBFiles___ctor 000000001004e18c     guideXOS.obj
 0003:0004b258       guideXOS_guideXOS_GUI_USBFiles__LoadIcons 000000001004e258     guideXOS.obj
 0003:0004b2d0       guideXOS_guideXOS_GUI_USBFiles__InitLocalFS 000000001004e2d0     guideXOS.obj
 0003:0004b3c8       guideXOS_guideXOS_GUI_USBFiles__RefreshEntries 000000001004e3c8     guideXOS.obj
 0003:0004b530       guideXOS_guideXOS_GUI_USBFiles__OnInput 000000001004e530     guideXOS.obj
 0003:0004b6cc       guideXOS_guideXOS_GUI_USBFiles__OnDraw 000000001004e6cc     guideXOS.obj
 0003:0004b960       guideXOS_guideXOS_GUI_VisualEffectsSettings___ctor 000000001004e960     guideXOS.obj
 0003:0004ba00       guideXOS_guideXOS_GUI_VisualEffectsSettings__LoadSettings 000000001004ea00     guideXOS.obj
 0003:0004bcd0       guideXOS_guideXOS_GUI_VisualEffectsSettings__OnInput 000000001004ecd0     guideXOS.obj
 0003:0004bfcc       guideXOS_guideXOS_GUI_VisualEffectsSettings__ProcessTabInput 000000001004efcc     guideXOS.obj
 0003:0004c094       guideXOS_guideXOS_GUI_VisualEffectsSettings__ProcessAnimationsInput 000000001004f094     guideXOS.obj
 0003:0004c34c       guideXOS_guideXOS_GUI_VisualEffectsSettings__ProcessVisualEffectsInput 000000001004f34c     guideXOS.obj
 0003:0004c95c       guideXOS_guideXOS_GUI_VisualEffectsSettings__ProcessWindowRenderingInput 000000001004f95c     guideXOS.obj
 0003:0004cd04       guideXOS_guideXOS_GUI_VisualEffectsSettings__ProcessPerformanceInput 000000001004fd04     guideXOS.obj
 0003:0004cf5c       guideXOS_guideXOS_GUI_VisualEffectsSettings__ProcessWidgetsInput 000000001004ff5c     guideXOS.obj
 0003:0004d2a0       guideXOS_guideXOS_GUI_VisualEffectsSettings__CheckCheckbox 00000000100502a0     guideXOS.obj
 0003:0004d2ec       guideXOS_guideXOS_GUI_VisualEffectsSettings__CheckSlider 00000000100502ec     guideXOS.obj
 0003:0004d33c       guideXOS_guideXOS_GUI_VisualEffectsSettings__OnDraw 000000001005033c     guideXOS.obj
 0003:0004d880       guideXOS_guideXOS_GUI_VisualEffectsSettings__DrawAnimationsTab 0000000010050880     guideXOS.obj
 0003:0004da84       guideXOS_guideXOS_GUI_VisualEffectsSettings__DrawVisualEffectsTab 0000000010050a84     guideXOS.obj
 0003:0004df58       guideXOS_guideXOS_GUI_VisualEffectsSettings__DrawWindowRenderingTab 0000000010050f58     guideXOS.obj
 0003:0004e210       guideXOS_guideXOS_GUI_VisualEffectsSettings__DrawPerformanceTab 0000000010051210     guideXOS.obj
 0003:0004e3e0       guideXOS_guideXOS_GUI_VisualEffectsSettings__DrawWidgetsTab 00000000100513e0     guideXOS.obj
 0003:0004e664       guideXOS_guideXOS_GUI_VisualEffectsSettings__DrawTitle 0000000010051664     guideXOS.obj
 0003:0004e6d0       guideXOS_guideXOS_GUI_VisualEffectsSettings__DrawSubtitle 00000000100516d0     guideXOS.obj
 0003:0004e73c       guideXOS_guideXOS_GUI_VisualEffectsSettings__DrawCheckboxWithLabel 000000001005173c     guideXOS.obj
 0003:0004e7c0       guideXOS_guideXOS_GUI_VisualEffectsSettings__DrawSliderWithLabel 00000000100517c0     guideXOS.obj
 0003:0004e8e8       guideXOS_guideXOS_GUI_VisualEffectsSettings__DrawCheckbox 00000000100518e8     guideXOS.obj
 0003:0004ea00       guideXOS_guideXOS_GUI_VisualEffectsSettings__DrawSlider 0000000010051a00     guideXOS.obj
 0003:0004eb30       guideXOS_guideXOS_GUI_VisualEffectsSettings__DrawScrollbar 0000000010051b30     guideXOS.obj
 0003:0004ec1c       guideXOS_guideXOS_GUI_VisualEffectsSettings__DrawButtons 0000000010051c1c     guideXOS.obj
 0003:0004edf4       guideXOS_guideXOS_GUI_VisualEffectsSettings__GetCurrentTabHeight 0000000010051df4     guideXOS.obj
 0003:0004ee60       guideXOS_guideXOS_GUI_VisualEffectsSettings__ApplySettings 0000000010051e60     guideXOS.obj
 0003:0004f164       guideXOS_guideXOS_GUI_VisualEffectsSettings__ResetToDefaults 0000000010052164     guideXOS.obj
 0003:0004f398       guideXOS_guideXOS_GUI_VisualEffectsSettings__ProcessSpecialEffectsInput 0000000010052398     guideXOS.obj
 0003:0004f838       guideXOS_guideXOS_GUI_VisualEffectsSettings__DrawSpecialEffectsTab 0000000010052838     guideXOS.obj
 0003:0004fba8       guideXOS_guideXOS_GUI_VisualEffectsSettings__CheckDropdown 0000000010052ba8     guideXOS.obj
 0003:0004fbf8       guideXOS_guideXOS_GUI_VisualEffectsSettings__DrawDropdownWithLabel 0000000010052bf8     guideXOS.obj
 0003:0004fd90       guideXOS_guideXOS_GUI_VisualEffectsSettings__DrawDropdownOptions 0000000010052d90     guideXOS.obj
 0003:0004fee8       guideXOS_guideXOS_GUI_VisualEffectsSettings__ProcessDropdownOptions 0000000010052ee8     guideXOS.obj
 0003:0004ffd4       guideXOS_guideXOS_GUI_VisualEffectsSettings__GetEffectName 0000000010052fd4     guideXOS.obj
 0003:00050074       guideXOS_guideXOS_GUI_WidgetContainer___ctor 0000000010053074     guideXOS.obj
 0003:00050134       guideXOS_guideXOS_GUI_WidgetContainer__AddWidget 0000000010053134     guideXOS.obj
 0003:000501b8       guideXOS_guideXOS_GUI_WidgetContainer__RemoveWidget 00000000100531b8     guideXOS.obj
 0003:00050268       guideXOS_guideXOS_GUI_WidgetContainer__UndockWidgetToPosition 0000000010053268     guideXOS.obj
 0003:000502f8       guideXOS_guideXOS_GUI_WidgetContainer__UpdateLayout 00000000100532f8     guideXOS.obj
 0003:000503a0       guideXOS_guideXOS_GUI_WidgetContainer__OnInput 00000000100533a0     guideXOS.obj
 0003:00050848       guideXOS_guideXOS_GUI_WidgetContainer__UndockWidget 0000000010053848     guideXOS.obj
 0003:000508d8       guideXOS_guideXOS_GUI_WidgetContainer__OnDraw 00000000100538d8     guideXOS.obj
 0003:00050ac4       guideXOS_guideXOS_GUI_WidgetContainer__DrawCloseButton 0000000010053ac4     guideXOS.obj
 0003:00050bdc       guideXOS_guideXOS_GUI_WidgetContainer__Dispose 0000000010053bdc     guideXOS.obj
 0003:00050be4       guideXOS_guideXOS_GUI_WidgetContainer__RevealWidgets 0000000010053be4     guideXOS.obj
 0003:00050c84       guideXOS_guideXOS_GUI_WidgetContainer__HideWidgetsAuto 0000000010053c84     guideXOS.obj
 0003:00050d08       guideXOS_guideXOS_GUI_WidgetContainer__UpdateAutoHide 0000000010053d08     guideXOS.obj
 0003:00050e0c       guideXOS_guideXOS_GUI_WidgetContextMenu___ctor 0000000010053e0c     guideXOS.obj
 0003:00050e58       guideXOS_guideXOS_GUI_WidgetContextMenu__OnInput 0000000010053e58     guideXOS.obj
 0003:00050f0c       guideXOS_guideXOS_GUI_WidgetContextMenu__OnDraw 0000000010053f0c     guideXOS.obj
 0003:0005103c       guideXOS_guideXOS_GUI_WidgetToggleButton__OnInput 000000001005403c     guideXOS.obj
 0003:000510f4       guideXOS_guideXOS_GUI_WidgetToggleButton__OnDraw 00000000100540f4     guideXOS.obj
 0003:00051214       guideXOS_guideXOS_GUI_Window__set_Visible 0000000010054214     guideXOS.obj
 0003:0005127c       guideXOS_guideXOS_GUI_Window___ctor 000000001005427c     guideXOS.obj
 0003:00051358       guideXOS_guideXOS_GUI_Window__BeginFadeIn 0000000010054358     guideXOS.obj
 0003:000513fc       guideXOS_guideXOS_GUI_Window__BeginFadeOutClose 00000000100543fc     guideXOS.obj
 0003:000514ac       guideXOS_guideXOS_GUI_Window__BeginMinimize 00000000100544ac     guideXOS.obj
 0003:00051510       guideXOS_guideXOS_GUI_Window__BeginRestore 0000000010054510     guideXOS.obj
 0003:00051580       guideXOS_guideXOS_GUI_Window__UpdateAnimation 0000000010054580     guideXOS.obj
 0003:000517bc       guideXOS_guideXOS_GUI_Window__IsUnderMouse 00000000100547bc     guideXOS.obj
 0003:00051808       guideXOS_guideXOS_GUI_Window__OnSetVisible 0000000010054808     guideXOS.obj
 0003:00051814       guideXOS_guideXOS_GUI_Window__DisposeBlurCache 0000000010054814     guideXOS.obj
 0003:0005189c       guideXOS_guideXOS_GUI_Window__ComputeButtonRects 000000001005489c     guideXOS.obj
 0003:00051948       guideXOS_guideXOS_GUI_Window__HitTestButtons 0000000010054948     guideXOS.obj
 0003:00051a44       guideXOS_guideXOS_GUI_Window__PerformButton 0000000010054a44     guideXOS.obj
 0003:00051af4       guideXOS_guideXOS_GUI_Window__DrawTitleButton 0000000010054af4     guideXOS.obj
 0003:00051ef0       guideXOS_guideXOS_GUI_Window__OnInput 0000000010054ef0     guideXOS.obj
 0003:0005215c       guideXOS_guideXOS_GUI_Window__OnDraw 000000001005515c     guideXOS.obj
 0003:00052af0       guideXOS_guideXOS_GUI_Window__DrawBorder 0000000010055af0     guideXOS.obj
 0003:00052b88       guideXOS_guideXOS_GUI_Window__ClampToScreen 0000000010055b88     guideXOS.obj
 0003:00052bd0       guideXOS_guideXOS_GUI_Window__Minimize 0000000010055bd0     guideXOS.obj
 0003:00052be8       guideXOS_guideXOS_GUI_Window__Restore 0000000010055be8     guideXOS.obj
 0003:00052c14       guideXOS_guideXOS_GUI_Window__Maximize 0000000010055c14     guideXOS.obj
 0003:00052c90       guideXOS_guideXOS_GUI_Window__OnGlobalKey 0000000010055c90     guideXOS.obj
 0003:00052cb0       guideXOS_guideXOS_GUI_Window__Dispose 0000000010055cb0     guideXOS.obj
 0003:00052cdc       guideXOS_guideXOS_GUI_Window__FreeOwnerMemory 0000000010055cdc     guideXOS.obj
 0003:00052dac       guideXOS_guideXOS_GUI_WindowManager__FlushPendingCreates 0000000010055dac     guideXOS.obj
 0003:00052eb4       guideXOS_guideXOS_GUI_WindowManager__MoveToEnd 0000000010055eb4     guideXOS.obj
 0003:00052f78       guideXOS_guideXOS_GUI_WindowManager__DrawAllExceptTaskManager 0000000010055f78     guideXOS.obj
 0003:0005302c       guideXOS_guideXOS_GUI_WindowManager__DrawTaskManager 000000001005602c     guideXOS.obj
 0003:00053090       guideXOS_guideXOS_GUI_WindowManager__UpdateCpuPercents 0000000010056090     guideXOS.obj
 0003:000530cc       guideXOS_guideXOS_GUI_WindowManager__InputAll 00000000100560cc     guideXOS.obj
 0003:00053234       guideXOS_guideXOS_GUI_WindowManager__GetStartMenuWindows 0000000010056234     guideXOS.obj
 0003:000532c4       guideXOS_guideXOS_GUI_WindowManager__CleanupClosedWindows 00000000100562c4     guideXOS.obj
 0003:00053330       guideXOS_guideXOS_GUI_WorkspaceManager__IndexOf 0000000010056330     guideXOS.obj
 0003:00053384       guideXOS_guideXOS_GUI_WorkspaceManager__ListContains 0000000010056384     guideXOS.obj
 0003:000533cc       guideXOS_guideXOS_GUI_WorkspaceManager__ListRemove 00000000100563cc     guideXOS.obj
 0003:00053410       guideXOS_guideXOS_GUI_WorkspaceManager__EnsureAllWindowsTracked 0000000010056410     guideXOS.obj
 0003:000534c4       guideXOS_guideXOS_GUI_WorkspaceManager__GetWorkspace 00000000100564c4     guideXOS.obj
 0003:0005351c       guideXOS_guideXOS_GUI_WorkspaceManager__AddWorkspace 000000001005651c     guideXOS.obj
 0003:00053544       guideXOS_guideXOS_GUI_WorkspaceManager__SwitchTo 0000000010056544     guideXOS.obj
 0003:00053734       guideXOS_guideXOS_GUI_WorkspaceManager__WorkspaceWindowCounts 0000000010056734     guideXOS.obj
 0003:000537d0       guideXOS_guideXOS_GUI_WorkspaceManager___cctor 00000000100567d0     guideXOS.obj
 0003:000538a4       guideXOS_guideXOS_GUI_WorkspaceSwitcher___ctor 00000000100568a4     guideXOS.obj
 0003:00053904       guideXOS_guideXOS_GUI_WorkspaceSwitcher__RefreshWindowCache 0000000010056904     guideXOS.obj
 0003:00053aa4       guideXOS_guideXOS_GUI_WorkspaceSwitcher__OnInput 0000000010056aa4     guideXOS.obj
 0003:00053dc8       guideXOS_guideXOS_GUI_WorkspaceSwitcher__OnDraw 0000000010056dc8     guideXOS.obj
 0003:00054120       guideXOS_guideXOS_GUI_WorkspaceSwitcher__DrawWorkspaceThumbnail 0000000010057120     guideXOS.obj
 0003:000547bc       guideXOS_guideXOS_GUI_Widgets_Button___ctor 00000000100577bc     guideXOS.obj
 0003:000547c4       guideXOS_guideXOS_GUI_Widgets_Base_Widget___ctor 00000000100577c4     guideXOS.obj
 0003:000547c8       guideXOS_guideXOS_GUI_Base_WindowBase___ctor 00000000100577c8     guideXOS.obj
 0003:000547e8       guideXOS_guideXOS_DockableWidgets_Clock__get_PreferredHeight 00000000100577e8     guideXOS.obj
 0003:000547f0       guideXOS_guideXOS_DockableWidgets_Clock___ctor 00000000100577f0     guideXOS.obj
 0003:000548d4       guideXOS_guideXOS_DockableWidgets_Clock__OnInput 00000000100578d4     guideXOS.obj
 0003:00054970       guideXOS_guideXOS_DockableWidgets_Clock__OnDraw 0000000010057970     guideXOS.obj
 0003:00054a40       guideXOS_guideXOS_DockableWidgets_Clock__DrawContent 0000000010057a40     guideXOS.obj
 0003:00054d48       guideXOS_guideXOS_DockableWidgets_Clock__DrawHand 0000000010057d48     guideXOS.obj
 0003:00054efc       guideXOS_guideXOS_DockableWidgets_Monitor__get_PreferredHeight 0000000010057efc     guideXOS.obj
 0003:00054f04       guideXOS_guideXOS_DockableWidgets_Monitor___ctor 0000000010057f04     guideXOS.obj
 0003:00054fe0       guideXOS_guideXOS_DockableWidgets_Monitor__OnInput 0000000010057fe0     guideXOS.obj
 0003:00055074       guideXOS_guideXOS_DockableWidgets_Monitor__OnDraw 0000000010058074     guideXOS.obj
 0003:000551e4       guideXOS_guideXOS_DockableWidgets_Monitor__DrawContent 00000000100581e4     guideXOS.obj
 0003:000552e8       guideXOS_guideXOS_DockableWidgets_Monitor__Render 00000000100582e8     guideXOS.obj
 0003:000554a8       guideXOS_guideXOS_DockableWidgets_Monitor__DrawLineChart 00000000100584a8     guideXOS.obj
 0003:000555b4       guideXOS_guideXOS_DockableWidgets_PerformanceWidget__get_PreferredHeight 00000000100585b4     guideXOS.obj
 0003:000555bc       guideXOS_guideXOS_DockableWidgets_PerformanceWidget___ctor 00000000100585bc     guideXOS.obj
 0003:0005564c       guideXOS_guideXOS_DockableWidgets_PerformanceWidget__OnInput 000000001005864c     guideXOS.obj
 0003:000556e0       guideXOS_guideXOS_DockableWidgets_PerformanceWidget__OnDraw 00000000100586e0     guideXOS.obj
 0003:000557b0       guideXOS_guideXOS_DockableWidgets_PerformanceWidget__DrawContent 00000000100587b0     guideXOS.obj
 0003:00055880       guideXOS_guideXOS_DockableWidgets_PerformanceWidget__DrawMetric 0000000010058880     guideXOS.obj
 0003:000559c8       guideXOS_guideXOS_DockableWidgets_PerformanceWidget__UpdateMetrics 00000000100589c8     guideXOS.obj
 0003:00055a8c       guideXOS_guideXOS_DockableWidgets_Uptime__get_PreferredHeight 0000000010058a8c     guideXOS.obj
 0003:00055a94       guideXOS_guideXOS_DockableWidgets_Uptime__OnInput 0000000010058a94     guideXOS.obj
 0003:00055b30       guideXOS_guideXOS_DockableWidgets_Uptime__OnDraw 0000000010058b30     guideXOS.obj
 0003:00055c00       guideXOS_guideXOS_DockableWidgets_Uptime__DrawContent 0000000010058c00     guideXOS.obj
 0003:000563d8       guideXOS_guideXOS_DefaultApps_Calculator___ctor 00000000100593d8     guideXOS.obj
 0003:00056740       guideXOS_guideXOS_DefaultApps_Calculator__OnDraw 0000000010059740     guideXOS.obj
 0003:00056894       guideXOS_guideXOS_DefaultApps_Calculator__OnInput 0000000010059894     guideXOS.obj
 0003:000569a4       guideXOS_guideXOS_DefaultApps_Calculator__ProcessButton 00000000100599a4     guideXOS.obj
 0003:00056cec       guideXOS_guideXOS_DefaultApps_Calculator__AddButton 0000000010059cec     guideXOS.obj
 0003:00056de4       guideXOS_guideXOS_DefaultApps_ComputerFiles___ctor 0000000010059de4     guideXOS.obj
 0003:00056f78       guideXOS_guideXOS_DefaultApps_ComputerFiles___ctor_0 0000000010059f78     guideXOS.obj
 0003:000570e0       guideXOS_guideXOS_DefaultApps_ComputerFiles__Keyboard_OnKeyChanged 000000001005a0e0     guideXOS.obj
 0003:000571dc       guideXOS_guideXOS_DefaultApps_ComputerFiles__LoadIcons 000000001005a1dc     guideXOS.obj
 0003:000572a8       guideXOS_guideXOS_DefaultApps_ComputerFiles__RefreshDrives 000000001005a2a8     guideXOS.obj
 0003:000574b4       guideXOS_guideXOS_DefaultApps_ComputerFiles__ClearEntriesCache 000000001005a4b4     guideXOS.obj
 0003:00057628       guideXOS_guideXOS_DefaultApps_ComputerFiles__EnsureEntries 000000001005a628     guideXOS.obj
 0003:00057708       guideXOS_guideXOS_DefaultApps_ComputerFiles__PushHistory 000000001005a708     guideXOS.obj
 0003:000577dc       guideXOS_guideXOS_DefaultApps_ComputerFiles__get_CanGoForward 000000001005a7dc     guideXOS.obj
 0003:000577f8       guideXOS_guideXOS_DefaultApps_ComputerFiles__GoBack 000000001005a7f8     guideXOS.obj
 0003:00057864       guideXOS_guideXOS_DefaultApps_ComputerFiles__GoForward 000000001005a864     guideXOS.obj
 0003:000578d8       guideXOS_guideXOS_DefaultApps_ComputerFiles__GoUpLevel 000000001005a8d8     guideXOS.obj
 0003:000579c8       guideXOS_guideXOS_DefaultApps_ComputerFiles__CurrentPad 000000001005a9c8     guideXOS.obj
 0003:000579f0       guideXOS_guideXOS_DefaultApps_ComputerFiles__OnInput 000000001005a9f0     guideXOS.obj
 0003:00058454       guideXOS_guideXOS_DefaultApps_ComputerFiles__ContainsIgnoreCase 000000001005b454     guideXOS.obj
 0003:000584f4       guideXOS_guideXOS_DefaultApps_ComputerFiles__GetTotalContentHeight 000000001005b4f4     guideXOS.obj
 0003:00058610       guideXOS_guideXOS_DefaultApps_ComputerFiles__OnDraw 000000001005b610     guideXOS.obj
 0003:000594d4       guideXOS_guideXOS_DefaultApps_ComputerFiles__Dispose 000000001005c4d4     guideXOS.obj
 0003:000595f8       guideXOS_guideXOS_DefaultApps_Devices__EnsureRowsCapacity 000000001005c5f8     guideXOS.obj
 0003:000596f0       guideXOS_guideXOS_DefaultApps_Devices__AddRow 000000001005c6f0     guideXOS.obj
 0003:000597b4       guideXOS_guideXOS_DefaultApps_Devices__BuildRows 000000001005c7b4     guideXOS.obj
 0003:00059e00       guideXOS_guideXOS_DefaultApps_Devices__OnInput 000000001005ce00     guideXOS.obj
 0003:0005a0f4       guideXOS_guideXOS_DefaultApps_Devices__OnDraw 000000001005d0f4     guideXOS.obj
 0003:0005a780       guideXOS_guideXOS_DefaultApps_DiskManager___ctor 000000001005d780     guideXOS.obj
 0003:0005a85c       guideXOS_guideXOS_DefaultApps_DiskManager__BuildStatus 000000001005d85c     guideXOS.obj
 0003:0005a914       guideXOS_guideXOS_DefaultApps_DiskManager__RefreshDisks 000000001005d914     guideXOS.obj
 0003:0005ac60       guideXOS_guideXOS_DefaultApps_DiskManager__GetSelected 000000001005dc60     guideXOS.obj
 0003:0005aca4       guideXOS_guideXOS_DefaultApps_DiskManager__ProbeOnce 000000001005dca4     guideXOS.obj
 0003:0005ae08       guideXOS_guideXOS_DefaultApps_DiskManager__FmtSize 000000001005de08     guideXOS.obj
 0003:0005aef4       guideXOS_guideXOS_DefaultApps_DiskManager__DetectFsAtLBA 000000001005def4     guideXOS.obj
 0003:0005b0f8       guideXOS_guideXOS_DefaultApps_DiskManager__WithDisk 000000001005e0f8     guideXOS.obj
 0003:0005b190       guideXOS_guideXOS_DefaultApps_DiskManager__ReadMBRForEntry 000000001005e190     guideXOS.obj
 0003:0005b268       guideXOS_guideXOS_DefaultApps_DiskManager__OnInput 000000001005e268     guideXOS.obj
 0003:0005b4e0       guideXOS_guideXOS_DefaultApps_DiskManager__OnDraw 000000001005e4e0     guideXOS.obj
 0003:0005b5dc       guideXOS_guideXOS_DefaultApps_DiskManager__DrawLeftPane 000000001005e5dc     guideXOS.obj
 0003:0005b77c       guideXOS_guideXOS_DefaultApps_DiskManager__DrawVolumesGrid 000000001005e77c     guideXOS.obj
 0003:0005bc14       guideXOS_guideXOS_DefaultApps_DiskManager__DrawPartitionMap 000000001005ec14     guideXOS.obj
 0003:0005bf90       guideXOS_guideXOS_DefaultApps_DiskManager__DrawActions 000000001005ef90     guideXOS.obj
 0003:0005c220       guideXOS_guideXOS_DefaultApps_DiskManager__DrawHeaderCell 000000001005f220     guideXOS.obj
 0003:0005c2cc       guideXOS_guideXOS_DefaultApps_DiskManager__DrawCell 000000001005f2cc     guideXOS.obj
 0003:0005c364       guideXOS_guideXOS_DefaultApps_DiskManager__DrawButton 000000001005f364     guideXOS.obj
 0003:0005c43c       guideXOS_guideXOS_DefaultApps_DiskManager__TrySetFS_Auto 000000001005f43c     guideXOS.obj
 0003:0005c4c0       guideXOS_guideXOS_DefaultApps_DiskManager__TrySetFS_FAT 000000001005f4c0     guideXOS.obj
 0003:0005c550       guideXOS_guideXOS_DefaultApps_DiskManager__TrySetFS_TAR 000000001005f550     guideXOS.obj
 0003:0005c5fc       guideXOS_guideXOS_DefaultApps_DiskManager__TrySetFS_EXT2 000000001005f5fc     guideXOS.obj
 0003:0005c68c       guideXOS_guideXOS_DefaultApps_DiskManager__TryFormatFAT 000000001005f68c     guideXOS.obj
 0003:0005c73c       guideXOS_guideXOS_DefaultApps_DiskManager__TryCreatePartitionLargestFree 000000001005f73c     guideXOS.obj
 0003:0005cd04       guideXOS_guideXOS_DefaultApps_DriveInfo__Dispose 000000001005fd04     guideXOS.obj
 0003:0005cd48       guideXOS_guideXOS_DefaultApps_DriveInfo___ctor 000000001005fd48     guideXOS.obj
 0003:0005cd4c       guideXOS_guideXOS_DefaultApps_FConsole___ctor 000000001005fd4c     guideXOS.obj
 0003:0005cf0c       guideXOS_guideXOS_DefaultApps_FConsole__UpdateTitle 000000001005ff0c     guideXOS.obj
 0003:0005cf60       guideXOS_guideXOS_DefaultApps_FConsole__GetPromptString 000000001005ff60     guideXOS.obj
 0003:0005d030       guideXOS_guideXOS_DefaultApps_FConsole__Rebind 0000000010060030     guideXOS.obj
 0003:0005d074       guideXOS_guideXOS_DefaultApps_FConsole__MapFromKey 0000000010060074     guideXOS.obj
 0003:0005d2b8       guideXOS_guideXOS_DefaultApps_FConsole__Keyboard_OnKeyChanged 00000000100602b8     guideXOS.obj
 0003:0005d4dc       guideXOS_guideXOS_DefaultApps_FConsole__TrimSpaces 00000000100604dc     guideXOS.obj
 0003:0005d538       guideXOS_guideXOS_DefaultApps_FConsole__StartsWithFast 0000000010060538     guideXOS.obj
 0003:0005d584       guideXOS_guideXOS_DefaultApps_FConsole__JoinParts 0000000010060584     guideXOS.obj
 0003:0005d5fc       guideXOS_guideXOS_DefaultApps_FConsole__TryParseIp 00000000100605fc     guideXOS.obj
 0003:0005d6e4       guideXOS_guideXOS_DefaultApps_FConsole__HandleViKey 00000000100606e4     guideXOS.obj
 0003:0005d898       guideXOS_guideXOS_DefaultApps_FConsole__InsertVi 0000000010060898     guideXOS.obj
 0003:0005d914       guideXOS_guideXOS_DefaultApps_FConsole__RedrawVi 0000000010060914     guideXOS.obj
 0003:0005da18       guideXOS_guideXOS_DefaultApps_FConsole__SaveVi 0000000010060a18     guideXOS.obj
 0003:0005dadc       guideXOS_guideXOS_DefaultApps_FConsole__ExitVi 0000000010060adc     guideXOS.obj
 0003:0005db44       guideXOS_guideXOS_DefaultApps_FConsole__EnterVi 0000000010060b44     guideXOS.obj
 0003:0005dc90       guideXOS_guideXOS_DefaultApps_FConsole__ToAbs 0000000010060c90     guideXOS.obj
 0003:0005dcd4       guideXOS_guideXOS_DefaultApps_FConsole__ResolveFileToken 0000000010060cd4     guideXOS.obj
 0003:0005dde4       guideXOS_guideXOS_DefaultApps_FConsole__SplitArgs 0000000010060de4     guideXOS.obj
 0003:0005dfa0       guideXOS_guideXOS_DefaultApps_FConsole__HandleCommand 0000000010060fa0     guideXOS.obj
 0003:000617c0       guideXOS_guideXOS_DefaultApps_FConsole__EqualsIgnoreCase 00000000100647c0     guideXOS.obj
 0003:00061838       guideXOS_guideXOS_DefaultApps_FConsole__StartsWithIgnoreCase 0000000010064838     guideXOS.obj
 0003:000618b0       guideXOS_guideXOS_DefaultApps_FConsole__PadRight 00000000100648b0     guideXOS.obj
 0003:000619a4       guideXOS_guideXOS_DefaultApps_FConsole__OnInput 00000000100649a4     guideXOS.obj
 0003:00061b8c       guideXOS_guideXOS_DefaultApps_FConsole__OnDraw 0000000010064b8c     guideXOS.obj
 0003:00061cc4       guideXOS_guideXOS_DefaultApps_FConsole__DrawString 0000000010064cc4     guideXOS.obj
 0003:00061ddc       guideXOS_guideXOS_DefaultApps_FConsole__Console_OnWrite 0000000010064ddc     guideXOS.obj
 0003:00061e14       guideXOS_guideXOS_DefaultApps_FConsole__WriteLine 0000000010064e14     guideXOS.obj
 0003:00061e50       guideXOS_guideXOS_DefaultApps_FirewallAlert___ctor 0000000010064e50     guideXOS.obj
 0003:00061ef8       guideXOS_guideXOS_DefaultApps_FirewallAlert__OnInput 0000000010064ef8     guideXOS.obj
 0003:0006204c       guideXOS_guideXOS_DefaultApps_FirewallAlert__OnDraw 000000001006504c     guideXOS.obj
 0003:000622f4       guideXOS_guideXOS_DefaultApps_FirewallWindow__OnInput 00000000100652f4     guideXOS.obj
 0003:000623fc       guideXOS_guideXOS_DefaultApps_FirewallWindow__OnDraw 00000000100653fc     guideXOS.obj
 0003:00062758       guideXOS_guideXOS_DefaultApps_GUISamples__BuildSamples 0000000010065758     guideXOS.obj
 0003:000629d4       guideXOS_guideXOS_DefaultApps_GUISamples__OnInput 00000000100659d4     guideXOS.obj
 0003:00062b30       guideXOS_guideXOS_DefaultApps_GUISamples__OnDraw 0000000010065b30     guideXOS.obj
 0003:00063288       guideXOS_guideXOS_DefaultApps_GUISamples__CreateNewDemo 0000000010066288     guideXOS.obj
 0003:000634d8       guideXOS_guideXOS_DefaultApps_GUISamples__ReloadDemos 00000000100664d8     guideXOS.obj
 0003:0006356c       guideXOS_guideXOS_DefaultApps_GUISamples__HideAllDemos 000000001006656c     guideXOS.obj
 0003:000635d4       guideXOS_guideXOS_DefaultApps_GUISamples__ShowAllDemos 00000000100665d4     guideXOS.obj
 0003:00063678       guideXOS_guideXOS_DefaultApps_HDInstaller___ctor 0000000010066678     guideXOS.obj
 0003:0006374c       guideXOS_guideXOS_DefaultApps_HDInstaller__ScanDisks 000000001006674c     guideXOS.obj
 0003:00063948       guideXOS_guideXOS_DefaultApps_HDInstaller__OnInput 0000000010066948     guideXOS.obj
 0003:00063bd0       guideXOS_guideXOS_DefaultApps_HDInstaller__HandleNextButton 0000000010066bd0     guideXOS.obj
 0003:00063c7c       guideXOS_guideXOS_DefaultApps_HDInstaller__OnDraw 0000000010066c7c     guideXOS.obj
 0003:00063d94       guideXOS_guideXOS_DefaultApps_HDInstaller__DrawStepIndicator 0000000010066d94     guideXOS.obj
 0003:00063ec4       guideXOS_guideXOS_DefaultApps_HDInstaller__DrawWelcomeStep 0000000010066ec4     guideXOS.obj
 0003:000640b0       guideXOS_guideXOS_DefaultApps_HDInstaller__DrawDiskSelectionStep 00000000100670b0     guideXOS.obj
 0003:0006434c       guideXOS_guideXOS_DefaultApps_HDInstaller__DrawPartitionSetupStep 000000001006734c     guideXOS.obj
 0003:000646d4       guideXOS_guideXOS_DefaultApps_HDInstaller__DrawFormatWarningStep 00000000100676d4     guideXOS.obj
 0003:000649e0       guideXOS_guideXOS_DefaultApps_HDInstaller__DrawInstallingStep 00000000100679e0     guideXOS.obj
 0003:00064f6c       guideXOS_guideXOS_DefaultApps_HDInstaller__DrawCompleteStep 0000000010067f6c     guideXOS.obj
 0003:00065614       guideXOS_guideXOS_DefaultApps_HDInstaller__CheckUSBInstallMediaPresent 0000000010068614     guideXOS.obj
 0003:000656c0       guideXOS_guideXOS_DefaultApps_HDInstaller__DrawNavigationButtons 00000000100686c0     guideXOS.obj
 0003:00065810       guideXOS_guideXOS_DefaultApps_HDInstaller__CreateBootConfiguration 0000000010068810     guideXOS.obj
 0003:00065908       guideXOS_guideXOS_DefaultApps_HDInstaller__PartitionDisk 0000000010068908     guideXOS.obj
 0003:00065c20       guideXOS_guideXOS_DefaultApps_HDInstaller__FormatPartitions 0000000010068c20     guideXOS.obj
 0003:00065d40       guideXOS_guideXOS_DefaultApps_HDInstaller__FormatFAT32Partition 0000000010068d40     guideXOS.obj
 0003:0006626c       guideXOS_guideXOS_DefaultApps_HDInstaller__CopySystemFiles 000000001006926c     guideXOS.obj
 0003:00066730       guideXOS_guideXOS_DefaultApps_HDInstaller__CopyBootFiles 0000000010069730     guideXOS.obj
 0003:000668e4       guideXOS_guideXOS_DefaultApps_HDInstaller__GatherAllFiles 00000000100698e4     guideXOS.obj
 0003:00066c68       guideXOS_guideXOS_DefaultApps_HDInstaller__EnsureDirectoryExists 0000000010069c68     guideXOS.obj
 0003:00066c94       guideXOS_guideXOS_DefaultApps_HDInstaller__GetAsciiBytes 0000000010069c94     guideXOS.obj
 0003:00066d28       guideXOS_guideXOS_DefaultApps_HDInstaller__InstallBootloader 0000000010069d28     guideXOS.obj
 0003:00066eac       guideXOS_guideXOS_DefaultApps_HDInstaller__GetGRUBStage1 0000000010069eac     guideXOS.obj
 0003:00066fe0       guideXOS_guideXOS_DefaultApps_HDInstaller__DrawButton 0000000010069fe0     guideXOS.obj
 0003:00067158       guideXOS_guideXOS_DefaultApps_HDInstaller__FormatSize 000000001006a158     guideXOS.obj
 0003:00067244       guideXOS_guideXOS_DefaultApps_HDInstaller___PartitionDisk_g__WriteLBA32_41_0 000000001006a244     guideXOS.obj
 0003:000672b0       guideXOS_guideXOS_DefaultApps_ImageViewer__UpdateDisplayImage 000000001006a2b0     guideXOS.obj
 0003:000673c0       guideXOS_guideXOS_DefaultApps_ImageViewer__SetImage 000000001006a3c0     guideXOS.obj
 0003:00067430       guideXOS_guideXOS_DefaultApps_IRCNetworks___ctor 000000001006a430     guideXOS.obj
 0003:000674ec       guideXOS_guideXOS_DefaultApps_IRCNetworks__LoadDefaults 000000001006a4ec     guideXOS.obj
 0003:00067628       guideXOS_guideXOS_DefaultApps_IRCNetworks__OnInput 000000001006a628     guideXOS.obj
 0003:000677b0       guideXOS_guideXOS_DefaultApps_IRCNetworks__AddEntry 000000001006a7b0     guideXOS.obj
 0003:0006786c       guideXOS_guideXOS_DefaultApps_IRCNetworks__AttemptConnect 000000001006a86c     guideXOS.obj
 0003:000678f8       guideXOS_guideXOS_DefaultApps_IRCNetworks__OnDraw 000000001006a8f8     guideXOS.obj
 0003:00067dac       guideXOS_guideXOS_DefaultApps_IRCNetworks__DrawField 000000001006adac     guideXOS.obj
 0003:00067e14       guideXOS_guideXOS_DefaultApps_IRCNetworks__DrawButton 000000001006ae14     guideXOS.obj
 0003:00067e94       guideXOS_guideXOS_DefaultApps_nexIRC___ctor 000000001006ae94     guideXOS.obj
 0003:00068060       guideXOS_guideXOS_DefaultApps_nexIRC__NextEphemeralPort 000000001006b060     guideXOS.obj
 0003:00068094       guideXOS_guideXOS_DefaultApps_nexIRC__TryAutoConnect 000000001006b094     guideXOS.obj
 0003:00068240       guideXOS_guideXOS_DefaultApps_nexIRC__Keyboard_OnKeyChanged 000000001006b240     guideXOS.obj
 0003:00068344       guideXOS_guideXOS_DefaultApps_nexIRC__MapChar 000000001006b344     guideXOS.obj
 0003:0006858c       guideXOS_guideXOS_DefaultApps_nexIRC__TrimTrailing 000000001006b58c     guideXOS.obj
 0003:000685e0       guideXOS_guideXOS_DefaultApps_nexIRC__ToLowerFast 000000001006b5e0     guideXOS.obj
 0003:0006868c       guideXOS_guideXOS_DefaultApps_nexIRC__StartsWithFast 000000001006b68c     guideXOS.obj
 0003:000686d0       guideXOS_guideXOS_DefaultApps_nexIRC__SubmitInput 000000001006b6d0     guideXOS.obj
 0003:000687f4       guideXOS_guideXOS_DefaultApps_nexIRC__HandleCommand 000000001006b7f4     guideXOS.obj
 0003:00068b20       guideXOS_guideXOS_DefaultApps_nexIRC__Split 000000001006bb20     guideXOS.obj
 0003:00068c28       guideXOS_guideXOS_DefaultApps_nexIRC__Join 000000001006bc28     guideXOS.obj
 0003:00068ca0       guideXOS_guideXOS_DefaultApps_nexIRC__SendIrc 000000001006bca0     guideXOS.obj
 0003:00068d1c       guideXOS_guideXOS_DefaultApps_nexIRC__ToAscii 000000001006bd1c     guideXOS.obj
 0003:00068d84       guideXOS_guideXOS_DefaultApps_nexIRC__AddLog 000000001006bd84     guideXOS.obj
 0003:00068dec       guideXOS_guideXOS_DefaultApps_nexIRC__PollNetwork 000000001006bdec     guideXOS.obj
 0003:00068f70       guideXOS_guideXOS_DefaultApps_nexIRC__SendHandshake 000000001006bf70     guideXOS.obj
 0003:00069068       guideXOS_guideXOS_DefaultApps_nexIRC__ProcessIncoming 000000001006c068     guideXOS.obj
 0003:00069110       guideXOS_guideXOS_DefaultApps_nexIRC__HandleLine 000000001006c110     guideXOS.obj
 0003:000691b4       guideXOS_guideXOS_DefaultApps_nexIRC__OnInput 000000001006c1b4     guideXOS.obj
 0003:00069224       guideXOS_guideXOS_DefaultApps_nexIRC__OnDraw 000000001006c224     guideXOS.obj
 0003:000693e8       guideXOS_guideXOS_DefaultApps_nexIRC__BuildChannelsText 000000001006c3e8     guideXOS.obj
 0003:0006947c       guideXOS_guideXOS_DefaultApps_nexIRC__DrawChatLines 000000001006c47c     guideXOS.obj
 0003:0006958c       guideXOS_guideXOS_DefaultApps_Notepad___ctor 000000001006c58c     guideXOS.obj
 0003:000696b4       guideXOS_guideXOS_DefaultApps_Notepad__OnSetVisible 000000001006c6b4     guideXOS.obj
 0003:000697b0       guideXOS_guideXOS_DefaultApps_Notepad__MapFromKey 000000001006c7b0     guideXOS.obj
 0003:00069a10       guideXOS_guideXOS_DefaultApps_Notepad__UpdateStatusKeys 000000001006ca10     guideXOS.obj
 0003:00069ab0       guideXOS_guideXOS_DefaultApps_Notepad__Keyboard_OnKeyChanged 000000001006cab0     guideXOS.obj
 0003:00069c50       guideXOS_guideXOS_DefaultApps_Notepad__SaveTo 000000001006cc50     guideXOS.obj
 0003:00069dcc       guideXOS_guideXOS_DefaultApps_Notepad__OpenSaveAs 000000001006cdcc     guideXOS.obj
 0003:00069ec4       guideXOS_guideXOS_DefaultApps_Notepad__StartsWithFast 000000001006cec4     guideXOS.obj
 0003:00069f10       guideXOS_guideXOS_DefaultApps_Notepad__OpenFile 000000001006cf10     guideXOS.obj
 0003:0006a148       guideXOS_guideXOS_DefaultApps_Notepad__OnInput 000000001006d148     guideXOS.obj
 0003:0006a2c0       guideXOS_guideXOS_DefaultApps_Notepad__OnDraw 000000001006d2c0     guideXOS.obj
 0003:0006a72c       guideXOS_guideXOS_DefaultApps_Notepad__DrawStatusBar 000000001006d72c     guideXOS.obj
 0003:0006abe0       guideXOS_guideXOS_DefaultApps_Notepad__DrawBadge 000000001006dbe0     guideXOS.obj
 0003:0006aca4       guideXOS_guideXOS_DefaultApps_Notepad__Dispose 000000001006dca4     guideXOS.obj
 0003:0006ace8       guideXOS_guideXOS_DefaultApps_Notepad___OnSetVisible_b__19_0 000000001006dce8     guideXOS.obj
 0003:0006ad4c       guideXOS_guideXOS_DefaultApps_Notepad___OnSetVisible_b__19_3 000000001006dd4c     guideXOS.obj
 0003:0006ad54       guideXOS_guideXOS_DefaultApps_Notepad___OnSetVisible_b__19_1 000000001006dd54     guideXOS.obj
 0003:0006ad64       guideXOS_guideXOS_DefaultApps_Notepad___OnSetVisible_b__19_2 000000001006dd64     guideXOS.obj
 0003:0006ad70       guideXOS_guideXOS_DefaultApps_Paint___ctor 000000001006dd70     guideXOS.obj
 0003:0006b410       guideXOS_guideXOS_DefaultApps_Paint__OnDraw 000000001006e410     guideXOS.obj
 0003:0006bb10       guideXOS_guideXOS_DefaultApps_Paint__OnInput 000000001006eb10     guideXOS.obj
 0003:0006bcf8       guideXOS_guideXOS_DefaultApps_Paint__HandleToolbarClick 000000001006ecf8     guideXOS.obj
 0003:0006c0d0       guideXOS_guideXOS_DefaultApps_Paint__HandleDrawing 000000001006f0d0     guideXOS.obj
 0003:0006c280       guideXOS_guideXOS_DefaultApps_Paint__FinishDrawing 000000001006f280     guideXOS.obj
 0003:0006c3e4       guideXOS_guideXOS_DefaultApps_Paint__DrawPixel 000000001006f3e4     guideXOS.obj
 0003:0006c43c       guideXOS_guideXOS_DefaultApps_Paint__DrawBrush 000000001006f43c     guideXOS.obj
 0003:0006c524       guideXOS_guideXOS_DefaultApps_Paint__DrawBrushLine 000000001006f524     guideXOS.obj
 0003:0006c658       guideXOS_guideXOS_DefaultApps_Paint__DrawThickLine 000000001006f658     guideXOS.obj
 0003:0006c698       guideXOS_guideXOS_DefaultApps_Paint__DrawThickRectangle 000000001006f698     guideXOS.obj
 0003:0006c7b0       guideXOS_guideXOS_DefaultApps_Paint__DrawThickCircle 000000001006f7b0     guideXOS.obj
 0003:0006ca34       guideXOS_guideXOS_DefaultApps_Paint__FloodFill 000000001006fa34     guideXOS.obj
 0003:0006cd14       guideXOS_guideXOS_DefaultApps_Paint__AddColorButton 000000001006fd14     guideXOS.obj
 0003:0006cdd4       guideXOS_guideXOS_DefaultApps_Paint__AddToolButton 000000001006fdd4     guideXOS.obj
 0003:0006ced0       guideXOS_guideXOS_DefaultApps_Paint__AddSizeButton 000000001006fed0     guideXOS.obj
 0003:0006cfcc       guideXOS_guideXOS_DefaultApps_TaskManager___ctor 000000001006ffcc     guideXOS.obj
 0003:0006d25c       guideXOS_guideXOS_DefaultApps_TaskManager__OnSetVisible 000000001007025c     guideXOS.obj
 0003:0006d27c       guideXOS_guideXOS_DefaultApps_TaskManager__OnInput 000000001007027c     guideXOS.obj
 0003:0006d798       guideXOS_guideXOS_DefaultApps_TaskManager__OnDraw 0000000010070798     guideXOS.obj
 0003:0006da18       guideXOS_guideXOS_DefaultApps_TaskManager__DrawTombstoned 0000000010070a18     guideXOS.obj
 0003:0006dc74       guideXOS_guideXOS_DefaultApps_TaskManager__CountTombstoned 0000000010070c74     guideXOS.obj
 0003:0006dcc4       guideXOS_guideXOS_DefaultApps_TaskManager__GetTombstonedAt 0000000010070cc4     guideXOS.obj
 0003:0006dd24       guideXOS_guideXOS_DefaultApps_TaskManager__RestoreTombstoned 0000000010070d24     guideXOS.obj
 0003:0006dd70       guideXOS_guideXOS_DefaultApps_TaskManager__EndTombstoned 0000000010070d70     guideXOS.obj
 0003:0006ddc8       guideXOS_guideXOS_DefaultApps_TaskManager__DrawTab 0000000010070dc8     guideXOS.obj
 0003:0006dec0       guideXOS_guideXOS_DefaultApps_TaskManager__DrawProcesses 0000000010070ec0     guideXOS.obj
 0003:0006e450       guideXOS_guideXOS_DefaultApps_TaskManager__DrawHeaderCell 0000000010071450     guideXOS.obj
 0003:0006e4fc       guideXOS_guideXOS_DefaultApps_TaskManager__DrawPerformance 00000000100714fc     guideXOS.obj
 0003:0006ee88       guideXOS_guideXOS_DefaultApps_TaskManager__GetChartForCategory 0000000010071e88     guideXOS.obj
 0003:0006eed4       guideXOS_guideXOS_DefaultApps_TaskManager__DrawMiniGraph 0000000010071ed4     guideXOS.obj
 0003:0006f0ac       guideXOS_guideXOS_DefaultApps_TaskManager__DrawCpuDetail 00000000100720ac     guideXOS.obj
 0003:0006f494       guideXOS_guideXOS_DefaultApps_TaskManager__DrawMemDetail 0000000010072494     guideXOS.obj
 0003:0006fcac       guideXOS_guideXOS_DefaultApps_TaskManager__DrawDiskDetail 0000000010072cac     guideXOS.obj
 0003:00070064       guideXOS_guideXOS_DefaultApps_TaskManager__DrawNetDetail 0000000010073064     guideXOS.obj
 0003:0007038c       guideXOS_guideXOS_DefaultApps_TaskManager__UpdateChart 000000001007338c     guideXOS.obj
 0003:000704e0       guideXOS_guideXOS_DefaultApps_TaskManager__OnEndTask 00000000100734e0     guideXOS.obj
 0003:0007057c       guideXOS_guideXOS_DefaultApps_TaskManager__SampleOwnerBytes 000000001007357c     guideXOS.obj
 0003:000707dc       guideXOS_guideXOS_DefaultApps_TaskManager__Dispose 00000000100737dc     guideXOS.obj
 0003:000708f0       guideXOS_guideXOS_DefaultApps_TaskManager__DrawMemoryDetails 00000000100738f0     guideXOS.obj
 0003:00071710       guideXOS_guideXOS_DefaultApps_TaskManager__UpdateMemoryDetailStats 0000000010074710     guideXOS.obj
 0003:0007181c       guideXOS_guideXOS_DefaultApps_TaskManager___SampleOwnerBytes_g__FindOrAddOwner_95_0 000000001007481c     guideXOS.obj
 0003:000718bc       guideXOS_guideXOS_DefaultApps_TTFFontDemo__LoadTTFFonts 00000000100748bc     guideXOS.obj
 0003:000719ec       guideXOS_guideXOS_DefaultApps_TTFFontDemo__OnDraw 00000000100749ec     guideXOS.obj
 0003:00071ea8       guideXOS_guideXOS_DefaultApps_TTFFontDemo__OnInput 0000000010074ea8     guideXOS.obj
 0003:00071eb0       guideXOS_guideXOS_DefaultApps_USBDrives___ctor 0000000010074eb0     guideXOS.obj
 0003:00071f2c       guideXOS_guideXOS_DefaultApps_USBDrives__RefreshDrives 0000000010074f2c     guideXOS.obj
 0003:00072090       guideXOS_guideXOS_DefaultApps_USBDrives__OnDraw 0000000010075090     guideXOS.obj
 0003:0007214c       guideXOS_guideXOS_DefaultApps_USBDrives__OnInput 000000001007514c     guideXOS.obj
 0003:00072228       guideXOS_guideXOS_DefaultApps_WAVPlayer__Play 0000000010075228     guideXOS.obj
 0003:00072324       guideXOS_guideXOS_DefaultApps_WAVPlayer__DoPlay 0000000010075324     guideXOS.obj
 0003:000723e0       guideXOS_guideXOS_DefaultApps_WebBrowser___ctor 00000000100753e0     guideXOS.obj
 0003:0007250c       guideXOS_guideXOS_DefaultApps_WebBrowser__OnKey 000000001007550c     guideXOS.obj
 0003:00072730       guideXOS_guideXOS_DefaultApps_WebBrowser__MapChar 0000000010075730     guideXOS.obj
 0003:0007288c       guideXOS_guideXOS_DefaultApps_WebBrowser__OnInput 000000001007588c     guideXOS.obj
 0003:00072b0c       guideXOS_guideXOS_DefaultApps_WebBrowser__OnDraw 0000000010075b0c     guideXOS.obj
 0003:00072d88       guideXOS_guideXOS_DefaultApps_WebBrowser__DrawTabBar 0000000010075d88     guideXOS.obj
 0003:00073044       guideXOS_guideXOS_DefaultApps_WebBrowser__DrawRenderedContent 0000000010076044     guideXOS.obj
 0003:000731b0       guideXOS_guideXOS_DefaultApps_WebBrowser__DrawScrollbar 00000000100761b0     guideXOS.obj
 0003:000732cc       guideXOS_guideXOS_DefaultApps_WebBrowser__AddNewTab 00000000100762cc     guideXOS.obj
 0003:00073350       guideXOS_guideXOS_DefaultApps_WebBrowser__CloseTab 0000000010076350     guideXOS.obj
 0003:000733f0       guideXOS_guideXOS_DefaultApps_WebBrowser__PollReceive 00000000100763f0     guideXOS.obj
 0003:00073448       guideXOS_guideXOS_DefaultApps_WebBrowser__StartRequest 0000000010076448     guideXOS.obj
 0003:00073710       guideXOS_guideXOS_DefaultApps_WebBrowser__AppendData 0000000010076710     guideXOS.obj
 0003:00073978       guideXOS_guideXOS_DefaultApps_WebBrowser__ParseAndRenderHtml 0000000010076978     guideXOS.obj
 0003:00073c70       guideXOS_guideXOS_DefaultApps_WebBrowser__AddTextElement 0000000010076c70     guideXOS.obj
 0003:00073f28       guideXOS_guideXOS_DefaultApps_WebBrowser__AddLine 0000000010076f28     guideXOS.obj
 0003:00074060       guideXOS_guideXOS_DefaultApps_WebBrowser__SplitWords 0000000010077060     guideXOS.obj
 0003:00074170       guideXOS_guideXOS_DefaultApps_WebBrowser__ExtractTitle 0000000010077170     guideXOS.obj
 0003:000742a4       guideXOS_guideXOS_DefaultApps_WebBrowser__ToLowerCase 00000000100772a4     guideXOS.obj
 0003:00074364       guideXOS_guideXOS_DefaultApps_WebBrowser__FindString 0000000010077364     guideXOS.obj
 0003:000743dc       guideXOS_guideXOS_DefaultApps_WebBrowser__NextEphemeral 00000000100773dc     guideXOS.obj
 0003:00074410       guideXOS_guideXOS_DefaultApps_WebBrowser__ToAscii 0000000010077410     guideXOS.obj
 0003:00074478       guideXOS_guideXOS_DefaultApps_WebBrowser__OnSetVisible 0000000010077478     guideXOS.obj
 0003:000744d0       guideXOS_guideXOS_DefaultApps_WebBrowser__IndexOf 00000000100774d0     guideXOS.obj
 0003:00074500       guideXOS_guideXOS_DefaultApps_WebBrowser__StartsWithFast 0000000010077500     guideXOS.obj
 0003:00074548       guideXOS_guideXOS_DefaultApps_WebBrowser__Dispose 0000000010077548     guideXOS.obj
 0003:000745f4       guideXOS_guideXOS_DefaultApps_Welcome___ctor 00000000100775f4     guideXOS.obj
 0003:000746d8       guideXOS_guideXOS_DefaultApps_Welcome__OnDraw 00000000100776d8     guideXOS.obj
 0003:0007478c       guideXOS_guideXOS_Compat_Posix__EndsWithSlash 000000001007778c     guideXOS.obj
 0003:000747b0       guideXOS_guideXOS_Compat_Posix__LastSlashBefore 00000000100777b0     guideXOS.obj
 0003:000747f4       guideXOS_guideXOS_Compat_Posix__StartsWithString 00000000100777f4     guideXOS.obj
 0003:00074840       guideXOS_guideXOS_Compat_Posix__NormalizePath 0000000010077840     guideXOS.obj
 0003:00074998       guideXOS_guideXOS_Compat_Posix__EnsureDir 0000000010077998     guideXOS.obj
 0003:000749e8       guideXOS_guideXOS_Compat_Posix__CombineRelative 00000000100779e8     guideXOS.obj
 0003:00074a44       guideXOS_guideXOS_Compat_Posix__Split 0000000010077a44     guideXOS.obj
 0003:00074af8       guideXOS_guideXOS_Compat_Posix__List 0000000010077af8     guideXOS.obj
 0003:00074c8c       guideXOS_guideXOS_Compat_Posix__DirectoryExists 0000000010077c8c     guideXOS.obj
 0003:00074e24       guideXOS_guideXOS_Compat_Posix__DisposeAll 0000000010077e24     guideXOS.obj
 0003:00074ee0       guideXOS_guideXOS_Compat_Posix__TryFuzzyResolve 0000000010077ee0     guideXOS.obj
 0003:00075288       guideXOS_Program___c___ctor 0000000010078288     guideXOS.obj
 0003:0007528c       guideXOS_Program___c___SMain_b__22_0 000000001007828c     guideXOS.obj
 0003:0007534c       guideXOS_guideXOS_NETv4_MACAddress__op_Equality 000000001007834c     guideXOS.obj
 0003:00075388       guideXOS_guideXOS_NETv4_TCPClient___ctor 0000000010078388     guideXOS.obj
 0003:00075418       guideXOS_guideXOS_NETv4_TCPClient__CacheConcat 0000000010078418     guideXOS.obj
 0003:00075518       guideXOS_guideXOS_NETv4_TCPClient__CacheFlush 0000000010078518     guideXOS.obj
 0003:00075560       guideXOS_guideXOS_NETv4_IPAddress__IsInSameSubnet 0000000010078560     guideXOS.obj
 0003:000755d0       guideXOS_guideXOS_Network_Http_Header___ctor 00000000100785d0     guideXOS.obj
 0003:000755d4       guideXOS_guideXOS_Network_Http_Request___ctor 00000000100785d4     guideXOS.obj
 0003:00075658       guideXOS_guideXOS_Network_Http_Response___ctor 0000000010078658     guideXOS.obj
 0003:000756bc       guideXOS_guideXOS_FS_FAT___c__DisplayClass50_0___ctor 00000000100786bc     guideXOS.obj
 0003:000756c0       guideXOS_guideXOS_FS_FAT___c__DisplayClass50_0___FindPath_b__0 00000000100786c0     guideXOS.obj
 0003:000756fc       guideXOS_guideXOS_FS_FAT___c__DisplayClass50_1___ctor 00000000100786fc     guideXOS.obj
 0003:00075700       guideXOS_guideXOS_FS_FAT___c__DisplayClass50_1___FindPath_b__1 0000000010078700     guideXOS.obj
 0003:0007575c       guideXOS_guideXOS_FS_FAT___c__DisplayClass60_0___ctor 000000001007875c     guideXOS.obj
 0003:00075760       guideXOS_guideXOS_FS_FAT___c__DisplayClass60_0___GetFiles_b__0 0000000010078760     guideXOS.obj
 0003:00075820       guideXOS_guideXOS_Kernel_Drivers_EHCI_TD__Clean 0000000010078820     guideXOS.obj
 0003:00075890       guideXOS_guideXOS_Kernel_Drivers_EHCI_QH__Clean 0000000010078890     guideXOS.obj
 0003:00075900       guideXOS_guideXOS_Kernel_Drivers_SATA_HBACommandHeader__set_CommandFISLength 0000000010078900     guideXOS.obj
 0003:0007590c       guideXOS_guideXOS_Kernel_Drivers_SATA_HBACommandHeader__set_Write 000000001007890c     guideXOS.obj
 0003:00075918       guideXOS_guideXOS_Kernel_Drivers_SATA_SATADevice__Configure 0000000010078918     guideXOS.obj
 0003:000759f0       guideXOS_guideXOS_Kernel_Drivers_SATA_SATADevice__StartCMD 00000000100789f0     guideXOS.obj
 0003:00075a14       guideXOS_guideXOS_Kernel_Drivers_SATA_SATADevice__StopCMD 0000000010078a14     guideXOS.obj
 0003:00075a48       guideXOS_guideXOS_Kernel_Drivers_SATA_SATADevice__Read 0000000010078a48     guideXOS.obj
 0003:00075a64       guideXOS_guideXOS_Kernel_Drivers_SATA_SATADevice__Write 0000000010078a64     guideXOS.obj
 0003:00075a80       guideXOS_guideXOS_Kernel_Drivers_SATA_SATADevice__ReadOrWrite 0000000010078a80     guideXOS.obj
 0003:00075d44       guideXOS_guideXOS_Kernel_Drivers_SATA_SATADevice__FindSlot 0000000010078d44     guideXOS.obj
 0003:00075d7c       guideXOS_guideXOS_Kernel_Drivers_SATA_SATADevice___ctor 0000000010078d7c     guideXOS.obj
 0003:00075d9c       guideXOS_guideXOS_Kernel_Drivers_USBMSCBot_USBDisk__Initialize 0000000010078d9c     guideXOS.obj
 0003:00075f14       guideXOS_guideXOS_Kernel_Drivers_USBMSCBot_USBDisk__FillCBW 0000000010078f14     guideXOS.obj
 0003:00075f80       guideXOS_guideXOS_Kernel_Drivers_USBMSCBot_USBDisk__BotReset 0000000010078f80     guideXOS.obj
 0003:00075fdc       guideXOS_guideXOS_Kernel_Drivers_USBMSCBot_USBDisk__GetMaxLun 0000000010078fdc     guideXOS.obj
 0003:00076058       guideXOS_guideXOS_Kernel_Drivers_USBMSCBot_USBDisk__SendCBW 0000000010079058     guideXOS.obj
 0003:00076178       guideXOS_guideXOS_Kernel_Drivers_USBMSCBot_USBDisk__ReceiveCSW 0000000010079178     guideXOS.obj
 0003:0007623c       guideXOS_guideXOS_Kernel_Drivers_USBMSCBot_USBDisk__SCSI_Inquiry 000000001007923c     guideXOS.obj
 0003:00076358       guideXOS_guideXOS_Kernel_Drivers_USBMSCBot_USBDisk__TestUnitReady 0000000010079358     guideXOS.obj
 0003:000763f8       guideXOS_guideXOS_Kernel_Drivers_USBMSCBot_USBDisk__ReadCapacity 00000000100793f8     guideXOS.obj
 0003:0007654c       guideXOS_guideXOS_Kernel_Drivers_USBMSCBot_USBDisk__Swap32 000000001007954c     guideXOS.obj
 0003:0007657c       guideXOS_guideXOS_Kernel_Drivers_USBMSCBot_USBDisk__Read10 000000001007957c     guideXOS.obj
 0003:000766b8       guideXOS_guideXOS_Kernel_Drivers_USBMSCBot_USBDisk__Read 00000000100796b8     guideXOS.obj
 0003:0007674c       guideXOS_guideXOS_Kernel_Drivers_USBMSCBot_USBDisk__Write 000000001007974c     guideXOS.obj
 0003:00076750       guideXOS_guideXOS_Modules_ModuleManager___c___ctor 0000000010079750     guideXOS.obj
 0003:00076754       guideXOS_guideXOS_Modules_ModuleManager___c___InitializeBuiltins_b__7_0 0000000010079754     guideXOS.obj
 0003:00076798       guideXOS_guideXOS_Misc_TrueTypeFont_TableRecord___ctor 0000000010079798     guideXOS.obj
 0003:0007679c       guideXOS_guideXOS_Misc_TrueTypeFont_GlyphOutline___ctor 000000001007979c     guideXOS.obj
 0003:00076858       guideXOS_guideXOS_Misc_Interrupts_INT___ctor 0000000010079858     guideXOS.obj
 0003:0007685c       guideXOS_guideXOS_GUI_DisplayOptions___c___ctor 000000001007985c     guideXOS.obj
 0003:00076860       guideXOS_guideXOS_GUI_DisplayOptions___c___OnInput_b__40_0 0000000010079860     guideXOS.obj
 0003:000769c8       guideXOS_guideXOS_GUI_DisplayOptions___c___OnInput_b__40_1 00000000100799c8     guideXOS.obj
 0003:00076a68       guideXOS_guideXOS_GUI_GXMScriptWindow_TextBoxDef___ctor 0000000010079a68     guideXOS.obj
 0003:00076a84       guideXOS_guideXOS_GUI_GXMScriptWindow_ListViewDef___ctor 0000000010079a84     guideXOS.obj
 0003:00076ad4       guideXOS_guideXOS_GUI_GXMScriptWindow_DropdownDef___ctor 0000000010079ad4     guideXOS.obj
 0003:00076b24       guideXOS_guideXOS_GUI_GXMScriptWindow_Callback___ctor 0000000010079b24     guideXOS.obj
 0003:00076b28       guideXOS_guideXOS_GUI_WorkspaceSwitcher_WindowSnapshot___ctor 0000000010079b28     guideXOS.obj
 0003:00076b2c       guideXOS_guideXOS_DockableWidgets_Monitor_Chart___ctor 0000000010079b2c     guideXOS.obj
 0003:00076bb4       guideXOS_guideXOS_DefaultApps_DiskManager_DiskEntry___ctor 0000000010079bb4     guideXOS.obj
 0003:00076bb8       guideXOS_guideXOS_DefaultApps_DiskManager___c__DisplayClass38_0___ctor 0000000010079bb8     guideXOS.obj
 0003:00076bbc       guideXOS_guideXOS_DefaultApps_DiskManager___c__DisplayClass38_0___ReadMBRForEntry_b__0 0000000010079bbc     guideXOS.obj
 0003:00076e10       guideXOS_guideXOS_DefaultApps_DiskManager___c__DisplayClass54_0___ctor 0000000010079e10     guideXOS.obj
 0003:00076e14       guideXOS_guideXOS_DefaultApps_DiskManager___c__DisplayClass54_0___TryCreatePartitionLargestFree_b__0 0000000010079e14     guideXOS.obj
 0003:00076e78       guideXOS_guideXOS_DefaultApps_DiskManager___c__DisplayClass54_0___TryCreatePartitionLargestFree_b__1 0000000010079e78     guideXOS.obj
 0003:00076edc       guideXOS_guideXOS_DefaultApps_HDInstaller_DiskInfo___ctor 0000000010079edc     guideXOS.obj
 0003:00076ee0       guideXOS_guideXOS_DefaultApps_IRCNetworks_Entry___ctor 0000000010079ee0     guideXOS.obj
 0003:00076ee4       guideXOS_guideXOS_DefaultApps_Notepad___c__DisplayClass24_0___ctor 0000000010079ee4     guideXOS.obj
 0003:00076ee8       guideXOS_guideXOS_DefaultApps_Notepad___c__DisplayClass24_0___OpenSaveAs_b__0 0000000010079ee8     guideXOS.obj
 0003:00076f18       guideXOS_guideXOS_DefaultApps_TaskManager_Chart___ctor 0000000010079f18     guideXOS.obj
 0003:00076fac       guideXOS_guideXOS_DefaultApps_TaskManager_Chart__EnsureSize 0000000010079fac     guideXOS.obj
 0003:00077038       guideXOS_guideXOS_DefaultApps_WebBrowser_BrowserTab___ctor 000000001007a038     guideXOS.obj
 0003:000770c8       guideXOS_guideXOS_DefaultApps_WebBrowser_RenderElement___ctor 000000001007a0c8     guideXOS.obj
 0003:000770cc       guideXOS_System_Array_1<Bool>___ctor 000000001007a0cc     guideXOS.obj
 0003:000770d0       guideXOS_System_Collections_Generic_List_1<Bool>__Dispose 000000001007a0d0     guideXOS.obj
 0003:00077158       guideXOS_System_Array_1<UInt8>___ctor 000000001007a158     guideXOS.obj
 0003:0007715c       guideXOS_System_Collections_Generic_List_1<UInt8>__ToArray 000000001007a15c     guideXOS.obj
 0003:000771b0       guideXOS_System_Collections_Generic_List_1<UInt8>__Dispose 000000001007a1b0     guideXOS.obj
 0003:00077238       guideXOS_System_Array_1<Char>___ctor 000000001007a238     guideXOS.obj
 0003:0007723c       guideXOS_System_Collections_Generic_List_1<Char>__IndexOf 000000001007a23c     guideXOS.obj
 0003:00077268       guideXOS_System_Collections_Generic_List_1<Char>__Dispose 000000001007a268     guideXOS.obj
 0003:000772f0       guideXOS_System_Collections_Generic_Dictionary_2<Char__Int32>___ctor 000000001007a2f0     guideXOS.obj
 0003:00077374       guideXOS_System_Collections_Generic_Dictionary_2<Char__Int32>__Dispose 000000001007a374     guideXOS.obj
 0003:000774c0       guideXOS_System_Collections_Generic_Dictionary_2<Char__System___Canon>___ctor 000000001007a4c0     guideXOS.obj
 0003:0007753c       guideXOS_System_Collections_Generic_Dictionary_2<Char__System___Canon>__Dispose 000000001007a53c     guideXOS.obj
 0003:00077688       guideXOS_System_Array_1<Int16>___ctor 000000001007a688     guideXOS.obj
 0003:0007768c       guideXOS_System_Array_1<Int32>___ctor 000000001007a68c     guideXOS.obj
 0003:00077690       guideXOS_System_Collections_Generic_List_1<Int32>__Dispose 000000001007a690     guideXOS.obj
 0003:00077718       guideXOS_System_Func_2<Int32__System___Canon>__InvokeOpenStaticThunk 000000001007a718     guideXOS.obj
 0003:00077730       guideXOS_System_Array_1<Single>___ctor 000000001007a730     guideXOS.obj
 0003:00077734       guideXOS_System_Array_1<UInt32>___ctor 000000001007a734     guideXOS.obj
 0003:00077738       guideXOS_System_Collections_Generic_List_1<UInt32>__Dispose 000000001007a738     guideXOS.obj
 0003:000777c0       guideXOS_System_Array_1<UInt64>___ctor 000000001007a7c0     guideXOS.obj
 0003:000777c4       guideXOS_System_Collections_Generic_List_1<UInt64>__RemoveAt 000000001007a7c4     guideXOS.obj
 0003:00077828       guideXOS_System_Collections_Generic_List_1<UInt64>__Dispose 000000001007a828     guideXOS.obj
 0003:000778b0       guideXOS_System_Array_1<guideXOS_System_Drawing_Point>___ctor 000000001007a8b0     guideXOS.obj
 0003:000778b4       guideXOS_System_Collections_Generic_List_1<guideXOS_System_Drawing_Point>__RemoveAt 000000001007a8b4     guideXOS.obj
 0003:00077928       guideXOS_System_Collections_Generic_List_1<guideXOS_System_Drawing_Point>__Dispose 000000001007a928     guideXOS.obj
 0003:000779b0       guideXOS_System_Array_1<guideXOS_guideXOS_Kernel_Drivers_Resolution>___ctor 000000001007a9b0     guideXOS.obj
 0003:000779b4       guideXOS_System_Array_1<guideXOS_guideXOS_OS_FirewallMode>___ctor 000000001007a9b4     guideXOS.obj
 0003:000779b8       guideXOS_System_Array_1<guideXOS_guideXOS_GUI_RecentProgramEntry>___ctor 000000001007a9b8     guideXOS.obj
 0003:000779bc       guideXOS_System_Collections_Generic_List_1<guideXOS_guideXOS_GUI_RecentProgramEntry>__Insert 000000001007a9bc     guideXOS.obj
 0003:00077b24       guideXOS_System_Collections_Generic_List_1<guideXOS_guideXOS_GUI_RecentProgramEntry>__ToArray 000000001007ab24     guideXOS.obj
 0003:00077bb0       guideXOS_System_Collections_Generic_List_1<guideXOS_guideXOS_GUI_RecentProgramEntry>__IndexOf 000000001007abb0     guideXOS.obj
 0003:00077bec       guideXOS_System_Collections_Generic_List_1<guideXOS_guideXOS_GUI_RecentProgramEntry>__RemoveAt 000000001007abec     guideXOS.obj
 0003:00077c98       guideXOS_System_Collections_Generic_List_1<guideXOS_guideXOS_GUI_RecentProgramEntry>__Dispose 000000001007ac98     guideXOS.obj
 0003:00077d20       guideXOS_System_Array_1<guideXOS_guideXOS_GUI_RecentDocumentEntry>___ctor 000000001007ad20     guideXOS.obj
 0003:00077d24       guideXOS_System_Collections_Generic_List_1<guideXOS_guideXOS_GUI_RecentDocumentEntry>__Insert 000000001007ad24     guideXOS.obj
 0003:00077e8c       guideXOS_System_Collections_Generic_List_1<guideXOS_guideXOS_GUI_RecentDocumentEntry>__ToArray 000000001007ae8c     guideXOS.obj
 0003:00077f18       guideXOS_System_Collections_Generic_List_1<guideXOS_guideXOS_GUI_RecentDocumentEntry>__IndexOf 000000001007af18     guideXOS.obj
 0003:00077f54       guideXOS_System_Collections_Generic_List_1<guideXOS_guideXOS_GUI_RecentDocumentEntry>__RemoveAt 000000001007af54     guideXOS.obj
 0003:00078000       guideXOS_System_Collections_Generic_List_1<guideXOS_guideXOS_GUI_RecentDocumentEntry>__Dispose 000000001007b000     guideXOS.obj
 0003:00078088       guideXOS_System_Array_1<guideXOS_guideXOS_GUI_WindowEffectType>___ctor 000000001007b088     guideXOS.obj
 0003:0007808c       guideXOS_System_Array_1<guideXOS_guideXOS_DefaultApps_PaintTool>___ctor 000000001007b08c     guideXOS.obj
 0003:00078090       guideXOS_System_Collections_Generic_List_1<guideXOS_guideXOS_DefaultApps_PaintTool>__Dispose 000000001007b090     guideXOS.obj
 0003:00078118       guideXOS_System_Array_1<guideXOS_Allocator_OwnerSnapshot>___ctor 000000001007b118     guideXOS.obj
 0003:0007811c       guideXOS_System_Array_1<guideXOS_IDT_IDTEntry>___ctor 000000001007b11c     guideXOS.obj
 0003:00078120       guideXOS_System_Array_1<guideXOS_guideXOS_NETv4_ARPCache>___ctor 000000001007b120     guideXOS.obj
 0003:00078124       guideXOS_System_Collections_Generic_List_1<guideXOS_guideXOS_NETv4_ARPCache>__Dispose 000000001007b124     guideXOS.obj
 0003:000781ac       guideXOS_System_Array_1<guideXOS_guideXOS_FS_EXT2_DirEnt>___ctor 000000001007b1ac     guideXOS.obj
 0003:000781b0       guideXOS_System_Collections_Generic_List_1<guideXOS_guideXOS_FS_EXT2_DirEnt>__Dispose 000000001007b1b0     guideXOS.obj
 0003:00078238       guideXOS_System_Array_1<guideXOS_guideXOS_Modules_ModuleManager_ModuleEntry>___ctor 000000001007b238     guideXOS.obj
 0003:0007823c       guideXOS_System_Collections_Generic_List_1<guideXOS_guideXOS_Modules_ModuleManager_ModuleEntry>__Dispose 000000001007b23c     guideXOS.obj
 0003:000782c4       guideXOS_System_Array_1<guideXOS_guideXOS_Misc_TrueTypeFont_Point>___ctor 000000001007b2c4     guideXOS.obj
 0003:000782c8       guideXOS_System_Collections_Generic_List_1<guideXOS_guideXOS_Misc_TrueTypeFont_Point>__Dispose 000000001007b2c8     guideXOS.obj
 0003:00078350       guideXOS_System_Array_1<guideXOS_guideXOS_GUI_GXMScriptWindow_Btn>___ctor 000000001007b350     guideXOS.obj
 0003:00078354       guideXOS_System_Collections_Generic_List_1<guideXOS_guideXOS_GUI_GXMScriptWindow_Btn>__Dispose 000000001007b354     guideXOS.obj
 0003:000783dc       guideXOS_System_Array_1<guideXOS_guideXOS_GUI_GXMScriptWindow_Label>___ctor 000000001007b3dc     guideXOS.obj
 0003:000783e0       guideXOS_System_Collections_Generic_List_1<guideXOS_guideXOS_GUI_GXMScriptWindow_Label>__Dispose 000000001007b3e0     guideXOS.obj
 0003:00078468       guideXOS_System_Array_1<guideXOS_guideXOS_GUI_PinnedManager_Pinned>___ctor 000000001007b468     guideXOS.obj
 0003:0007846c       guideXOS_System_Collections_Generic_List_1<guideXOS_guideXOS_GUI_PinnedManager_Pinned>__Dispose 000000001007b46c     guideXOS.obj
 0003:000784f4       guideXOS_System_Array_1<guideXOS_guideXOS_GUI_StartMenu_AppEntry>___ctor 000000001007b4f4     guideXOS.obj
 0003:000784f8       guideXOS_System_Array_1<guideXOS_guideXOS_GUI_USBDrives_Entry>___ctor 000000001007b4f8     guideXOS.obj
 0003:000784fc       guideXOS_System_Collections_Generic_List_1<guideXOS_guideXOS_GUI_WindowManager_PendingWindow>__get_Item 000000001007b4fc     guideXOS.obj
 0003:00078530       guideXOS_System_Collections_Generic_List_1<guideXOS_guideXOS_GUI_WindowManager_PendingWindow>__Add 000000001007b530     guideXOS.obj
 0003:0007856c       guideXOS_System_Collections_Generic_List_1<guideXOS_guideXOS_GUI_WindowManager_PendingWindow>__Clear 000000001007b56c     guideXOS.obj
 0003:00078574       guideXOS_System_Array_1<guideXOS_guideXOS_DefaultApps_Devices_Row>___ctor 000000001007b574     guideXOS.obj
 0003:00078578       guideXOS_System_Array_1<guideXOS_guideXOS_DefaultApps_DiskManager_Part>___ctor 000000001007b578     guideXOS.obj
 0003:0007857c       guideXOS_System_Array_1<System___Canon>___ctor 000000001007b57c     guideXOS.obj
 0003:00078580       guideXOS_System_Collections_Generic_List_1<System___Canon>___ctor 000000001007b580     guideXOS.obj
 0003:000785b4       guideXOS_System_Collections_Generic_List_1<System___Canon>__ToArray 000000001007b5b4     guideXOS.obj
 0003:00078618       guideXOS_System_Collections_Generic_List_1<System___Canon>__IndexOf 000000001007b618     guideXOS.obj
 0003:00078678       guideXOS_System_Collections_Generic_List_1<System___Canon>__Remove 000000001007b678     guideXOS.obj
 0003:000786ac       guideXOS_System_Collections_Generic_List_1<System___Canon>__RemoveAt 000000001007b6ac     guideXOS.obj
 0003:0007870c       guideXOS_System_Collections_Generic_List_1<System___Canon>__Dispose 000000001007b70c     guideXOS.obj
 0003:00078794       guideXOS_System_Collections_Generic_Queue_1<System___Canon>__Dequeue 000000001007b794     guideXOS.obj
 0003:00078814       guideXOS_System_Array_EmptyArray_1<System___Canon>___cctor 000000001007b814     guideXOS.obj
 0003:0007885c       guideXOS_System_Collections_Generic_Dictionary_2<System___Canon__Int32>___ctor 000000001007b85c     guideXOS.obj
 0003:000788d8       guideXOS_System_Collections_Generic_Dictionary_2<System___Canon__Int32>__Dispose 000000001007b8d8     guideXOS.obj
 0003:00078a24       guideXOS_System_Collections_Generic_Dictionary_2<System___Canon__guideXOS_guideXOS_DefaultApps_PaintTool>___ctor 000000001007ba24     guideXOS.obj
 0003:00078aa0       guideXOS_System_Collections_Generic_Dictionary_2<System___Canon__guideXOS_guideXOS_DefaultApps_PaintTool>__Dispose 000000001007baa0     guideXOS.obj
 0003:00078bec       guideXOS_System_Collections_Generic_Dictionary_2<System___Canon__System___Canon>___ctor 000000001007bbec     guideXOS.obj
 0003:00078c54       guideXOS_System_Collections_Generic_Dictionary_2<System___Canon__System___Canon>__Dispose 000000001007bc54     guideXOS.obj
 0003:00078da0       __managed__Main            000000001007bda0     guideXOS.obj
 0003:00078da0       guideXOS__Module___StartupCodeMain 000000001007bda0     guideXOS.obj
 0003:00078dd0       guideXOS_Allocator__ClearAllocate<guideXOS_guideXOS_Intel825xx_RXDescriptor> 000000001007bdd0     guideXOS.obj
 0003:00078de4       guideXOS_Allocator__ClearAllocate<guideXOS_guideXOS_Intel825xx_TXDescriptor> 000000001007bde4     guideXOS.obj
 0003:00078df8       guideXOS_Allocator__ClearAllocate<guideXOS_guideXOS_RTL8111_DMADescriptor> 000000001007bdf8     guideXOS.obj
 0004:00000000       __embedded_metadata        000000001007c000     guideXOS.obj
 0004:0000957d       __embedded_metadata_End    000000001008557d     guideXOS.obj
 0004:0000957d       __embedded_resourcedata    000000001008557d     guideXOS.obj
 0004:0000957d       __embedded_resourcedata_End 000000001008557d     guideXOS.obj
 0004:0000957d       __embedded_resourceindex   000000001008557d     guideXOS.obj
 0004:00009580       __embedded_resourceindex_End 0000000010085580     guideXOS.obj
 0004:00009580       __type_to_metadata_map     0000000010085580     guideXOS.obj
 0004:00009a37       __type_to_cctorContext_map 0000000010085a37     guideXOS.obj
 0004:00009a37       __type_to_metadata_map_End 0000000010085a37     guideXOS.obj
 0004:00009a45       __method_to_entrypoint_map 0000000010085a45     guideXOS.obj
 0004:00009a45       __type_to_cctorContext_map_End 0000000010085a45     guideXOS.obj
 0004:00009a48       __delegate_marshalling_stub_map 0000000010085a48     guideXOS.obj
 0004:00009a48       __method_to_entrypoint_map_End 0000000010085a48     guideXOS.obj
 0004:00009a4b       __delegate_marshalling_stub_map_End 0000000010085a4b     guideXOS.obj
 0004:00009a4b       __struct_marshalling_stub_map 0000000010085a4b     guideXOS.obj
 0004:00009a4e       __array_type_map           0000000010085a4e     guideXOS.obj
 0004:00009a4e       __struct_marshalling_stub_map_End 0000000010085a4e     guideXOS.obj
 0004:00009b6e       __array_type_map_End       0000000010085b6e     guideXOS.obj
 0004:00009b6e       __field_to_offset_map      0000000010085b6e     guideXOS.obj
 0004:00009b71       __exact_method_instantiations 0000000010085b71     guideXOS.obj
 0004:00009b71       __field_to_offset_map_End  0000000010085b71     guideXOS.obj
 0004:00009b71       __nativelayoutinfo         0000000010085b71     guideXOS.obj
 0004:00009b71       __nativelayoutinfo_End     0000000010085b71     guideXOS.obj
 0004:00009b74       __exact_method_instantiations_End 0000000010085b74     guideXOS.obj
 0004:00009b74       __generic_types_hashtable  0000000010085b74     guideXOS.obj
 0004:00009c51       __generic_methods_hashtable 0000000010085c51     guideXOS.obj
 0004:00009c51       __generic_types_hashtable_End 0000000010085c51     guideXOS.obj
 0004:00009c54       __generic_methods_hashtable_End 0000000010085c54     guideXOS.obj
 0004:00009c54       __gvm_table                0000000010085c54     guideXOS.obj
 0004:00009c57       __gvm_table_End            0000000010085c57     guideXOS.obj
 0004:00009c57       __interface_gvm_table      0000000010085c57     guideXOS.obj
 0004:00009c5a       __GenericMethodsTemplateMap 0000000010085c5a     guideXOS.obj
 0004:00009c5a       __interface_gvm_table_End  0000000010085c5a     guideXOS.obj
 0004:00009c5d       __GenericMethodsTemplateMap_End 0000000010085c5d     guideXOS.obj
 0004:00009c5d       __GenericTypesTemplateMap  0000000010085c5d     guideXOS.obj
 0004:00009c60       __GenericTypesTemplateMap_End 0000000010085c60     guideXOS.obj
 0004:00009c60       __block_reflection_type_map 0000000010085c60     guideXOS.obj
 0004:00009ef3       _StaticsInfoHashtableNode  0000000010085ef3     guideXOS.obj
 0004:00009ef3       __block_reflection_type_map_End 0000000010085ef3     guideXOS.obj
 0004:00009efe       _StaticsInfoHashtableNode_End 0000000010085efe     guideXOS.obj
 0004:00009efe       __VirtualInvokeMap         0000000010085efe     guideXOS.obj
 0004:00009f01       __DefaultConstructor_Map   0000000010085f01     guideXOS.obj
 0004:00009f01       __VirtualInvokeMap_End     0000000010085f01     guideXOS.obj
 0004:0000a04a       __DefaultConstructor_Map_End 000000001008604a     guideXOS.obj
 0004:0000a04a       __external_CommonFixupsTable_references 000000001008604a     guideXOS.obj
 0004:0000a47e       __external_CommonFixupsTable_references_End 000000001008647e     guideXOS.obj
 0004:0000a47e       __external_NativeReferences_references 000000001008647e     guideXOS.obj
 0004:0000a562       __external_NativeReferences_references_End 0000000010086562     guideXOS.obj
 0004:0000a562       __external_NativeStatics_references 0000000010086562     guideXOS.obj
 0004:0000a56a       __external_NativeStatics_references_End 000000001008656a     guideXOS.obj
 0004:0000a570       _stacktrace_methodRVA_to_token_mapping 0000000010086570     guideXOS.obj
 0004:0000cdd0       __ReadyToRunHeader         0000000010088dd0     guideXOS.obj
 0004:0000cdd0       _stacktrace_methodRVA_to_token_mapping_End 0000000010088dd0     guideXOS.obj
 0004:0000d0b0       __readonlydata_g_compilerEmbeddedSettingsBlob 00000000100890b0     guideXOS.obj
 0004:0000d0b0       g_compilerEmbeddedSettingsBlob 00000000100890b0     guideXOS.obj
 0004:0000d0b4       __readonlydata_g_requiredCpuFeatures 00000000100890b4     guideXOS.obj
 0004:0000d0b4       g_requiredCpuFeatures      00000000100890b4     guideXOS.obj
 0004:0000d0b8       __utf8str_Error            00000000100890b8     guideXOS.obj
 0004:0000d0c0       ??_7guideXOS_System_Action_1@@6B@ 00000000100890c0     guideXOS.obj
 0004:0000d0e0       ??_7guideXOS_System_EventHandler_1@@6B@ 00000000100890e0     guideXOS.obj
 0004:0000d100       ??_7guideXOS_System_Func_2@@6B@ 0000000010089100     guideXOS.obj
 0004:0000d120       ??_7guideXOS_System_Func_5@@6B@ 0000000010089120     guideXOS.obj
 0004:0000d140       ??_7guideXOS_System_Collections_Generic_Dictionary_2@@6B@ 0000000010089140     guideXOS.obj
 0004:0000d160       ??_7guideXOS_System_Collections_Generic_List_1@@6B@ 0000000010089160     guideXOS.obj
 0004:0000d180       ??_7guideXOS_System_Collections_Generic_Queue_1@@6B@ 0000000010089180     guideXOS.obj
 0004:0000d1a0       ??_7guideXOS_System_Array_EmptyArray_1@@6B@ 00000000100891a0     guideXOS.obj
 0004:0000d1c4       __fatpointer_guideXOS_System_Array_EmptyArray_1<String>___cctor 00000000100891c4     guideXOS.obj
 0004:0000d1f0       ??_7guideXOS_System_Action@@6B@ 00000000100891f0     guideXOS.obj
 0004:0000d220       ??_7guideXOS_System_Array@@6B@ 0000000010089220     guideXOS.obj
 0004:0000d258       ??_7Boxed_UInt8@@6B@       0000000010089258     guideXOS.obj
 0004:0000d2a8       ??_7guideXOS_System_Delegate@@6B@ 00000000100892a8     guideXOS.obj
 0004:0000d2e0       ??_7guideXOS_System_Enum@@6B@ 00000000100892e0     guideXOS.obj
 0004:0000d318       ??_7Boxed_Int32@@6B@       0000000010089318     guideXOS.obj
 0004:0000d368       ??_7guideXOS_System_MulticastDelegate@@6B@ 0000000010089368     guideXOS.obj
 0004:0000d3a0       ??_7Object@@6B@            00000000100893a0     guideXOS.obj
 0004:0000d3d8       ??_7String@@6B@            00000000100893d8     guideXOS.obj
 0004:0000d408       ??_7Boxed_UInt16@@6B@      0000000010089408     guideXOS.obj
 0004:0000d440       ??_7Boxed_UInt32@@6B@      0000000010089440     guideXOS.obj
 0004:0000d478       ??_7Boxed_UInt64@@6B@      0000000010089478     guideXOS.obj
 0004:0000d4a8       ??_7guideXOS_System_ValueType@@6B@ 00000000100894a8     guideXOS.obj
 0004:0000d4f8       ??_7guideXOS_System_Drawing_Image@@6B@ 00000000100894f8     guideXOS.obj
 0004:0000d530       ??_7guideXOS_guideXOS_Animation@@6B@ 0000000010089530     guideXOS.obj
 0004:0000d580       ??_7guideXOS_guideXOS_Graph_Graphics@@6B@ 0000000010089580     guideXOS.obj
 0004:0000d638       ??_7guideXOS_guideXOS_FS_AutoFS@@6B@ 0000000010089638     guideXOS.obj
 0004:0000d688       ??_7guideXOS_guideXOS_FS_Disk@@6B@ 0000000010089688     guideXOS.obj
 0004:0000d6e8       ??_7guideXOS_guideXOS_FS_EXT2@@6B@ 00000000100896e8     guideXOS.obj
 0004:0000d750       ??_7guideXOS_guideXOS_FS_FAT@@6B@ 0000000010089750     guideXOS.obj
 0004:0000d7c0       ??_7guideXOS_guideXOS_FS_FileInfo@@6B@ 00000000100897c0     guideXOS.obj
 0004:0000d7f8       ??_7guideXOS_guideXOS_FS_FileSystem@@6B@ 00000000100897f8     guideXOS.obj
 0004:0000d868       ??_7guideXOS_guideXOS_FS_TarFS@@6B@ 0000000010089868     guideXOS.obj
 0004:0000d8b8       ??_7guideXOS_guideXOS_Kernel_Drivers_IDEDevice@@6B@ 00000000100898b8     guideXOS.obj
 0004:0000d900       ??_7guideXOS_guideXOS_Kernel_Drivers_PCIDevice@@6B@ 0000000010089900     guideXOS.obj
 0004:0000d938       ??_7guideXOS_guideXOS_Kernel_Drivers_Ramdisk@@6B@ 0000000010089938     guideXOS.obj
 0004:0000d990       ??_7guideXOS_guideXOS_Kernel_Drivers_VMWareSVGAII@@6B@ 0000000010089990     guideXOS.obj
 0004:0000d9e0       ??_7guideXOS_guideXOS_Misc_TrueTypeFont@@6B@ 00000000100899e0     guideXOS.obj
 0004:0000da28       ??_7guideXOS_guideXOS_Misc_Bitmap@@6B@ 0000000010089a28     guideXOS.obj
 0004:0000da78       ??_7guideXOS_guideXOS_Misc_IFont@@6B@ 0000000010089a78     guideXOS.obj
 0004:0000dac8       ??_7guideXOS_guideXOS_Misc_PNG@@6B@ 0000000010089ac8     guideXOS.obj
 0004:0000db18       ??_7guideXOS_guideXOS_Misc_SVG@@6B@ 0000000010089b18     guideXOS.obj
 0004:0000db50       ??_7guideXOS_guideXOS_Misc_Thread@@6B@ 0000000010089b50     guideXOS.obj
 0004:0000dbc0       ??_7guideXOS_guideXOS_GUI_DisplayOptions@@6B@ 0000000010089bc0     guideXOS.obj
 0004:0000dc50       ??_7guideXOS_guideXOS_GUI_ColorPicker@@6B@ 0000000010089c50     guideXOS.obj
 0004:0000dce8       ??_7guideXOS_guideXOS_GUI_DockableWidget@@6B@ 0000000010089ce8     guideXOS.obj
 0004:0000dd90       ??_7guideXOS_guideXOS_GUI_GXMScriptWindow@@6B@ 0000000010089d90     guideXOS.obj
 0004:0000de08       ??_7guideXOS_guideXOS_GUI_IconsPrivate@@6B@ 0000000010089e08     guideXOS.obj
 0004:0000de70       ??_7guideXOS_guideXOS_GUI_NetworkConfigurationDialog@@6B@ 0000000010089e70     guideXOS.obj
 0004:0000dee8       ??_7guideXOS_guideXOS_GUI_Notify@@6B@ 0000000010089ee8     guideXOS.obj
 0004:0000df48       ??_7guideXOS_guideXOS_GUI_OnScreenKeyboard@@6B@ 0000000010089f48     guideXOS.obj
 0004:0000dfe0       ??_7guideXOS_guideXOS_GUI_OpenDialog@@6B@ 0000000010089fe0     guideXOS.obj
 0004:0000e068       ??_7guideXOS_guideXOS_GUI_RightMenu@@6B@ 000000001008a068     guideXOS.obj
 0004:0000e100       ??_7guideXOS_guideXOS_GUI_SaveChangesDialog@@6B@ 000000001008a100     guideXOS.obj
 0004:0000e198       ??_7guideXOS_guideXOS_GUI_SaveDialog@@6B@ 000000001008a198     guideXOS.obj
 0004:0000e230       ??_7guideXOS_guideXOS_GUI_ShutdownDialog@@6B@ 000000001008a230     guideXOS.obj
 0004:0000e2c0       ??_7guideXOS_guideXOS_GUI_StartMenu@@6B@ 000000001008a2c0     guideXOS.obj
 0004:0000e348       ??_7guideXOS_guideXOS_GUI_TaskbarMenu@@6B@ 000000001008a348     guideXOS.obj
 0004:0000e3e0       ??_7guideXOS_guideXOS_GUI_USBDrives@@6B@ 000000001008a3e0     guideXOS.obj
 0004:0000e470       ??_7guideXOS_guideXOS_GUI_USBFiles@@6B@ 000000001008a470     guideXOS.obj
 0004:0000e4f8       ??_7guideXOS_guideXOS_GUI_VisualEffectsSettings@@6B@ 000000001008a4f8     guideXOS.obj
 0004:0000e590       ??_7guideXOS_guideXOS_GUI_WidgetContainer@@6B@ 000000001008a590     guideXOS.obj
 0004:0000e628       ??_7guideXOS_guideXOS_GUI_WidgetContextMenu@@6B@ 000000001008a628     guideXOS.obj
 0004:0000e6a8       ??_7guideXOS_guideXOS_GUI_WidgetToggleButton@@6B@ 000000001008a6a8     guideXOS.obj
 0004:0000e730       ??_7guideXOS_guideXOS_GUI_Window@@6B@ 000000001008a730     guideXOS.obj
 0004:0000e7a8       ??_7guideXOS_guideXOS_GUI_WorkspaceSwitcher@@6B@ 000000001008a7a8     guideXOS.obj
 0004:0000e7f8       ??_7guideXOS_guideXOS_GUI_Widgets_Button@@6B@ 000000001008a7f8     guideXOS.obj
 0004:0000e830       ??_7guideXOS_guideXOS_GUI_Widgets_Base_Widget@@6B@ 000000001008a830     guideXOS.obj
 0004:0000e878       ??_7guideXOS_guideXOS_GUI_Base_WindowBase@@6B@ 000000001008a878     guideXOS.obj
 0004:0000e8e8       ??_7guideXOS_guideXOS_DockableWidgets_Clock@@6B@ 000000001008a8e8     guideXOS.obj
 0004:0000e998       ??_7guideXOS_guideXOS_DockableWidgets_Monitor@@6B@ 000000001008a998     guideXOS.obj
 0004:0000ea48       ??_7guideXOS_guideXOS_DockableWidgets_PerformanceWidget@@6B@ 000000001008aa48     guideXOS.obj
 0004:0000eae8       ??_7guideXOS_guideXOS_DockableWidgets_Uptime@@6B@ 000000001008aae8     guideXOS.obj
 0004:0000eb88       ??_7guideXOS_guideXOS_DefaultApps_Calculator@@6B@ 000000001008ab88     guideXOS.obj
 0004:0000ec20       ??_7guideXOS_guideXOS_DefaultApps_ComputerFiles@@6B@ 000000001008ac20     guideXOS.obj
 0004:0000ecb8       ??_7guideXOS_guideXOS_DefaultApps_Devices@@6B@ 000000001008acb8     guideXOS.obj
 0004:0000ed50       ??_7guideXOS_guideXOS_DefaultApps_DiskManager@@6B@ 000000001008ad50     guideXOS.obj
 0004:0000edc8       ??_7guideXOS_guideXOS_DefaultApps_DriveInfo@@6B@ 000000001008adc8     guideXOS.obj
 0004:0000ee38       ??_7guideXOS_guideXOS_DefaultApps_FConsole@@6B@ 000000001008ae38     guideXOS.obj
 0004:0000eed0       ??_7guideXOS_guideXOS_DefaultApps_FirewallAlert@@6B@ 000000001008aed0     guideXOS.obj
 0004:0000ef50       ??_7guideXOS_guideXOS_DefaultApps_FirewallWindow@@6B@ 000000001008af50     guideXOS.obj
 0004:0000efe8       ??_7guideXOS_guideXOS_DefaultApps_GUISamples@@6B@ 000000001008afe8     guideXOS.obj
 0004:0000f078       ??_7guideXOS_guideXOS_DefaultApps_HDInstaller@@6B@ 000000001008b078     guideXOS.obj
 0004:0000f110       ??_7guideXOS_guideXOS_DefaultApps_IRCNetworks@@6B@ 000000001008b110     guideXOS.obj
 0004:0000f1a8       ??_7guideXOS_guideXOS_DefaultApps_nexIRC@@6B@ 000000001008b1a8     guideXOS.obj
 0004:0000f240       ??_7guideXOS_guideXOS_DefaultApps_Notepad@@6B@ 000000001008b240     guideXOS.obj
 0004:0000f2a0       ??_7Boxed_guideXOS_guideXOS_DefaultApps_PaintTool@@6B@ 000000001008b2a0     guideXOS.obj
 0004:0000f310       ??_7guideXOS_guideXOS_DefaultApps_Paint@@6B@ 000000001008b310     guideXOS.obj
 0004:0000f3a0       ??_7guideXOS_guideXOS_DefaultApps_TaskManager@@6B@ 000000001008b3a0     guideXOS.obj
 0004:0000f438       ??_7guideXOS_guideXOS_DefaultApps_TTFFontDemo@@6B@ 000000001008b438     guideXOS.obj
 0004:0000f4c8       ??_7guideXOS_guideXOS_DefaultApps_USBDrives@@6B@ 000000001008b4c8     guideXOS.obj
 0004:0000f560       ??_7guideXOS_guideXOS_DefaultApps_WebBrowser@@6B@ 000000001008b560     guideXOS.obj
 0004:0000f5f8       ??_7guideXOS_guideXOS_DefaultApps_Welcome@@6B@ 000000001008b5f8     guideXOS.obj
 0004:0000f650       ??_7guideXOS_Program___c@@6B@ 000000001008b650     guideXOS.obj
 0004:0000f698       ??_7guideXOS_guideXOS_Console_OnWriteHandler@@6B@ 000000001008b698     guideXOS.obj
 0004:0000f6e0       ??_7guideXOS_guideXOS_NETv4_UDPClient@@6B@ 000000001008b6e0     guideXOS.obj
 0004:0000f728       ??_7guideXOS_guideXOS_NETv4_TCPClient@@6B@ 000000001008b728     guideXOS.obj
 0004:0000f778       ??_7guideXOS_guideXOS_Network_Http_Header@@6B@ 000000001008b778     guideXOS.obj
 0004:0000f7c0       ??_7guideXOS_guideXOS_Network_Http_Request@@6B@ 000000001008b7c0     guideXOS.obj
 0004:0000f808       ??_7guideXOS_guideXOS_Network_Http_Response@@6B@ 000000001008b808     guideXOS.obj
 0004:0000f858       ??_7guideXOS_guideXOS_FS_FAT___c__DisplayClass50_0@@6B@ 000000001008b858     guideXOS.obj
 0004:0000f8a0       ??_7guideXOS_guideXOS_FS_FAT___c__DisplayClass50_1@@6B@ 000000001008b8a0     guideXOS.obj
 0004:0000f8e8       ??_7guideXOS_guideXOS_FS_FAT___c__DisplayClass60_0@@6B@ 000000001008b8e8     guideXOS.obj
 0004:0000f918       ??_7guideXOS_guideXOS_Kernel_Drivers_SATA_SATADevice@@6B@ 000000001008b918     guideXOS.obj
 0004:0000f978       ??_7guideXOS_guideXOS_Kernel_Drivers_USBMSCBot_USBDisk@@6B@ 000000001008b978     guideXOS.obj
 0004:0000f9b8       ??_7guideXOS_guideXOS_Modules_ModuleManager___c@@6B@ 000000001008b9b8     guideXOS.obj
 0004:0000fa00       ??_7guideXOS_guideXOS_Misc_TrueTypeFont_TableRecord@@6B@ 000000001008ba00     guideXOS.obj
 0004:0000fa50       ??_7guideXOS_guideXOS_Misc_TrueTypeFont_GlyphOutline@@6B@ 000000001008ba50     guideXOS.obj
 0004:0000fa88       ??_7guideXOS_guideXOS_Misc_Interrupts_INT@@6B@ 000000001008ba88     guideXOS.obj
 0004:0000fac0       ??_7guideXOS_guideXOS_GUI_DisplayOptions___c@@6B@ 000000001008bac0     guideXOS.obj
 0004:0000fb08       ??_7guideXOS_guideXOS_GUI_GXMScriptWindow_TextBoxDef@@6B@ 000000001008bb08     guideXOS.obj
 0004:0000fb58       ??_7guideXOS_guideXOS_GUI_GXMScriptWindow_ListViewDef@@6B@ 000000001008bb58     guideXOS.obj
 0004:0000fba0       ??_7guideXOS_guideXOS_GUI_GXMScriptWindow_DropdownDef@@6B@ 000000001008bba0     guideXOS.obj
 0004:0000fbf0       ??_7guideXOS_guideXOS_GUI_GXMScriptWindow_Callback@@6B@ 000000001008bbf0     guideXOS.obj
 0004:0000fc38       ??_7guideXOS_guideXOS_GUI_WorkspaceSwitcher_WindowSnapshot@@6B@ 000000001008bc38     guideXOS.obj
 0004:0000fc88       ??_7guideXOS_guideXOS_DockableWidgets_Monitor_Chart@@6B@ 000000001008bc88     guideXOS.obj
 0004:0000fcd8       ??_7guideXOS_guideXOS_DefaultApps_DiskManager_DiskEntry@@6B@ 000000001008bcd8     guideXOS.obj
 0004:0000fd28       ??_7guideXOS_guideXOS_DefaultApps_DiskManager___c__DisplayClass38_0@@6B@ 000000001008bd28     guideXOS.obj
 0004:0000fd70       ??_7guideXOS_guideXOS_DefaultApps_DiskManager___c__DisplayClass54_0@@6B@ 000000001008bd70     guideXOS.obj
 0004:0000fdb8       ??_7guideXOS_guideXOS_DefaultApps_HDInstaller_DiskInfo@@6B@ 000000001008bdb8     guideXOS.obj
 0004:0000fe08       ??_7guideXOS_guideXOS_DefaultApps_IRCNetworks_Entry@@6B@ 000000001008be08     guideXOS.obj
 0004:0000fe58       ??_7guideXOS_guideXOS_DefaultApps_Notepad___c__DisplayClass24_0@@6B@ 000000001008be58     guideXOS.obj
 0004:0000fea0       ??_7guideXOS_guideXOS_DefaultApps_TaskManager_Chart@@6B@ 000000001008bea0     guideXOS.obj
 0004:0000fee8       ??_7guideXOS_guideXOS_DefaultApps_WebBrowser_BrowserTab@@6B@ 000000001008bee8     guideXOS.obj
 0004:0000ff38       ??_7guideXOS_guideXOS_DefaultApps_WebBrowser_RenderElement@@6B@ 000000001008bf38     guideXOS.obj
 0004:0000ff88       ??_7guideXOS_System_Collections_Generic_List_1<Bool>@@6B@ 000000001008bf88     guideXOS.obj
 0004:0000ffe0       ??_7guideXOS_System_Collections_Generic_List_1<UInt8>@@6B@ 000000001008bfe0     guideXOS.obj
 0004:00010038       ??_7guideXOS_System_Collections_Generic_List_1<Char>@@6B@ 000000001008c038     guideXOS.obj
 0004:00010090       ??_7guideXOS_System_Collections_Generic_Dictionary_2<Char__Int32>@@6B@ 000000001008c090     guideXOS.obj
 0004:000100e0       ??_7guideXOS_System_Collections_Generic_Dictionary_2<Char__guideXOS_System_Drawing_Image>@@6B@ 000000001008c0e0     guideXOS.obj
 0004:00010138       ??_7guideXOS_System_EventHandler_1<guideXOS_System_ConsoleKeyInfo>@@6B@ 000000001008c138     guideXOS.obj
 0004:00010188       ??_7guideXOS_System_Collections_Generic_List_1<Int32>@@6B@ 000000001008c188     guideXOS.obj
 0004:000101e0       ??_7guideXOS_System_Func_2<Int32__guideXOS_System_Drawing_Image>@@6B@ 000000001008c1e0     guideXOS.obj
 0004:00010238       ??_7guideXOS_System_Action_1<String>@@6B@ 000000001008c238     guideXOS.obj
 0004:00010290       ??_7guideXOS_System_Collections_Generic_List_1<String>@@6B@ 000000001008c290     guideXOS.obj
 0004:000102d8       ??_7guideXOS_System_Array_EmptyArray_1<String>@@6B@ 000000001008c2d8     guideXOS.obj
 0004:00010338       ??_7guideXOS_System_Func_5<String__Bool__UInt32__UInt32__Bool>@@6B@ 000000001008c338     guideXOS.obj
 0004:00010390       ??_7guideXOS_System_Collections_Generic_Dictionary_2<String__guideXOS_guideXOS_Misc_TrueTypeFont_TableRecord>@@6B@ 000000001008c390     guideXOS.obj
 0004:000103e8       ??_7guideXOS_System_Action_1<UInt32>@@6B@ 000000001008c3e8     guideXOS.obj
 0004:00010438       ??_7guideXOS_System_Collections_Generic_List_1<UInt32>@@6B@ 000000001008c438     guideXOS.obj
 0004:00010490       ??_7guideXOS_System_Collections_Generic_List_1<UInt64>@@6B@ 000000001008c490     guideXOS.obj
 0004:000104e8       ??_7guideXOS_System_Collections_Generic_List_1<guideXOS_System_Drawing_Image>@@6B@ 000000001008c4e8     guideXOS.obj
 0004:00010548       ??_7guideXOS_System_Collections_Generic_List_1<guideXOS_System_Drawing_Point>@@6B@ 000000001008c548     guideXOS.obj
 0004:000105a0       ??_7guideXOS_System_Collections_Generic_List_1<guideXOS_guideXOS_FS_FileInfo>@@6B@ 000000001008c5a0     guideXOS.obj
 0004:00010600       ??_7guideXOS_System_Collections_Generic_List_1<guideXOS_guideXOS_Kernel_Drivers_IDEDevice>@@6B@ 000000001008c600     guideXOS.obj
 0004:00010660       ??_7guideXOS_System_Collections_Generic_List_1<guideXOS_guideXOS_Kernel_Drivers_PCIDevice>@@6B@ 000000001008c660     guideXOS.obj
 0004:000106c0       ??_7guideXOS_System_Collections_Generic_List_1<guideXOS_guideXOS_Misc_Thread>@@6B@ 000000001008c6c0     guideXOS.obj
 0004:00010720       ??_7guideXOS_System_Collections_Generic_List_1<guideXOS_guideXOS_Misc_USBDevice>@@6B@ 000000001008c720     guideXOS.obj
 0004:00010780       ??_7guideXOS_System_Collections_Generic_List_1<guideXOS_guideXOS_GUI_DockableWidget>@@6B@ 000000001008c780     guideXOS.obj
 0004:000107e0       ??_7guideXOS_System_Collections_Generic_List_1<guideXOS_guideXOS_GUI_RecentProgramEntry>@@6B@ 000000001008c7e0     guideXOS.obj
 0004:00010838       ??_7guideXOS_System_Collections_Generic_List_1<guideXOS_guideXOS_GUI_RecentDocumentEntry>@@6B@ 000000001008c838     guideXOS.obj
 0004:00010890       ??_7guideXOS_System_Collections_Generic_List_1<guideXOS_guideXOS_GUI_Window>@@6B@ 000000001008c890     guideXOS.obj
 0004:000108f0       ??_7guideXOS_System_Collections_Generic_List_1<guideXOS_guideXOS_GUI_Widgets_Button>@@6B@ 000000001008c8f0     guideXOS.obj
 0004:00010950       ??_7guideXOS_System_Collections_Generic_Dictionary_2<guideXOS_guideXOS_GUI_Widgets_Button__Int32>@@6B@ 000000001008c950     guideXOS.obj
 0004:000109a8       ??_7guideXOS_System_Collections_Generic_Dictionary_2<guideXOS_guideXOS_GUI_Widgets_Button__guideXOS_guideXOS_DefaultApps_PaintTool>@@6B@ 000000001008c9a8     guideXOS.obj
 0004:00010a00       ??_7guideXOS_System_Collections_Generic_List_1<guideXOS_guideXOS_DefaultApps_DriveInfo>@@6B@ 000000001008ca00     guideXOS.obj
 0004:00010a60       ??_7guideXOS_System_Collections_Generic_List_1<guideXOS_guideXOS_DefaultApps_PaintTool>@@6B@ 000000001008ca60     guideXOS.obj
 0004:00010ab8       ??_7guideXOS_System_Collections_Generic_List_1<guideXOS_guideXOS_NETv4_UDPClient>@@6B@ 000000001008cab8     guideXOS.obj
 0004:00010b18       ??_7guideXOS_System_Collections_Generic_List_1<guideXOS_guideXOS_NETv4_TCPClient>@@6B@ 000000001008cb18     guideXOS.obj
 0004:00010b78       ??_7guideXOS_System_Collections_Generic_List_1<guideXOS_guideXOS_NETv4_ARPCache>@@6B@ 000000001008cb78     guideXOS.obj
 0004:00010bd0       ??_7guideXOS_System_Collections_Generic_List_1<guideXOS_guideXOS_Network_Http_Header>@@6B@ 000000001008cbd0     guideXOS.obj
 0004:00010c30       ??_7guideXOS_System_Collections_Generic_List_1<guideXOS_guideXOS_FS_EXT2_DirEnt>@@6B@ 000000001008cc30     guideXOS.obj
 0004:00010c88       ??_7guideXOS_System_Collections_Generic_List_1<guideXOS_guideXOS_Kernel_Drivers_SATA_SATADevice>@@6B@ 000000001008cc88     guideXOS.obj
 0004:00010ce8       ??_7guideXOS_System_Collections_Generic_List_1<guideXOS_guideXOS_Modules_ModuleManager_ModuleEntry>@@6B@ 000000001008cce8     guideXOS.obj
 0004:00010d40       ??_7guideXOS_System_Collections_Generic_List_1<guideXOS_guideXOS_Misc_TrueTypeFont_TableRecord>@@6B@ 000000001008cd40     guideXOS.obj
 0004:00010da0       ??_7guideXOS_System_Collections_Generic_List_1<guideXOS_guideXOS_Misc_TrueTypeFont_Point>@@6B@ 000000001008cda0     guideXOS.obj
 0004:00010df8       ??_7guideXOS_System_Collections_Generic_List_1<guideXOS_guideXOS_Misc_Interrupts_INT>@@6B@ 000000001008cdf8     guideXOS.obj
 0004:00010e58       ??_7guideXOS_System_Collections_Generic_List_1<guideXOS_guideXOS_GUI_GXMScriptWindow_Btn>@@6B@ 000000001008ce58     guideXOS.obj
 0004:00010eb0       ??_7guideXOS_System_Collections_Generic_List_1<guideXOS_guideXOS_GUI_GXMScriptWindow_Label>@@6B@ 000000001008ceb0     guideXOS.obj
 0004:00010f08       ??_7guideXOS_System_Collections_Generic_List_1<guideXOS_guideXOS_GUI_GXMScriptWindow_TextBoxDef>@@6B@ 000000001008cf08     guideXOS.obj
 0004:00010f68       ??_7guideXOS_System_Collections_Generic_List_1<guideXOS_guideXOS_GUI_GXMScriptWindow_ListViewDef>@@6B@ 000000001008cf68     guideXOS.obj
 0004:00010fc8       ??_7guideXOS_System_Collections_Generic_List_1<guideXOS_guideXOS_GUI_GXMScriptWindow_DropdownDef>@@6B@ 000000001008cfc8     guideXOS.obj
 0004:00011028       ??_7guideXOS_System_Collections_Generic_List_1<guideXOS_guideXOS_GUI_GXMScriptWindow_Callback>@@6B@ 000000001008d028     guideXOS.obj
 0004:00011088       ??_7guideXOS_System_Collections_Generic_List_1<guideXOS_guideXOS_GUI_PinnedManager_Pinned>@@6B@ 000000001008d088     guideXOS.obj
 0004:000110e0       ??_7guideXOS_System_Collections_Generic_List_1<guideXOS_guideXOS_GUI_WorkspaceSwitcher_WindowSnapshot>@@6B@ 000000001008d0e0     guideXOS.obj
 0004:00011140       ??_7guideXOS_System_Collections_Generic_List_1<guideXOS_guideXOS_DefaultApps_DiskManager_DiskEntry>@@6B@ 000000001008d140     guideXOS.obj
 0004:000111a0       ??_7guideXOS_System_Collections_Generic_List_1<guideXOS_guideXOS_DefaultApps_HDInstaller_DiskInfo>@@6B@ 000000001008d1a0     guideXOS.obj
 0004:00011200       ??_7guideXOS_System_Collections_Generic_List_1<guideXOS_guideXOS_DefaultApps_IRCNetworks_Entry>@@6B@ 000000001008d200     guideXOS.obj
 0004:00011260       ??_7guideXOS_System_Collections_Generic_List_1<guideXOS_guideXOS_DefaultApps_WebBrowser_BrowserTab>@@6B@ 000000001008d260     guideXOS.obj
 0004:000112c0       ??_7guideXOS_System_Collections_Generic_List_1<guideXOS_guideXOS_DefaultApps_WebBrowser_RenderElement>@@6B@ 000000001008d2c0     guideXOS.obj
 0004:00011320       ??_7guideXOS_System_Collections_Generic_List_1<__Array<UInt8>>@@6B@ 000000001008d320     guideXOS.obj
 0004:00011380       ??_7guideXOS_System_Collections_Generic_Queue_1<__Array<UInt8>>@@6B@ 000000001008d380     guideXOS.obj
 0004:000113c0       ??_7__Array<Bool>@@6B@     000000001008d3c0     guideXOS.obj
 0004:000113f0       ??_7__Array<UInt8>@@6B@    000000001008d3f0     guideXOS.obj
 0004:00011420       ??_7__Array<Char>@@6B@     000000001008d420     guideXOS.obj
 0004:00011450       ??_7__Array<Int16>@@6B@    000000001008d450     guideXOS.obj
 0004:00011480       ??_7__Array<Int32>@@6B@    000000001008d480     guideXOS.obj
 0004:000114c8       ??_7__Array<Object>@@6B@   000000001008d4c8     guideXOS.obj
 0004:00011500       ??_7__Array<Single>@@6B@   000000001008d500     guideXOS.obj
 0004:00011548       ??_7__Array<String>@@6B@   000000001008d548     guideXOS.obj
 0004:00011580       ??_7__Array<UInt32>@@6B@   000000001008d580     guideXOS.obj
 0004:000115b0       ??_7__Array<UInt64>@@6B@   000000001008d5b0     guideXOS.obj
 0004:000115f8       ??_7__Array<guideXOS_System_Drawing_Image>@@6B@ 000000001008d5f8     guideXOS.obj
 0004:00011630       ??_7__Array<guideXOS_System_Drawing_Point>@@6B@ 000000001008d630     guideXOS.obj
 0004:00011678       ??_7__Array<guideXOS_guideXOS_FS_FileInfo>@@6B@ 000000001008d678     guideXOS.obj
 0004:000116b0       ??_7__Array<guideXOS_guideXOS_Kernel_Drivers_Resolution>@@6B@ 000000001008d6b0     guideXOS.obj
 0004:000116f8       ??_7__Array<guideXOS_guideXOS_Kernel_Drivers_IDEDevice>@@6B@ 000000001008d6f8     guideXOS.obj
 0004:00011748       ??_7__Array<guideXOS_guideXOS_Kernel_Drivers_PCIDevice>@@6B@ 000000001008d748     guideXOS.obj
 0004:00011780       ??_7__Array<guideXOS_guideXOS_OS_FirewallMode>@@6B@ 000000001008d780     guideXOS.obj
 0004:000117c8       ??_7__Array<guideXOS_guideXOS_Misc_Thread>@@6B@ 000000001008d7c8     guideXOS.obj
 0004:00011818       ??_7__Array<guideXOS_guideXOS_Misc_USBDevice>@@6B@ 000000001008d818     guideXOS.obj
 0004:00011868       ??_7__Array<guideXOS_guideXOS_GUI_DockableWidget>@@6B@ 000000001008d868     guideXOS.obj
 0004:000118b8       ??_7__Array<guideXOS_guideXOS_GUI_RecentProgramEntry>@@6B@ 000000001008d8b8     guideXOS.obj
 0004:00011900       ??_7__Array<guideXOS_guideXOS_GUI_RecentDocumentEntry>@@6B@ 000000001008d900     guideXOS.obj
 0004:00011930       ??_7__Array<guideXOS_guideXOS_GUI_WindowEffectType>@@6B@ 000000001008d930     guideXOS.obj
 0004:00011978       ??_7__Array<guideXOS_guideXOS_GUI_Window>@@6B@ 000000001008d978     guideXOS.obj
 0004:000119c8       ??_7__Array<guideXOS_guideXOS_GUI_Widgets_Button>@@6B@ 000000001008d9c8     guideXOS.obj
 0004:00011a18       ??_7__Array<guideXOS_guideXOS_DefaultApps_DriveInfo>@@6B@ 000000001008da18     guideXOS.obj
 0004:00011a50       ??_7__Array<guideXOS_guideXOS_DefaultApps_PaintTool>@@6B@ 000000001008da50     guideXOS.obj
 0004:00011a80       ??_7__Array<guideXOS_Allocator_OwnerSnapshot>@@6B@ 000000001008da80     guideXOS.obj
 0004:00011ab0       ??_7__Array<guideXOS_IDT_IDTEntry>@@6B@ 000000001008dab0     guideXOS.obj
 0004:00011af8       ??_7__Array<guideXOS_guideXOS_NETv4_UDPClient>@@6B@ 000000001008daf8     guideXOS.obj
 0004:00011b48       ??_7__Array<guideXOS_guideXOS_NETv4_TCPClient>@@6B@ 000000001008db48     guideXOS.obj
 0004:00011b80       ??_7__Array<guideXOS_guideXOS_NETv4_ARPCache>@@6B@ 000000001008db80     guideXOS.obj
 0004:00011bc8       ??_7__Array<guideXOS_guideXOS_Network_Http_Header>@@6B@ 000000001008dbc8     guideXOS.obj
 0004:00011c18       ??_7__Array<guideXOS_guideXOS_FS_EXT2_DirEnt>@@6B@ 000000001008dc18     guideXOS.obj
 0004:00011c60       ??_7__Array<guideXOS_guideXOS_Kernel_Drivers_SATA_SATADevice>@@6B@ 000000001008dc60     guideXOS.obj
 0004:00011cb0       ??_7__Array<guideXOS_guideXOS_Modules_ModuleManager_ModuleEntry>@@6B@ 000000001008dcb0     guideXOS.obj
 0004:00011cf8       ??_7__Array<guideXOS_guideXOS_Misc_TrueTypeFont_TableRecord>@@6B@ 000000001008dcf8     guideXOS.obj
 0004:00011d30       ??_7__Array<guideXOS_guideXOS_Misc_TrueTypeFont_Point>@@6B@ 000000001008dd30     guideXOS.obj
 0004:00011d78       ??_7__Array<guideXOS_guideXOS_Misc_Interrupts_INT>@@6B@ 000000001008dd78     guideXOS.obj
 0004:00011dc8       ??_7__Array<guideXOS_guideXOS_GUI_GXMScriptWindow_Btn>@@6B@ 000000001008ddc8     guideXOS.obj
 0004:00011e10       ??_7__Array<guideXOS_guideXOS_GUI_GXMScriptWindow_Label>@@6B@ 000000001008de10     guideXOS.obj
 0004:00011e58       ??_7__Array<guideXOS_guideXOS_GUI_GXMScriptWindow_TextBoxDef>@@6B@ 000000001008de58     guideXOS.obj
 0004:00011ea8       ??_7__Array<guideXOS_guideXOS_GUI_GXMScriptWindow_ListViewDef>@@6B@ 000000001008dea8     guideXOS.obj
 0004:00011ef8       ??_7__Array<guideXOS_guideXOS_GUI_GXMScriptWindow_DropdownDef>@@6B@ 000000001008def8     guideXOS.obj
 0004:00011f48       ??_7__Array<guideXOS_guideXOS_GUI_GXMScriptWindow_Callback>@@6B@ 000000001008df48     guideXOS.obj
 0004:00011f98       ??_7__Array<guideXOS_guideXOS_GUI_PinnedManager_Pinned>@@6B@ 000000001008df98     guideXOS.obj
 0004:00011fe0       ??_7__Array<guideXOS_guideXOS_GUI_StartMenu_AppEntry>@@6B@ 000000001008dfe0     guideXOS.obj
 0004:00012028       ??_7__Array<guideXOS_guideXOS_GUI_USBDrives_Entry>@@6B@ 000000001008e028     guideXOS.obj
 0004:00012070       ??_7__Array<guideXOS_guideXOS_GUI_WorkspaceSwitcher_WindowSnapshot>@@6B@ 000000001008e070     guideXOS.obj
 0004:000120c0       ??_7__Array<guideXOS_guideXOS_DefaultApps_Devices_Row>@@6B@ 000000001008e0c0     guideXOS.obj
 0004:00012108       ??_7__Array<guideXOS_guideXOS_DefaultApps_DiskManager_DiskEntry>@@6B@ 000000001008e108     guideXOS.obj
 0004:00012158       ??_7__Array<guideXOS_guideXOS_DefaultApps_DiskManager_Part>@@6B@ 000000001008e158     guideXOS.obj
 0004:000121a0       ??_7__Array<guideXOS_guideXOS_DefaultApps_HDInstaller_DiskInfo>@@6B@ 000000001008e1a0     guideXOS.obj
 0004:000121f0       ??_7__Array<guideXOS_guideXOS_DefaultApps_IRCNetworks_Entry>@@6B@ 000000001008e1f0     guideXOS.obj
 0004:00012240       ??_7__Array<guideXOS_guideXOS_DefaultApps_WebBrowser_BrowserTab>@@6B@ 000000001008e240     guideXOS.obj
 0004:00012290       ??_7__Array<guideXOS_guideXOS_DefaultApps_WebBrowser_RenderElement>@@6B@ 000000001008e290     guideXOS.obj
 0004:000122e0       ??_7__Array<__Array<UInt8>>@@6B@ 000000001008e2e0     guideXOS.obj
 0004:00012318       __readonlydata_guideXOS_Program__SMain 000000001008e318     guideXOS.obj
 0004:00012330       __readonlydata_guideXOS_IDT__intr_handler 000000001008e330     guideXOS.obj
 0004:00012368       __readonlydata_guideXOS_System_Math__Sqrt 000000001008e368     guideXOS.obj
 0004:00012378       __readonlydata_guideXOS_System_Math__Ceiling 000000001008e378     guideXOS.obj
 0004:00012388       __readonlydata_guideXOS_System_MathF__Floor 000000001008e388     guideXOS.obj
 0004:00012390       __readonlydata_guideXOS_System_Drawing_Image__Resample 000000001008e390     guideXOS.obj
 0004:00012398       __readonlydata_guideXOS_guideXOS_NETv4__TCPOnData 000000001008e398     guideXOS.obj
 0004:000123b8       __readonlydata_guideXOS_guideXOS_Graph_Graphics__DrawPoint_0 000000001008e3b8     guideXOS.obj
 0004:000123c0       __readonlydata_guideXOS_guideXOS_Graph_Graphics__DrawLine 000000001008e3c0     guideXOS.obj
 0004:000123d8       __readonlydata_guideXOS_guideXOS_Kernel_Drivers_PS2Keyboard__TranslateSet2ToSet1 000000001008e3d8     guideXOS.obj
 0004:000125e8       __readonlydata_guideXOS_guideXOS_Kernel_Drivers_PS2Keyboard__UpdateModifiers 000000001008e5e8     guideXOS.obj
 0004:00012600       __readonlydata_guideXOS_guideXOS_Kernel_Drivers_PS2Keyboard__ScancodeToKey 000000001008e600     guideXOS.obj
 0004:000127c0       __readonlydata_guideXOS_guideXOS_Kernel_Drivers_PS2Keyboard__GetChar 000000001008e7c0     guideXOS.obj
 0004:00012838       __readonlydata_guideXOS_guideXOS_Kernel_Drivers_VMwareTools__vmware_handle_mouse 000000001008e838     guideXOS.obj
 0004:00012840       __readonlydata_guideXOS_guideXOS_OS_AuthClient__JsonEscape 000000001008e840     guideXOS.obj
 0004:00012858       __readonlydata_guideXOS_guideXOS_Misc_TrueTypeFont__DrawQuadraticBezier 000000001008e858     guideXOS.obj
 0004:00012860       __readonlydata_guideXOS_guideXOS_Misc_Panic__DrawExceptionInfo 000000001008e860     guideXOS.obj
 0004:00012870       __readonlydata_guideXOS_guideXOS_Misc_Panic__GetExceptionName 000000001008e870     guideXOS.obj
 0004:000128c8       __readonlydata_guideXOS_guideXOS_Misc_SVG__RenderSVG 000000001008e8c8     guideXOS.obj
 0004:000128e8       __readonlydata_guideXOS_guideXOS_Misc_SVG__RenderCircleElement 000000001008e8e8     guideXOS.obj
 0004:000128f0       __readonlydata_guideXOS_guideXOS_Misc_SVG__RenderEllipseElement 000000001008e8f0     guideXOS.obj
 0004:00012900       __readonlydata_guideXOS_guideXOS_Misc_SVG__ParseSimpleFloat 000000001008e900     guideXOS.obj
 0004:00012920       __readonlydata_guideXOS_guideXOS_GUI_Desktop__ClickEvent 000000001008e920     guideXOS.obj
 0004:00012928       __readonlydata_guideXOS_guideXOS_GUI_DisplayOptions__ApplyGradient 000000001008e928     guideXOS.obj
 0004:00012958       __readonlydata_guideXOS_guideXOS_GUI_DisplayOptions__DrawGradientPreview 000000001008e958     guideXOS.obj
 0004:00012988       __readonlydata_guideXOS_guideXOS_GUI_GXMScriptWindow__MapFromKey 000000001008e988     guideXOS.obj
 0004:000129e0       __readonlydata_guideXOS_guideXOS_GUI_OnScreenKeyboard__CharToConsoleKey 000000001008e9e0     guideXOS.obj
 0004:00012a48       __readonlydata_guideXOS_guideXOS_GUI_OpenDialog__Keyboard_OnKeyChanged 000000001008ea48     guideXOS.obj
 0004:00012a68       __readonlydata_guideXOS_guideXOS_GUI_SaveDialog__Keyboard_OnKeyChanged 000000001008ea68     guideXOS.obj
 0004:00012ab0       __readonlydata_guideXOS_guideXOS_GUI_SpecialEffects__GetRandomEffect 000000001008eab0     guideXOS.obj
 0004:00012ad8       __readonlydata_guideXOS_guideXOS_GUI_SpecialEffects__RenderEffect 000000001008ead8     guideXOS.obj
 0004:00012b08       __readonlydata_guideXOS_guideXOS_GUI_Taskbar__UpdateAnimation 000000001008eb08     guideXOS.obj
 0004:00012b18       __readonlydata_guideXOS_guideXOS_GUI_UIPrimitives__CornerInset 000000001008eb18     guideXOS.obj
 0004:00012b28       __readonlydata_guideXOS_guideXOS_GUI_VisualEffectsSettings__ProcessTabInput 000000001008eb28     guideXOS.obj
 0004:00012b40       __readonlydata_guideXOS_guideXOS_GUI_VisualEffectsSettings__ProcessAnimationsInput 000000001008eb40     guideXOS.obj
 0004:00012b58       __readonlydata_guideXOS_guideXOS_GUI_VisualEffectsSettings__ProcessVisualEffectsInput 000000001008eb58     guideXOS.obj
 0004:00012b88       __readonlydata_guideXOS_guideXOS_GUI_VisualEffectsSettings__ProcessWindowRenderingInput 000000001008eb88     guideXOS.obj
 0004:00012ba0       __readonlydata_guideXOS_guideXOS_GUI_VisualEffectsSettings__ProcessWidgetsInput 000000001008eba0     guideXOS.obj
 0004:00012bc0       __readonlydata_guideXOS_guideXOS_GUI_VisualEffectsSettings__OnDraw 000000001008ebc0     guideXOS.obj
 0004:00012bd8       __readonlydata_guideXOS_guideXOS_GUI_VisualEffectsSettings__DrawSlider 000000001008ebd8     guideXOS.obj
 0004:00012be0       __readonlydata_guideXOS_guideXOS_GUI_VisualEffectsSettings__GetCurrentTabHeight 000000001008ebe0     guideXOS.obj
 0004:00012bf8       __readonlydata_guideXOS_guideXOS_GUI_VisualEffectsSettings__ProcessSpecialEffectsInput 000000001008ebf8     guideXOS.obj
 0004:00012c50       __readonlydata_guideXOS_guideXOS_GUI_VisualEffectsSettings__GetEffectName 000000001008ec50     guideXOS.obj
 0004:00012c88       __readonlydata_guideXOS_guideXOS_GUI_WidgetContainer__OnInput 000000001008ec88     guideXOS.obj
 0004:00012c90       __readonlydata_guideXOS_guideXOS_GUI_WidgetContainer__UpdateAutoHide 000000001008ec90     guideXOS.obj
 0004:00012c98       __readonlydata_guideXOS_guideXOS_GUI_Window__UpdateAnimation 000000001008ec98     guideXOS.obj
 0004:00012cc0       __readonlydata_guideXOS_guideXOS_GUI_Window__PerformButton 000000001008ecc0     guideXOS.obj
 0004:00012cd8       __readonlydata_guideXOS_guideXOS_GUI_Window__DrawTitleButton 000000001008ecd8     guideXOS.obj
 0004:00012cf0       __readonlydata_guideXOS_guideXOS_GUI_WorkspaceSwitcher__DrawWorkspaceThumbnail 000000001008ecf0     guideXOS.obj
 0004:00012cf8       __readonlydata_guideXOS_guideXOS_DockableWidgets_Clock__DrawHand 000000001008ecf8     guideXOS.obj
 0004:00012d08       __readonlydata_guideXOS_guideXOS_DefaultApps_Devices__OnInput 000000001008ed08     guideXOS.obj
 0004:00012d10       __readonlydata_guideXOS_guideXOS_DefaultApps_Devices__OnDraw 000000001008ed10     guideXOS.obj
 0004:00012d18       __readonlydata_guideXOS_guideXOS_DefaultApps_DiskManager__DrawVolumesGrid 000000001008ed18     guideXOS.obj
 0004:00012d30       __readonlydata_guideXOS_guideXOS_DefaultApps_FConsole__MapFromKey 000000001008ed30     guideXOS.obj
 0004:00012d88       __readonlydata_guideXOS_guideXOS_DefaultApps_HDInstaller__HandleNextButton 000000001008ed88     guideXOS.obj
 0004:00012da0       __readonlydata_guideXOS_guideXOS_DefaultApps_HDInstaller__OnDraw 000000001008eda0     guideXOS.obj
 0004:00012db8       __readonlydata_guideXOS_guideXOS_DefaultApps_ImageViewer__UpdateDisplayImage 000000001008edb8     guideXOS.obj
 0004:00012dc0       __readonlydata_guideXOS_guideXOS_DefaultApps_nexIRC__MapChar 000000001008edc0     guideXOS.obj
 0004:00012e18       __readonlydata_guideXOS_guideXOS_DefaultApps_Notepad__MapFromKey 000000001008ee18     guideXOS.obj
 0004:00012e70       __readonlydata_guideXOS_guideXOS_DefaultApps_Paint__HandleDrawing 000000001008ee70     guideXOS.obj
 0004:00012e90       __readonlydata_guideXOS_guideXOS_DefaultApps_Paint__FinishDrawing 000000001008ee90     guideXOS.obj
 0004:00012ea0       __readonlydata_guideXOS_guideXOS_DefaultApps_TaskManager__OnInput 000000001008eea0     guideXOS.obj
 0004:00012ea8       __readonlydata_guideXOS_guideXOS_DefaultApps_TaskManager__DrawPerformance 000000001008eea8     guideXOS.obj
 0004:00012ec0       __readonlydata_guideXOS_guideXOS_DefaultApps_TaskManager__GetChartForCategory 000000001008eec0     guideXOS.obj
 0004:00012ed0       __readonlydata_guideXOS_guideXOS_DefaultApps_WebBrowser__MapChar 000000001008eed0     guideXOS.obj
 0004:00012ef8       ?__GCSTATICS@guideXOS_Program@@__PreInitData 000000001008eef8     guideXOS.obj
 0004:00012f60       ?__GCSTATICS@guideXOS_Allocator@@__PreInitData 000000001008ef60     guideXOS.obj
 0004:00012f78       ?__GCSTATICS@guideXOS_guideXOS_Kernel_Drivers_DisplayManager@@__PreInitData 000000001008ef78     guideXOS.obj
 0004:00012f88       ?__GCSTATICS@guideXOS_guideXOS_Kernel_Drivers_PS2Mouse@@__PreInitData 000000001008ef88     guideXOS.obj
 0004:00012f90       ?__GCSTATICS@guideXOS_guideXOS_Kernel_Drivers_SATA@@__PreInitData 000000001008ef90     guideXOS.obj
 0004:00012f98       ?__GCSTATICS@guideXOS_guideXOS_OS_Session@@__PreInitData 000000001008ef98     guideXOS.obj
 0004:00012fa8       ?__GCSTATICS@guideXOS_guideXOS_OS_SystemMode@@__PreInitData 000000001008efa8     guideXOS.obj
 0004:00012fb0       ?__GCSTATICS@guideXOS_guideXOS_GUI_Desktop@@__PreInitData 000000001008efb0     guideXOS.obj
 0004:00013000       ?__GCSTATICS@guideXOS_guideXOS_GUI_SpecialEffects@@__PreInitData 000000001008f000     guideXOS.obj
 0004:00013010       ?__GCSTATICS@guideXOS_guideXOS_DockableWidgets_Clock@@__PreInitData 000000001008f010     guideXOS.obj
 0004:00013020       ?__GCSTATICS@guideXOS_Program___c@@__PreInitData 000000001008f020     guideXOS.obj
 0004:00013030       ?__GCSTATICS@guideXOS_guideXOS_Modules_ModuleManager___c@@__PreInitData 000000001008f030     guideXOS.obj
 0004:00013040       ?__GCSTATICS@guideXOS_guideXOS_GUI_DisplayOptions___c@@__PreInitData 000000001008f040     guideXOS.obj
 0004:00013070       __GCStaticEEType_01        000000001008f070     guideXOS.obj
 0004:00013098       __GCStaticEEType_011       000000001008f098     guideXOS.obj
 0004:000130c0       __GCStaticEEType_0111      000000001008f0c0     guideXOS.obj
 0004:000130e8       __GCStaticEEType_01111     000000001008f0e8     guideXOS.obj
 0004:00013110       __GCStaticEEType_011111    000000001008f110     guideXOS.obj
 0004:00013138       __GCStaticEEType_0111111   000000001008f138     guideXOS.obj
 0004:00013160       __GCStaticEEType_01111111111 000000001008f160     guideXOS.obj
 0004:00013188       __GCStaticEEType_01111111111111 000000001008f188     guideXOS.obj
 0004:00013198       ??_7guideXOS__Module_@@6B@ 000000001008f198     guideXOS.obj
 0004:000131b8       ??_7Boxed_Bool@@6B@        000000001008f1b8     guideXOS.obj
 0004:000131e0       ??_7Boxed_Char@@6B@        000000001008f1e0     guideXOS.obj
 0004:00013208       ??_7Boxed_guideXOS_System_ConsoleKeyInfo@@6B@ 000000001008f208     guideXOS.obj
 0004:00013230       ??_7Boxed_Int16@@6B@       000000001008f230     guideXOS.obj
 0004:00013258       ??_7Boxed_Single@@6B@      000000001008f258     guideXOS.obj
 0004:00013280       ??_7Boxed_guideXOS_System_Drawing_Point@@6B@ 000000001008f280     guideXOS.obj
 0004:000132a8       ??_7guideXOS_guideXOS_Console@@6B@ 000000001008f2a8     guideXOS.obj
 0004:000132d0       ??_7guideXOS_guideXOS_FS_CloudFS@@6B@ 000000001008f2d0     guideXOS.obj
 0004:000132f8       ??_7Boxed_guideXOS_guideXOS_Kernel_Drivers_Resolution@@6B@ 000000001008f2f8     guideXOS.obj
 0004:00013320       ??_7Boxed_guideXOS_guideXOS_OS_FirewallMode@@6B@ 000000001008f320     guideXOS.obj
 0004:00013348       ??_7guideXOS_guideXOS_Misc_USBDevice@@6B@ 000000001008f348     guideXOS.obj
 0004:00013370       ??_7Boxed_guideXOS_guideXOS_GUI_RecentProgramEntry@@6B@ 000000001008f370     guideXOS.obj
 0004:00013390       ??_7Boxed_guideXOS_guideXOS_GUI_RecentDocumentEntry@@6B@ 000000001008f390     guideXOS.obj
 0004:000133b0       ??_7Boxed_guideXOS_guideXOS_GUI_WindowEffectType@@6B@ 000000001008f3b0     guideXOS.obj
 0004:000133d8       ??_7Boxed_guideXOS_Allocator_OwnerSnapshot@@6B@ 000000001008f3d8     guideXOS.obj
 0004:000133f8       ??_7Boxed_guideXOS_IDT_IDTEntry@@6B@ 000000001008f3f8     guideXOS.obj
 0004:00013420       ??_7Boxed_guideXOS_guideXOS_NETv4_ARPCache@@6B@ 000000001008f420     guideXOS.obj
 0004:00013448       ??_7Boxed_guideXOS_guideXOS_FS_EXT2_DirEnt@@6B@ 000000001008f448     guideXOS.obj
 0004:00013468       ??_7Boxed_guideXOS_guideXOS_Modules_ModuleManager_ModuleEntry@@6B@ 000000001008f468     guideXOS.obj
 0004:00013488       ??_7Boxed_guideXOS_guideXOS_Misc_TrueTypeFont_Point@@6B@ 000000001008f488     guideXOS.obj
 0004:000134b0       ??_7Boxed_guideXOS_guideXOS_GUI_GXMScriptWindow_Btn@@6B@ 000000001008f4b0     guideXOS.obj
 0004:000134d0       ??_7Boxed_guideXOS_guideXOS_GUI_GXMScriptWindow_Label@@6B@ 000000001008f4d0     guideXOS.obj
 0004:000134f0       ??_7Boxed_guideXOS_guideXOS_GUI_PinnedManager_Pinned@@6B@ 000000001008f4f0     guideXOS.obj
 0004:00013510       ??_7Boxed_guideXOS_guideXOS_GUI_StartMenu_AppEntry@@6B@ 000000001008f510     guideXOS.obj
 0004:00013530       ??_7Boxed_guideXOS_guideXOS_GUI_USBDrives_Entry@@6B@ 000000001008f530     guideXOS.obj
 0004:00013550       ??_7Boxed_guideXOS_guideXOS_DefaultApps_Devices_Row@@6B@ 000000001008f550     guideXOS.obj
 0004:00013570       ??_7Boxed_guideXOS_guideXOS_DefaultApps_DiskManager_Part@@6B@ 000000001008f570     guideXOS.obj
 0004:00013590       __GenericInstance_Bool     000000001008f590     guideXOS.obj
 0004:000135a0       __GenericInstance_UInt8    000000001008f5a0     guideXOS.obj
 0004:000135b0       __GenericInstance_Char     000000001008f5b0     guideXOS.obj
 0004:000135c0       __GenericInstance_guideXOS_System_ConsoleKeyInfo 000000001008f5c0     guideXOS.obj
 0004:000135d0       __GenericInstance_Int32    000000001008f5d0     guideXOS.obj
 0004:000135e0       __GenericInstance_String   000000001008f5e0     guideXOS.obj
 0004:000135f0       __GenericInstance_UInt32   000000001008f5f0     guideXOS.obj
 0004:00013600       __GenericInstance_UInt64   000000001008f600     guideXOS.obj
 0004:00013610       __GenericInstance_guideXOS_System_Drawing_Image 000000001008f610     guideXOS.obj
 0004:00013620       __GenericInstance_guideXOS_System_Drawing_Point 000000001008f620     guideXOS.obj
 0004:00013630       __GenericInstance_guideXOS_guideXOS_FS_FileInfo 000000001008f630     guideXOS.obj
 0004:00013640       __GenericInstance_guideXOS_guideXOS_Kernel_Drivers_IDEDevice 000000001008f640     guideXOS.obj
 0004:00013650       __GenericInstance_guideXOS_guideXOS_Kernel_Drivers_PCIDevice 000000001008f650     guideXOS.obj
 0004:00013660       __GenericInstance_guideXOS_guideXOS_Misc_Thread 000000001008f660     guideXOS.obj
 0004:00013670       __GenericInstance_guideXOS_guideXOS_Misc_USBDevice 000000001008f670     guideXOS.obj
 0004:00013680       __GenericInstance_guideXOS_guideXOS_GUI_DockableWidget 000000001008f680     guideXOS.obj
 0004:00013690       __GenericInstance_guideXOS_guideXOS_GUI_RecentProgramEntry 000000001008f690     guideXOS.obj
 0004:000136a0       __GenericInstance_guideXOS_guideXOS_GUI_RecentDocumentEntry 000000001008f6a0     guideXOS.obj
 0004:000136b0       __GenericInstance_guideXOS_guideXOS_GUI_Window 000000001008f6b0     guideXOS.obj
 0004:000136c0       __GenericInstance_guideXOS_guideXOS_GUI_Widgets_Button 000000001008f6c0     guideXOS.obj
 0004:000136d0       __GenericInstance_guideXOS_guideXOS_DefaultApps_DriveInfo 000000001008f6d0     guideXOS.obj
 0004:000136e0       __GenericInstance_guideXOS_guideXOS_DefaultApps_PaintTool 000000001008f6e0     guideXOS.obj
 0004:000136f0       __GenericInstance_guideXOS_guideXOS_NETv4_UDPClient 000000001008f6f0     guideXOS.obj
 0004:00013700       __GenericInstance_guideXOS_guideXOS_NETv4_TCPClient 000000001008f700     guideXOS.obj
 0004:00013710       __GenericInstance_guideXOS_guideXOS_NETv4_ARPCache 000000001008f710     guideXOS.obj
 0004:00013720       __GenericInstance_guideXOS_guideXOS_Network_Http_Header 000000001008f720     guideXOS.obj
 0004:00013730       __GenericInstance_guideXOS_guideXOS_FS_EXT2_DirEnt 000000001008f730     guideXOS.obj
 0004:00013740       __GenericInstance_guideXOS_guideXOS_Kernel_Drivers_SATA_SATADevice 000000001008f740     guideXOS.obj
 0004:00013750       __GenericInstance_guideXOS_guideXOS_Modules_ModuleManager_ModuleEntry 000000001008f750     guideXOS.obj
 0004:00013760       __GenericInstance_guideXOS_guideXOS_Misc_TrueTypeFont_TableRecord 000000001008f760     guideXOS.obj
 0004:00013770       __GenericInstance_guideXOS_guideXOS_Misc_TrueTypeFont_Point 000000001008f770     guideXOS.obj
 0004:00013780       __GenericInstance_guideXOS_guideXOS_Misc_Interrupts_INT 000000001008f780     guideXOS.obj
 0004:00013790       __GenericInstance_guideXOS_guideXOS_GUI_GXMScriptWindow_Btn 000000001008f790     guideXOS.obj
 0004:000137a0       __GenericInstance_guideXOS_guideXOS_GUI_GXMScriptWindow_Label 000000001008f7a0     guideXOS.obj
 0004:000137b0       __GenericInstance_guideXOS_guideXOS_GUI_GXMScriptWindow_TextBoxDef 000000001008f7b0     guideXOS.obj
 0004:000137c0       __GenericInstance_guideXOS_guideXOS_GUI_GXMScriptWindow_ListViewDef 000000001008f7c0     guideXOS.obj
 0004:000137d0       __GenericInstance_guideXOS_guideXOS_GUI_GXMScriptWindow_DropdownDef 000000001008f7d0     guideXOS.obj
 0004:000137e0       __GenericInstance_guideXOS_guideXOS_GUI_GXMScriptWindow_Callback 000000001008f7e0     guideXOS.obj
 0004:000137f0       __GenericInstance_guideXOS_guideXOS_GUI_PinnedManager_Pinned 000000001008f7f0     guideXOS.obj
 0004:00013800       __GenericInstance_guideXOS_guideXOS_GUI_WorkspaceSwitcher_WindowSnapshot 000000001008f800     guideXOS.obj
 0004:00013810       __GenericInstance_guideXOS_guideXOS_DefaultApps_DiskManager_DiskEntry 000000001008f810     guideXOS.obj
 0004:00013820       __GenericInstance_guideXOS_guideXOS_DefaultApps_HDInstaller_DiskInfo 000000001008f820     guideXOS.obj
 0004:00013830       __GenericInstance_guideXOS_guideXOS_DefaultApps_IRCNetworks_Entry 000000001008f830     guideXOS.obj
 0004:00013840       __GenericInstance_guideXOS_guideXOS_DefaultApps_WebBrowser_BrowserTab 000000001008f840     guideXOS.obj
 0004:00013850       __GenericInstance_guideXOS_guideXOS_DefaultApps_WebBrowser_RenderElement 000000001008f850     guideXOS.obj
 0004:00013860       __GenericInstance___Array<UInt8> 000000001008f860     guideXOS.obj
 0004:00013870       __GenericInstance_String__Variance___2 000000001008f870     guideXOS.obj
 0004:00013888       __GenericInstance_UInt32__Variance___2 000000001008f888     guideXOS.obj
 0004:000138a0       __GenericInstance_Char_Int32 000000001008f8a0     guideXOS.obj
 0004:000138b8       __GenericInstance_Char_guideXOS_System_Drawing_Image 000000001008f8b8     guideXOS.obj
 0004:000138d0       __GenericInstance_String_guideXOS_guideXOS_Misc_TrueTypeFont_TableRecord 000000001008f8d0     guideXOS.obj
 0004:000138e8       __GenericInstance_guideXOS_guideXOS_GUI_Widgets_Button_Int32 000000001008f8e8     guideXOS.obj
 0004:00013900       __GenericInstance_guideXOS_guideXOS_GUI_Widgets_Button_guideXOS_guideXOS_DefaultApps_PaintTool 000000001008f900     guideXOS.obj
 0004:00013918       __GenericInstance_Int32_guideXOS_System_Drawing_Image__Variance___2_1 000000001008f918     guideXOS.obj
 0004:00013938       __GenericInstance_String_Bool_UInt32_UInt32_Bool__Variance___2_2_2_2_1 000000001008f938     guideXOS.obj
 0004:0001396d       __ehinfo_guideXOS_Program__SMain 000000001008f96d     guideXOS.obj
 0004:00013a0b       __ehinfo_guideXOS_Program__RefreshCachedIcons 000000001008fa0b     guideXOS.obj
 0004:00013a15       __ehinfo_guideXOS_Allocator__Free 000000001008fa15     guideXOS.obj
 0004:00013a1b       __ehinfo_guideXOS_Allocator__Allocate_0 000000001008fa1b     guideXOS.obj
 0004:00013a21       __ehinfo_guideXOS_Allocator__GetOwnerBytes 000000001008fa21     guideXOS.obj
 0004:00013a27       __ehinfo_guideXOS_Allocator__GetOwnerListSnapshot 000000001008fa27     guideXOS.obj
 0004:00013a2d       __ehinfo_guideXOS_Internal_Runtime_CompilerHelpers_ThrowHelpers__Error 000000001008fa2d     guideXOS.obj
 0004:00013a33       __ehinfo_String__Format    000000001008fa33     guideXOS.obj
 0004:00013a39       __ehinfo_guideXOS_System_StringPool___cctor 000000001008fa39     guideXOS.obj
 0004:00013a44       __ehinfo_guideXOS_System_Drawing_Image__ResizeImage 000000001008fa44     guideXOS.obj
 0004:00013a4b       __ehinfo_guideXOS_guideXOS_Console__add_OnWrite 000000001008fa4b     guideXOS.obj
 0004:00013a50       __ehinfo_guideXOS_guideXOS_FS_FAT__FindEntryLoc 000000001008fa50     guideXOS.obj
 0004:00013a5d       __ehinfo_guideXOS_guideXOS_FS_FAT__Format 000000001008fa5d     guideXOS.obj
 0004:00013a6c       __ehinfo_guideXOS_guideXOS_Kernel_Drivers_DisplayManager__EnsureSvga 000000001008fa6c     guideXOS.obj
 0004:00013a76       __ehinfo_guideXOS_guideXOS_Kernel_Drivers_DisplayManager__TrySetResolution 000000001008fa76     guideXOS.obj
 0004:00013a89       __ehinfo_guideXOS_guideXOS_Kernel_Drivers_DisplayManager__SaveResolution 000000001008fa89     guideXOS.obj
 0004:00013a93       __ehinfo_guideXOS_guideXOS_OS_Configuration__LoadConfiguration 000000001008fa93     guideXOS.obj
 0004:00013a9b       __ehinfo_guideXOS_guideXOS_OS_Configuration__SaveConfiguration 000000001008fa9b     guideXOS.obj
 0004:00013aa3       __ehinfo_guideXOS_guideXOS_OS_Configuration__LoadUISettings 000000001008faa3     guideXOS.obj
 0004:00013aad       __ehinfo_guideXOS_guideXOS_OS_Configuration__SaveUISettings 000000001008faad     guideXOS.obj
 0004:00013ab7       __ehinfo_guideXOS_guideXOS_OS_SystemMode__DetectMode 000000001008fab7     guideXOS.obj
 0004:00013ac1       __ehinfo_guideXOS_guideXOS_OS_SystemMode__CanWriteSettings 000000001008fac1     guideXOS.obj
 0004:00013acb       __ehinfo_guideXOS_guideXOS_Misc_BootSplash__Tick 000000001008facb     guideXOS.obj
 0004:00013ad5       __ehinfo_guideXOS_guideXOS_Misc_Panic__DrawStackTrace 000000001008fad5     guideXOS.obj
 0004:00013adf       __ehinfo_guideXOS_guideXOS_Misc_Panic__DrawSystemInfo 000000001008fadf     guideXOS.obj
 0004:00013af3       __ehinfo_guideXOS_guideXOS_Misc_Panic__DrawTimingAnalysis 000000001008faf3     guideXOS.obj
 0004:00013afd       __ehinfo_guideXOS_guideXOS_Misc_Panic__DrawControlRegisters 000000001008fafd     guideXOS.obj
 0004:00013b1a       __ehinfo_guideXOS_guideXOS_Misc_Panic__DrawText 000000001008fb1a     guideXOS.obj
 0004:00013b22       __ehinfo_guideXOS_guideXOS_Misc_Panic__DrawTextLarge 000000001008fb22     guideXOS.obj
 0004:00013b2b       __ehinfo_guideXOS_guideXOS_Misc_SVG___ctor 000000001008fb2b     guideXOS.obj
 0004:00013b35       __ehinfo_guideXOS_guideXOS_Misc_Thread__Start 000000001008fb35     guideXOS.obj
 0004:00013b3b       __ehinfo_guideXOS_guideXOS_Misc_Thread__Start_0 000000001008fb3b     guideXOS.obj
 0004:00013b41       __ehinfo_guideXOS_guideXOS_GUI_BackgroundRotationManager__Initialize 000000001008fb41     guideXOS.obj
 0004:00013b4c       __ehinfo_guideXOS_guideXOS_GUI_BackgroundRotationManager__RotateToNext 000000001008fb4c     guideXOS.obj
 0004:00013b56       __ehinfo_guideXOS_guideXOS_GUI_Desktop__IsBootFromUSB 000000001008fb56     guideXOS.obj
 0004:00013b5f       __ehinfo_guideXOS_guideXOS_GUI_DisplayOptions__LoadBackgrounds 000000001008fb5f     guideXOS.obj
 0004:00013b74       __ehinfo_guideXOS_guideXOS_GUI_DisplayOptions__OnInput 000000001008fb74     guideXOS.obj
 0004:00013b7f       __ehinfo_guideXOS_guideXOS_GUI_DisplayOptions__ApplyFont 000000001008fb7f     guideXOS.obj
 0004:00013b89       __ehinfo_guideXOS_guideXOS_GUI_GXMScriptWindow__SaveFileAction 000000001008fb89     guideXOS.obj
 0004:00013b94       __ehinfo_guideXOS_guideXOS_GUI_GXMScriptWindow__LoadFileAction 000000001008fb94     guideXOS.obj
 0004:00013b9e       __ehinfo_guideXOS_guideXOS_GUI_GXMScriptWindow__SaveTextFromTextBox 000000001008fb9e     guideXOS.obj
 0004:00013ba9       __ehinfo_guideXOS_guideXOS_GUI_GXMScriptWindow__LoadTextIntoTextBox 000000001008fba9     guideXOS.obj
 0004:00013bb3       __ehinfo_guideXOS_guideXOS_GUI_GXMScriptWindow__LoadAndExecuteScript 000000001008fbb3     guideXOS.obj
 0004:00013bbd       __ehinfo_guideXOS_guideXOS_GUI_GXMScriptWindow___OpenSaveDialogForTextBox_b__40_0 000000001008fbbd     guideXOS.obj
 0004:00013bc7       __ehinfo_guideXOS_guideXOS_GUI_GXMScriptWindow___OpenOpenDialogForTextBox_b__41_0 000000001008fbc7     guideXOS.obj
 0004:00013bd1       __ehinfo_guideXOS_guideXOS_GUI_IconsPrivate__LoadIcon 000000001008fbd1     guideXOS.obj
 0004:00013bdb       __ehinfo_guideXOS_guideXOS_GUI_NetworkConfigurationDialog__ApplyConfiguration 000000001008fbdb     guideXOS.obj
 0004:00013bee       __ehinfo_guideXOS_guideXOS_GUI_SpecialEffects__RenderEffect 000000001008fbee     guideXOS.obj
 0004:00013bf8       __ehinfo_guideXOS_guideXOS_GUI_USBFiles__LoadIcons 000000001008fbf8     guideXOS.obj
 0004:00013c07       __ehinfo_guideXOS_guideXOS_GUI_USBFiles__InitLocalFS 000000001008fc07     guideXOS.obj
 0004:00013c16       __ehinfo_guideXOS_guideXOS_GUI_USBFiles__RefreshEntries 000000001008fc16     guideXOS.obj
 0004:00013c1c       __ehinfo_guideXOS_guideXOS_GUI_Window__OnDraw 000000001008fc1c     guideXOS.obj
 0004:00013c27       __ehinfo_guideXOS_guideXOS_GUI_Window__FreeOwnerMemory 000000001008fc27     guideXOS.obj
 0004:00013c36       __ehinfo_guideXOS_guideXOS_GUI_WorkspaceManager__SwitchTo 000000001008fc36     guideXOS.obj
 0004:00013c3c       __ehinfo_guideXOS_guideXOS_DockableWidgets_Clock__DrawHand 000000001008fc3c     guideXOS.obj
 0004:00013c42       __ehinfo_guideXOS_guideXOS_DefaultApps_ComputerFiles__LoadIcons 000000001008fc42     guideXOS.obj
 0004:00013c52       __ehinfo_guideXOS_guideXOS_DefaultApps_Devices__BuildRows 000000001008fc52     guideXOS.obj
 0004:00013c5c       __ehinfo_guideXOS_guideXOS_DefaultApps_DiskManager__ProbeOnce 000000001008fc5c     guideXOS.obj
 0004:00013c6b       __ehinfo_guideXOS_guideXOS_DefaultApps_DiskManager__DetectFsAtLBA 000000001008fc6b     guideXOS.obj
 0004:00013c80       __ehinfo_guideXOS_guideXOS_DefaultApps_DiskManager__WithDisk 000000001008fc80     guideXOS.obj
 0004:00013c85       __ehinfo_guideXOS_guideXOS_DefaultApps_DiskManager__TrySetFS_Auto 000000001008fc85     guideXOS.obj
 0004:00013c8e       __ehinfo_guideXOS_guideXOS_DefaultApps_DiskManager__TrySetFS_FAT 000000001008fc8e     guideXOS.obj
 0004:00013c97       __ehinfo_guideXOS_guideXOS_DefaultApps_DiskManager__TrySetFS_TAR 000000001008fc97     guideXOS.obj
 0004:00013ca0       __ehinfo_guideXOS_guideXOS_DefaultApps_DiskManager__TrySetFS_EXT2 000000001008fca0     guideXOS.obj
 0004:00013ca9       __ehinfo_guideXOS_guideXOS_DefaultApps_DiskManager__TryFormatFAT 000000001008fca9     guideXOS.obj
 0004:00013cb3       __ehinfo_guideXOS_guideXOS_DefaultApps_DiskManager__TryCreatePartitionLargestFree 000000001008fcb3     guideXOS.obj
 0004:00013cbe       __ehinfo_guideXOS_guideXOS_DefaultApps_FConsole__HandleCommand 000000001008fcbe     guideXOS.obj
 0004:00013d04       __ehinfo_guideXOS_guideXOS_DefaultApps_GUISamples__BuildSamples 000000001008fd04     guideXOS.obj
 0004:00013d0e       __ehinfo_guideXOS_guideXOS_DefaultApps_GUISamples__CreateNewDemo 000000001008fd0e     guideXOS.obj
 0004:00013d18       __ehinfo_guideXOS_guideXOS_DefaultApps_GUISamples__ReloadDemos 000000001008fd18     guideXOS.obj
 0004:00013d21       __ehinfo_guideXOS_guideXOS_DefaultApps_HDInstaller__DrawInstallingStep 000000001008fd21     guideXOS.obj
 0004:00013d2b       __ehinfo_guideXOS_guideXOS_DefaultApps_HDInstaller__DrawCompleteStep 000000001008fd2b     guideXOS.obj
 0004:00013d35       __ehinfo_guideXOS_guideXOS_DefaultApps_HDInstaller__CheckUSBInstallMediaPresent 000000001008fd35     guideXOS.obj
 0004:00013d3f       __ehinfo_guideXOS_guideXOS_DefaultApps_HDInstaller__CreateBootConfiguration 000000001008fd3f     guideXOS.obj
 0004:00013d49       __ehinfo_guideXOS_guideXOS_DefaultApps_HDInstaller__CopySystemFiles 000000001008fd49     guideXOS.obj
 0004:00013d63       __ehinfo_guideXOS_guideXOS_DefaultApps_HDInstaller__CopyBootFiles 000000001008fd63     guideXOS.obj
 0004:00013d72       __ehinfo_guideXOS_guideXOS_DefaultApps_HDInstaller__GatherAllFiles 000000001008fd72     guideXOS.obj
 0004:00013d7c       __ehinfo_guideXOS_guideXOS_DefaultApps_HDInstaller__EnsureDirectoryExists 000000001008fd7c     guideXOS.obj
 0004:00013d84       __ehinfo_guideXOS_guideXOS_DefaultApps_HDInstaller__InstallBootloader 000000001008fd84     guideXOS.obj
 0004:00013d94       __ehinfo_guideXOS_guideXOS_DefaultApps_Paint___ctor 000000001008fd94     guideXOS.obj
 0004:00013da4       __ehinfo_guideXOS_guideXOS_DefaultApps_Paint__OnDraw 000000001008fda4     guideXOS.obj
 0004:00013dd6       __ehinfo_guideXOS_guideXOS_DefaultApps_Paint__OnInput 000000001008fdd6     guideXOS.obj
 0004:00013de0       __ehinfo_guideXOS_guideXOS_DefaultApps_Paint__HandleToolbarClick 000000001008fde0     guideXOS.obj
 0004:00013e07       __ehinfo_guideXOS_guideXOS_DefaultApps_Paint__HandleDrawing 000000001008fe07     guideXOS.obj
 0004:00013e11       __ehinfo_guideXOS_guideXOS_DefaultApps_Paint__FinishDrawing 000000001008fe11     guideXOS.obj
 0004:00013e1b       __ehinfo_guideXOS_guideXOS_DefaultApps_Paint__DrawPixel 000000001008fe1b     guideXOS.obj
 0004:00013e24       __ehinfo_guideXOS_guideXOS_DefaultApps_Paint__DrawBrush 000000001008fe24     guideXOS.obj
 0004:00013e2e       __ehinfo_guideXOS_guideXOS_DefaultApps_Paint__DrawBrushLine 000000001008fe2e     guideXOS.obj
 0004:00013e38       __ehinfo_guideXOS_guideXOS_DefaultApps_Paint__DrawThickLine 000000001008fe38     guideXOS.obj
 0004:00013e40       __ehinfo_guideXOS_guideXOS_DefaultApps_Paint__DrawThickRectangle 000000001008fe40     guideXOS.obj
 0004:00013e4a       __ehinfo_guideXOS_guideXOS_DefaultApps_Paint__DrawThickCircle 000000001008fe4a     guideXOS.obj
 0004:00013e5e       __ehinfo_guideXOS_guideXOS_DefaultApps_Paint__FloodFill 000000001008fe5e     guideXOS.obj
 0004:00013e68       __ehinfo_guideXOS_guideXOS_DefaultApps_Paint__AddColorButton 000000001008fe68     guideXOS.obj
 0004:00013e72       __ehinfo_guideXOS_guideXOS_DefaultApps_Paint__AddToolButton 000000001008fe72     guideXOS.obj
 0004:00013e7c       __ehinfo_guideXOS_guideXOS_DefaultApps_Paint__AddSizeButton 000000001008fe7c     guideXOS.obj
 0004:00013e86       __ehinfo_guideXOS_guideXOS_DefaultApps_TaskManager__DrawProcesses 000000001008fe86     guideXOS.obj
 0004:00013e99       __ehinfo_guideXOS_guideXOS_DefaultApps_TTFFontDemo__LoadTTFFonts 000000001008fe99     guideXOS.obj
 0004:00013ea3       __ehinfo_guideXOS_guideXOS_DefaultApps_TTFFontDemo__OnDraw 000000001008fea3     guideXOS.obj
 0004:00013eae       __ehinfo_guideXOS_Program___c___SMain_b__22_0 000000001008feae     guideXOS.obj
 0004:00013eb8       __ehinfo_guideXOS_guideXOS_GUI_DisplayOptions___c___OnInput_b__40_0 000000001008feb8     guideXOS.obj
 0004:00013ec2       __ehinfo_guideXOS_guideXOS_DefaultApps_DiskManager___c__DisplayClass38_0___ReadMBRForEntry_b__0 000000001008fec2     guideXOS.obj
 0004:00013ed1       __optionalfields_??_7guideXOS_System_Array_EmptyArray_1@@6B@ 000000001008fed1     guideXOS.obj
 0004:00013ed3       __optionalfields_??_7guideXOS_System_Array@@6B@ 000000001008fed3     guideXOS.obj
 0004:00013ed9       __optionalfields_??_7Boxed_UInt8@@6B@ 000000001008fed9     guideXOS.obj
 0004:00013edb       __optionalfields_??_7guideXOS_System_Delegate@@6B@ 000000001008fedb     guideXOS.obj
 0004:00013edf       __optionalfields_??_7guideXOS_System_Enum@@6B@ 000000001008fedf     guideXOS.obj
 0004:00013ee6       __optionalfields_??_7Boxed_Int32@@6B@ 000000001008fee6     guideXOS.obj
 0004:00013ee8       __optionalfields_??_7guideXOS_System_MulticastDelegate@@6B@ 000000001008fee8     guideXOS.obj
 0004:00013eec       __optionalfields_??_7Object@@6B@ 000000001008feec     guideXOS.obj
 0004:00013eef       __optionalfields_??_7Boxed_UInt16@@6B@ 000000001008feef     guideXOS.obj
 0004:00013ef1       __optionalfields_??_7Boxed_UInt32@@6B@ 000000001008fef1     guideXOS.obj
 0004:00013ef3       __optionalfields_??_7guideXOS_System_ValueType@@6B@ 000000001008fef3     guideXOS.obj
 0004:00013efa       __optionalfields_??_7guideXOS_System_Drawing_Image@@6B@ 000000001008fefa     guideXOS.obj
 0004:00013efc       __optionalfields_??_7guideXOS_guideXOS_Animation@@6B@ 000000001008fefc     guideXOS.obj
 0004:00013efe       __optionalfields_??_7guideXOS_guideXOS_FS_Disk@@6B@ 000000001008fefe     guideXOS.obj
 0004:00013f05       __optionalfields_??_7guideXOS_guideXOS_FS_FAT@@6B@ 000000001008ff05     guideXOS.obj
 0004:00013f07       __optionalfields_??_7guideXOS_guideXOS_FS_FileInfo@@6B@ 000000001008ff07     guideXOS.obj
 0004:00013f09       __optionalfields_??_7guideXOS_guideXOS_FS_FileSystem@@6B@ 000000001008ff09     guideXOS.obj
 0004:00013f10       __optionalfields_??_7guideXOS_guideXOS_Kernel_Drivers_IDEDevice@@6B@ 000000001008ff10     guideXOS.obj
 0004:00013f12       __optionalfields_??_7guideXOS_guideXOS_Kernel_Drivers_PCIDevice@@6B@ 000000001008ff12     guideXOS.obj
 0004:00013f14       __optionalfields_??_7guideXOS_guideXOS_Kernel_Drivers_VMWareSVGAII@@6B@ 000000001008ff14     guideXOS.obj
 0004:00013f16       __optionalfields_??_7guideXOS_guideXOS_Misc_Bitmap@@6B@ 000000001008ff16     guideXOS.obj
 0004:00013f18       __optionalfields_??_7guideXOS_guideXOS_Misc_IFont@@6B@ 000000001008ff18     guideXOS.obj
 0004:00013f1a       __optionalfields_??_7guideXOS_guideXOS_Misc_PNG@@6B@ 000000001008ff1a     guideXOS.obj
 0004:00013f1c       __optionalfields_??_7guideXOS_guideXOS_Misc_SVG@@6B@ 000000001008ff1c     guideXOS.obj
 0004:00013f1e       __optionalfields_??_7guideXOS_guideXOS_Misc_Thread@@6B@ 000000001008ff1e     guideXOS.obj
 0004:00013f20       __optionalfields_??_7guideXOS_guideXOS_GUI_ColorPicker@@6B@ 000000001008ff20     guideXOS.obj
 0004:00013f22       __optionalfields_??_7guideXOS_guideXOS_GUI_DockableWidget@@6B@ 000000001008ff22     guideXOS.obj
 0004:00013f26       __optionalfields_??_7guideXOS_guideXOS_GUI_GXMScriptWindow@@6B@ 000000001008ff26     guideXOS.obj
 0004:00013f28       __optionalfields_??_7guideXOS_guideXOS_GUI_NetworkConfigurationDialog@@6B@ 000000001008ff28     guideXOS.obj
 0004:00013f2a       __optionalfields_??_7guideXOS_guideXOS_GUI_Notify@@6B@ 000000001008ff2a     guideXOS.obj
 0004:00013f2c       __optionalfields_??_7guideXOS_guideXOS_GUI_OnScreenKeyboard@@6B@ 000000001008ff2c     guideXOS.obj
 0004:00013f30       __optionalfields_??_7guideXOS_guideXOS_GUI_OpenDialog@@6B@ 000000001008ff30     guideXOS.obj
 0004:00013f32       __optionalfields_??_7guideXOS_guideXOS_GUI_RightMenu@@6B@ 000000001008ff32     guideXOS.obj
 0004:00013f34       __optionalfields_??_7guideXOS_guideXOS_GUI_SaveChangesDialog@@6B@ 000000001008ff34     guideXOS.obj
 0004:00013f36       __optionalfields_??_7guideXOS_guideXOS_GUI_SaveDialog@@6B@ 000000001008ff36     guideXOS.obj
 0004:00013f38       __optionalfields_??_7guideXOS_guideXOS_GUI_StartMenu@@6B@ 000000001008ff38     guideXOS.obj
 0004:00013f3a       __optionalfields_??_7guideXOS_guideXOS_GUI_TaskbarMenu@@6B@ 000000001008ff3a     guideXOS.obj
 0004:00013f3c       __optionalfields_??_7guideXOS_guideXOS_GUI_USBFiles@@6B@ 000000001008ff3c     guideXOS.obj
 0004:00013f3e       __optionalfields_??_7guideXOS_guideXOS_GUI_VisualEffectsSettings@@6B@ 000000001008ff3e     guideXOS.obj
 0004:00013f40       __optionalfields_??_7guideXOS_guideXOS_GUI_WidgetContainer@@6B@ 000000001008ff40     guideXOS.obj
 0004:00013f42       __optionalfields_??_7guideXOS_guideXOS_GUI_WidgetToggleButton@@6B@ 000000001008ff42     guideXOS.obj
 0004:00013f44       __optionalfields_??_7guideXOS_guideXOS_GUI_Window@@6B@ 000000001008ff44     guideXOS.obj
 0004:00013f4a       __optionalfields_??_7guideXOS_guideXOS_GUI_WorkspaceSwitcher@@6B@ 000000001008ff4a     guideXOS.obj
 0004:00013f4c       __optionalfields_??_7guideXOS_guideXOS_GUI_Widgets_Button@@6B@ 000000001008ff4c     guideXOS.obj
 0004:00013f4e       __optionalfields_??_7guideXOS_guideXOS_GUI_Base_WindowBase@@6B@ 000000001008ff4e     guideXOS.obj
 0004:00013f54       __optionalfields_??_7guideXOS_guideXOS_DefaultApps_Calculator@@6B@ 000000001008ff54     guideXOS.obj
 0004:00013f56       __optionalfields_??_7guideXOS_guideXOS_DefaultApps_ComputerFiles@@6B@ 000000001008ff56     guideXOS.obj
 0004:00013f58       __optionalfields_??_7guideXOS_guideXOS_DefaultApps_Devices@@6B@ 000000001008ff58     guideXOS.obj
 0004:00013f5a       __optionalfields_??_7guideXOS_guideXOS_DefaultApps_DiskManager@@6B@ 000000001008ff5a     guideXOS.obj
 0004:00013f5c       __optionalfields_??_7guideXOS_guideXOS_DefaultApps_DriveInfo@@6B@ 000000001008ff5c     guideXOS.obj
 0004:00013f5e       __optionalfields_??_7guideXOS_guideXOS_DefaultApps_FConsole@@6B@ 000000001008ff5e     guideXOS.obj
 0004:00013f60       __optionalfields_??_7guideXOS_guideXOS_DefaultApps_FirewallWindow@@6B@ 000000001008ff60     guideXOS.obj
 0004:00013f62       __optionalfields_??_7guideXOS_guideXOS_DefaultApps_HDInstaller@@6B@ 000000001008ff62     guideXOS.obj
 0004:00013f64       __optionalfields_??_7guideXOS_guideXOS_DefaultApps_IRCNetworks@@6B@ 000000001008ff64     guideXOS.obj
 0004:00013f66       __optionalfields_??_7guideXOS_guideXOS_DefaultApps_nexIRC@@6B@ 000000001008ff66     guideXOS.obj
 0004:00013f68       __optionalfields_??_7guideXOS_guideXOS_DefaultApps_Notepad@@6B@ 000000001008ff68     guideXOS.obj
 0004:00013f6a       __optionalfields_??_7Boxed_guideXOS_guideXOS_DefaultApps_PaintTool@@6B@ 000000001008ff6a     guideXOS.obj
 0004:00013f6c       __optionalfields_??_7guideXOS_guideXOS_DefaultApps_TaskManager@@6B@ 000000001008ff6c     guideXOS.obj
 0004:00013f6e       __optionalfields_??_7guideXOS_guideXOS_DefaultApps_USBDrives@@6B@ 000000001008ff6e     guideXOS.obj
 0004:00013f70       __optionalfields_??_7guideXOS_guideXOS_DefaultApps_WebBrowser@@6B@ 000000001008ff70     guideXOS.obj
 0004:00013f72       __optionalfields_??_7guideXOS_guideXOS_NETv4_TCPClient@@6B@ 000000001008ff72     guideXOS.obj
 0004:00013f74       __optionalfields_??_7guideXOS_guideXOS_Network_Http_Response@@6B@ 000000001008ff74     guideXOS.obj
 0004:00013f76       __optionalfields_??_7guideXOS_guideXOS_Kernel_Drivers_SATA_SATADevice@@6B@ 000000001008ff76     guideXOS.obj
 0004:00013f78       __optionalfields_??_7guideXOS_guideXOS_Misc_TrueTypeFont_TableRecord@@6B@ 000000001008ff78     guideXOS.obj
 0004:00013f7a       __optionalfields_??_7guideXOS_guideXOS_Misc_TrueTypeFont_GlyphOutline@@6B@ 000000001008ff7a     guideXOS.obj
 0004:00013f7c       __optionalfields_??_7guideXOS_guideXOS_Misc_Interrupts_INT@@6B@ 000000001008ff7c     guideXOS.obj
 0004:00013f7e       __optionalfields_??_7guideXOS_guideXOS_GUI_GXMScriptWindow_TextBoxDef@@6B@ 000000001008ff7e     guideXOS.obj
 0004:00013f80       __optionalfields_??_7guideXOS_guideXOS_GUI_GXMScriptWindow_DropdownDef@@6B@ 000000001008ff80     guideXOS.obj
 0004:00013f82       __optionalfields_??_7guideXOS_guideXOS_GUI_WorkspaceSwitcher_WindowSnapshot@@6B@ 000000001008ff82     guideXOS.obj
 0004:00013f84       __optionalfields_??_7guideXOS_guideXOS_DockableWidgets_Monitor_Chart@@6B@ 000000001008ff84     guideXOS.obj
 0004:00013f86       __optionalfields_??_7guideXOS_guideXOS_DefaultApps_DiskManager_DiskEntry@@6B@ 000000001008ff86     guideXOS.obj
 0004:00013f88       __optionalfields_??_7guideXOS_guideXOS_DefaultApps_HDInstaller_DiskInfo@@6B@ 000000001008ff88     guideXOS.obj
 0004:00013f8a       __optionalfields_??_7guideXOS_guideXOS_DefaultApps_IRCNetworks_Entry@@6B@ 000000001008ff8a     guideXOS.obj
 0004:00013f8c       __optionalfields_??_7guideXOS_guideXOS_DefaultApps_WebBrowser_BrowserTab@@6B@ 000000001008ff8c     guideXOS.obj
 0004:00013f8e       __optionalfields_??_7guideXOS_guideXOS_DefaultApps_WebBrowser_RenderElement@@6B@ 000000001008ff8e     guideXOS.obj
 0004:00013f90       __optionalfields_??_7guideXOS_System_Collections_Generic_List_1<Bool>@@6B@ 000000001008ff90     guideXOS.obj
 0004:00013f92       __optionalfields_??_7guideXOS_System_Collections_Generic_List_1<UInt8>@@6B@ 000000001008ff92     guideXOS.obj
 0004:00013f94       __optionalfields_??_7guideXOS_System_Collections_Generic_List_1<Char>@@6B@ 000000001008ff94     guideXOS.obj
 0004:00013f96       __optionalfields_??_7guideXOS_System_Collections_Generic_List_1<Int32>@@6B@ 000000001008ff96     guideXOS.obj
 0004:00013f98       __optionalfields_??_7guideXOS_System_Collections_Generic_List_1<String>@@6B@ 000000001008ff98     guideXOS.obj
 0004:00013f9a       __optionalfields_??_7guideXOS_System_Array_EmptyArray_1<String>@@6B@ 000000001008ff9a     guideXOS.obj
 0004:00013f9e       __optionalfields_??_7guideXOS_System_Collections_Generic_List_1<UInt32>@@6B@ 000000001008ff9e     guideXOS.obj
 0004:00013fa0       __optionalfields_??_7guideXOS_System_Collections_Generic_List_1<UInt64>@@6B@ 000000001008ffa0     guideXOS.obj
 0004:00013fa2       __optionalfields_??_7guideXOS_System_Collections_Generic_List_1<guideXOS_System_Drawing_Image>@@6B@ 000000001008ffa2     guideXOS.obj
 0004:00013fa4       __optionalfields_??_7guideXOS_System_Collections_Generic_List_1<guideXOS_System_Drawing_Point>@@6B@ 000000001008ffa4     guideXOS.obj
 0004:00013fa6       __optionalfields_??_7guideXOS_System_Collections_Generic_List_1<guideXOS_guideXOS_FS_FileInfo>@@6B@ 000000001008ffa6     guideXOS.obj
 0004:00013fa8       __optionalfields_??_7guideXOS_System_Collections_Generic_List_1<guideXOS_guideXOS_Kernel_Drivers_IDEDevice>@@6B@ 000000001008ffa8     guideXOS.obj
 0004:00013faa       __optionalfields_??_7guideXOS_System_Collections_Generic_List_1<guideXOS_guideXOS_Kernel_Drivers_PCIDevice>@@6B@ 000000001008ffaa     guideXOS.obj
 0004:00013fac       __optionalfields_??_7guideXOS_System_Collections_Generic_List_1<guideXOS_guideXOS_Misc_Thread>@@6B@ 000000001008ffac     guideXOS.obj
 0004:00013fae       __optionalfields_??_7guideXOS_System_Collections_Generic_List_1<guideXOS_guideXOS_Misc_USBDevice>@@6B@ 000000001008ffae     guideXOS.obj
 0004:00013fb0       __optionalfields_??_7guideXOS_System_Collections_Generic_List_1<guideXOS_guideXOS_GUI_DockableWidget>@@6B@ 000000001008ffb0     guideXOS.obj
 0004:00013fb2       __optionalfields_??_7guideXOS_System_Collections_Generic_List_1<guideXOS_guideXOS_GUI_RecentProgramEntry>@@6B@ 000000001008ffb2     guideXOS.obj
 0004:00013fb4       __optionalfields_??_7guideXOS_System_Collections_Generic_List_1<guideXOS_guideXOS_GUI_RecentDocumentEntry>@@6B@ 000000001008ffb4     guideXOS.obj
 0004:00013fb6       __optionalfields_??_7guideXOS_System_Collections_Generic_List_1<guideXOS_guideXOS_GUI_Window>@@6B@ 000000001008ffb6     guideXOS.obj
 0004:00013fb8       __optionalfields_??_7guideXOS_System_Collections_Generic_List_1<guideXOS_guideXOS_GUI_Widgets_Button>@@6B@ 000000001008ffb8     guideXOS.obj
 0004:00013fba       __optionalfields_??_7guideXOS_System_Collections_Generic_List_1<guideXOS_guideXOS_DefaultApps_DriveInfo>@@6B@ 000000001008ffba     guideXOS.obj
 0004:00013fbc       __optionalfields_??_7guideXOS_System_Collections_Generic_List_1<guideXOS_guideXOS_DefaultApps_PaintTool>@@6B@ 000000001008ffbc     guideXOS.obj
 0004:00013fbe       __optionalfields_??_7guideXOS_System_Collections_Generic_List_1<guideXOS_guideXOS_NETv4_UDPClient>@@6B@ 000000001008ffbe     guideXOS.obj
 0004:00013fc0       __optionalfields_??_7guideXOS_System_Collections_Generic_List_1<guideXOS_guideXOS_NETv4_TCPClient>@@6B@ 000000001008ffc0     guideXOS.obj
 0004:00013fc2       __optionalfields_??_7guideXOS_System_Collections_Generic_List_1<guideXOS_guideXOS_NETv4_ARPCache>@@6B@ 000000001008ffc2     guideXOS.obj
 0004:00013fc4       __optionalfields_??_7guideXOS_System_Collections_Generic_List_1<guideXOS_guideXOS_Network_Http_Header>@@6B@ 000000001008ffc4     guideXOS.obj
 0004:00013fc6       __optionalfields_??_7guideXOS_System_Collections_Generic_List_1<guideXOS_guideXOS_FS_EXT2_DirEnt>@@6B@ 000000001008ffc6     guideXOS.obj
 0004:00013fc8       __optionalfields_??_7guideXOS_System_Collections_Generic_List_1<guideXOS_guideXOS_Kernel_Drivers_SATA_SATADevice>@@6B@ 000000001008ffc8     guideXOS.obj
 0004:00013fca       __optionalfields_??_7guideXOS_System_Collections_Generic_List_1<guideXOS_guideXOS_Modules_ModuleManager_ModuleEntry>@@6B@ 000000001008ffca     guideXOS.obj
 0004:00013fcc       __optionalfields_??_7guideXOS_System_Collections_Generic_List_1<guideXOS_guideXOS_Misc_TrueTypeFont_TableRecord>@@6B@ 000000001008ffcc     guideXOS.obj
 0004:00013fce       __optionalfields_??_7guideXOS_System_Collections_Generic_List_1<guideXOS_guideXOS_Misc_TrueTypeFont_Point>@@6B@ 000000001008ffce     guideXOS.obj
 0004:00013fd0       __optionalfields_??_7guideXOS_System_Collections_Generic_List_1<guideXOS_guideXOS_Misc_Interrupts_INT>@@6B@ 000000001008ffd0     guideXOS.obj
 0004:00013fd2       __optionalfields_??_7guideXOS_System_Collections_Generic_List_1<guideXOS_guideXOS_GUI_GXMScriptWindow_Btn>@@6B@ 000000001008ffd2     guideXOS.obj
 0004:00013fd4       __optionalfields_??_7guideXOS_System_Collections_Generic_List_1<guideXOS_guideXOS_GUI_GXMScriptWindow_Label>@@6B@ 000000001008ffd4     guideXOS.obj
 0004:00013fd6       __optionalfields_??_7guideXOS_System_Collections_Generic_List_1<guideXOS_guideXOS_GUI_GXMScriptWindow_TextBoxDef>@@6B@ 000000001008ffd6     guideXOS.obj
 0004:00013fd8       __optionalfields_??_7guideXOS_System_Collections_Generic_List_1<guideXOS_guideXOS_GUI_GXMScriptWindow_ListViewDef>@@6B@ 000000001008ffd8     guideXOS.obj
 0004:00013fda       __optionalfields_??_7guideXOS_System_Collections_Generic_List_1<guideXOS_guideXOS_GUI_GXMScriptWindow_DropdownDef>@@6B@ 000000001008ffda     guideXOS.obj
 0004:00013fdc       __optionalfields_??_7guideXOS_System_Collections_Generic_List_1<guideXOS_guideXOS_GUI_GXMScriptWindow_Callback>@@6B@ 000000001008ffdc     guideXOS.obj
 0004:00013fde       __optionalfields_??_7guideXOS_System_Collections_Generic_List_1<guideXOS_guideXOS_GUI_PinnedManager_Pinned>@@6B@ 000000001008ffde     guideXOS.obj
 0004:00013fe0       __optionalfields_??_7guideXOS_System_Collections_Generic_List_1<guideXOS_guideXOS_GUI_WorkspaceSwitcher_WindowSnapshot>@@6B@ 000000001008ffe0     guideXOS.obj
 0004:00013fe2       __optionalfields_??_7guideXOS_System_Collections_Generic_List_1<guideXOS_guideXOS_DefaultApps_DiskManager_DiskEntry>@@6B@ 000000001008ffe2     guideXOS.obj
 0004:00013fe4       __optionalfields_??_7guideXOS_System_Collections_Generic_List_1<guideXOS_guideXOS_DefaultApps_HDInstaller_DiskInfo>@@6B@ 000000001008ffe4     guideXOS.obj
 0004:00013fe6       __optionalfields_??_7guideXOS_System_Collections_Generic_List_1<guideXOS_guideXOS_DefaultApps_IRCNetworks_Entry>@@6B@ 000000001008ffe6     guideXOS.obj
 0004:00013fe8       __optionalfields_??_7guideXOS_System_Collections_Generic_List_1<guideXOS_guideXOS_DefaultApps_WebBrowser_BrowserTab>@@6B@ 000000001008ffe8     guideXOS.obj
 0004:00013fea       __optionalfields_??_7guideXOS_System_Collections_Generic_List_1<guideXOS_guideXOS_DefaultApps_WebBrowser_RenderElement>@@6B@ 000000001008ffea     guideXOS.obj
 0004:00013fec       __optionalfields_??_7guideXOS_System_Collections_Generic_List_1<__Array<UInt8>>@@6B@ 000000001008ffec     guideXOS.obj
 0004:00013fee       __optionalfields_??_7Boxed_Bool@@6B@ 000000001008ffee     guideXOS.obj
 0004:00013ff0       __optionalfields_??_7Boxed_Char@@6B@ 000000001008fff0     guideXOS.obj
 0004:00013ff2       __optionalfields_??_7Boxed_guideXOS_System_ConsoleKeyInfo@@6B@ 000000001008fff2     guideXOS.obj
 0004:00013ff4       __optionalfields_??_7Boxed_Int16@@6B@ 000000001008fff4     guideXOS.obj
 0004:00013ff6       __optionalfields_??_7Boxed_Single@@6B@ 000000001008fff6     guideXOS.obj
 0004:00013ff8       __optionalfields_??_7Boxed_guideXOS_System_Drawing_Point@@6B@ 000000001008fff8     guideXOS.obj
 0004:00013ffa       __optionalfields_??_7guideXOS_guideXOS_Console@@6B@ 000000001008fffa     guideXOS.obj
 0004:00013ffe       __optionalfields_??_7guideXOS_guideXOS_FS_CloudFS@@6B@ 000000001008fffe     guideXOS.obj
 0004:00014000       __optionalfields_??_7Boxed_guideXOS_guideXOS_Kernel_Drivers_Resolution@@6B@ 0000000010090000     guideXOS.obj
 0004:00014002       __optionalfields_??_7Boxed_guideXOS_guideXOS_OS_FirewallMode@@6B@ 0000000010090002     guideXOS.obj
 0004:00014004       __optionalfields_??_7guideXOS_guideXOS_Misc_USBDevice@@6B@ 0000000010090004     guideXOS.obj
 0004:00014006       __optionalfields_??_7Boxed_guideXOS_guideXOS_GUI_WindowEffectType@@6B@ 0000000010090006     guideXOS.obj
 0004:00014008       __optionalfields_??_7Boxed_guideXOS_IDT_IDTEntry@@6B@ 0000000010090008     guideXOS.obj
 0004:0001400a       __optionalfields_??_7Boxed_guideXOS_guideXOS_NETv4_ARPCache@@6B@ 000000001009000a     guideXOS.obj
 0004:0001400c       __optionalfields_??_7Boxed_guideXOS_guideXOS_Misc_TrueTypeFont_Point@@6B@ 000000001009000c     guideXOS.obj
 0004:00014010       __GenericDict_guideXOS_System_Collections_Generic_Dictionary_2<Char__guideXOS_System_Drawing_Image> 0000000010090010     guideXOS.obj
 0004:00014018       __GenericDict_guideXOS_System_Action_1<String> 0000000010090018     guideXOS.obj
 0004:00014018       __GenericDict_guideXOS_System_Array_1<Object> 0000000010090018     guideXOS.obj
 0004:00014018       __GenericDict_guideXOS_System_Array_1<String> 0000000010090018     guideXOS.obj
 0004:00014018       __GenericDict_guideXOS_System_Collections_Generic_List_1<String> 0000000010090018     guideXOS.obj
 0004:00014018       __GenericDict_guideXOS_System_Func_2<Int32__guideXOS_System_Drawing_Image> 0000000010090018     guideXOS.obj
 0004:00014028       __GenericDict_guideXOS_System_Array_EmptyArray_1<String> 0000000010090028     guideXOS.obj
 0004:00014040       __GenericDict_guideXOS_System_Collections_Generic_Dictionary_2<String__guideXOS_guideXOS_Misc_TrueTypeFont_TableRecord> 0000000010090040     guideXOS.obj
 0004:00014040       __GenericDict_guideXOS_System_Func_5<String__Bool__UInt32__UInt32__Bool> 0000000010090040     guideXOS.obj
 0004:00014050       __GenericDict_guideXOS_System_Array_1<guideXOS_System_Drawing_Image> 0000000010090050     guideXOS.obj
 0004:00014050       __GenericDict_guideXOS_System_Collections_Generic_List_1<guideXOS_System_Drawing_Image> 0000000010090050     guideXOS.obj
 0004:00014060       __GenericDict_guideXOS_System_Array_1<guideXOS_guideXOS_FS_FileInfo> 0000000010090060     guideXOS.obj
 0004:00014060       __GenericDict_guideXOS_System_Collections_Generic_List_1<guideXOS_guideXOS_FS_FileInfo> 0000000010090060     guideXOS.obj
 0004:00014070       __GenericDict_guideXOS_System_Array_1<guideXOS_guideXOS_Kernel_Drivers_IDEDevice> 0000000010090070     guideXOS.obj
 0004:00014070       __GenericDict_guideXOS_System_Collections_Generic_List_1<guideXOS_guideXOS_Kernel_Drivers_IDEDevice> 0000000010090070     guideXOS.obj
 0004:00014080       __GenericDict_guideXOS_System_Array_1<guideXOS_guideXOS_Kernel_Drivers_PCIDevice> 0000000010090080     guideXOS.obj
 0004:00014080       __GenericDict_guideXOS_System_Collections_Generic_List_1<guideXOS_guideXOS_Kernel_Drivers_PCIDevice> 0000000010090080     guideXOS.obj
 0004:00014090       __GenericDict_guideXOS_System_Array_1<guideXOS_guideXOS_Misc_Thread> 0000000010090090     guideXOS.obj
 0004:00014090       __GenericDict_guideXOS_System_Collections_Generic_List_1<guideXOS_guideXOS_Misc_Thread> 0000000010090090     guideXOS.obj
 0004:000140a0       __GenericDict_guideXOS_System_Array_1<guideXOS_guideXOS_Misc_USBDevice> 00000000100900a0     guideXOS.obj
 0004:000140a0       __GenericDict_guideXOS_System_Collections_Generic_List_1<guideXOS_guideXOS_Misc_USBDevice> 00000000100900a0     guideXOS.obj
 0004:000140b0       __GenericDict_guideXOS_System_Array_1<guideXOS_guideXOS_GUI_DockableWidget> 00000000100900b0     guideXOS.obj
 0004:000140b0       __GenericDict_guideXOS_System_Collections_Generic_List_1<guideXOS_guideXOS_GUI_DockableWidget> 00000000100900b0     guideXOS.obj
 0004:000140c0       __GenericDict_guideXOS_System_Array_1<guideXOS_guideXOS_GUI_Window> 00000000100900c0     guideXOS.obj
 0004:000140c0       __GenericDict_guideXOS_System_Collections_Generic_List_1<guideXOS_guideXOS_GUI_Window> 00000000100900c0     guideXOS.obj
 0004:000140d0       __GenericDict_guideXOS_System_Array_1<guideXOS_guideXOS_GUI_Widgets_Button> 00000000100900d0     guideXOS.obj
 0004:000140d0       __GenericDict_guideXOS_System_Collections_Generic_List_1<guideXOS_guideXOS_GUI_Widgets_Button> 00000000100900d0     guideXOS.obj
 0004:000140e0       __GenericDict_guideXOS_System_Collections_Generic_Dictionary_2<guideXOS_guideXOS_GUI_Widgets_Button__Int32> 00000000100900e0     guideXOS.obj
 0004:000140e8       __GenericDict_guideXOS_System_Collections_Generic_Dictionary_2<guideXOS_guideXOS_GUI_Widgets_Button__guideXOS_guideXOS_DefaultApps_PaintTool> 00000000100900e8     guideXOS.obj
 0004:000140f0       __GenericDict_guideXOS_System_Array_1<guideXOS_guideXOS_DefaultApps_DriveInfo> 00000000100900f0     guideXOS.obj
 0004:000140f0       __GenericDict_guideXOS_System_Collections_Generic_List_1<guideXOS_guideXOS_DefaultApps_DriveInfo> 00000000100900f0     guideXOS.obj
 0004:00014100       __GenericDict_guideXOS_System_Array_1<guideXOS_guideXOS_NETv4_UDPClient> 0000000010090100     guideXOS.obj
 0004:00014100       __GenericDict_guideXOS_System_Collections_Generic_List_1<guideXOS_guideXOS_NETv4_UDPClient> 0000000010090100     guideXOS.obj
 0004:00014110       __GenericDict_guideXOS_System_Array_1<guideXOS_guideXOS_NETv4_TCPClient> 0000000010090110     guideXOS.obj
 0004:00014110       __GenericDict_guideXOS_System_Collections_Generic_List_1<guideXOS_guideXOS_NETv4_TCPClient> 0000000010090110     guideXOS.obj
 0004:00014120       __GenericDict_guideXOS_System_Array_1<guideXOS_guideXOS_Network_Http_Header> 0000000010090120     guideXOS.obj
 0004:00014120       __GenericDict_guideXOS_System_Collections_Generic_List_1<guideXOS_guideXOS_Network_Http_Header> 0000000010090120     guideXOS.obj
 0004:00014130       __GenericDict_guideXOS_System_Array_1<guideXOS_guideXOS_Kernel_Drivers_SATA_SATADevice> 0000000010090130     guideXOS.obj
 0004:00014130       __GenericDict_guideXOS_System_Collections_Generic_List_1<guideXOS_guideXOS_Kernel_Drivers_SATA_SATADevice> 0000000010090130     guideXOS.obj
 0004:00014140       __GenericDict_guideXOS_System_Array_1<guideXOS_guideXOS_Misc_TrueTypeFont_TableRecord> 0000000010090140     guideXOS.obj
 0004:00014140       __GenericDict_guideXOS_System_Collections_Generic_List_1<guideXOS_guideXOS_Misc_TrueTypeFont_TableRecord> 0000000010090140     guideXOS.obj
 0004:00014150       __GenericDict_guideXOS_System_Array_1<guideXOS_guideXOS_Misc_Interrupts_INT> 0000000010090150     guideXOS.obj
 0004:00014150       __GenericDict_guideXOS_System_Collections_Generic_List_1<guideXOS_guideXOS_Misc_Interrupts_INT> 0000000010090150     guideXOS.obj
 0004:00014160       __GenericDict_guideXOS_System_Array_1<guideXOS_guideXOS_GUI_GXMScriptWindow_TextBoxDef> 0000000010090160     guideXOS.obj
 0004:00014160       __GenericDict_guideXOS_System_Collections_Generic_List_1<guideXOS_guideXOS_GUI_GXMScriptWindow_TextBoxDef> 0000000010090160     guideXOS.obj
 0004:00014170       __GenericDict_guideXOS_System_Array_1<guideXOS_guideXOS_GUI_GXMScriptWindow_ListViewDef> 0000000010090170     guideXOS.obj
 0004:00014170       __GenericDict_guideXOS_System_Collections_Generic_List_1<guideXOS_guideXOS_GUI_GXMScriptWindow_ListViewDef> 0000000010090170     guideXOS.obj
 0004:00014180       __GenericDict_guideXOS_System_Array_1<guideXOS_guideXOS_GUI_GXMScriptWindow_DropdownDef> 0000000010090180     guideXOS.obj
 0004:00014180       __GenericDict_guideXOS_System_Collections_Generic_List_1<guideXOS_guideXOS_GUI_GXMScriptWindow_DropdownDef> 0000000010090180     guideXOS.obj
 0004:00014190       __GenericDict_guideXOS_System_Array_1<guideXOS_guideXOS_GUI_GXMScriptWindow_Callback> 0000000010090190     guideXOS.obj
 0004:00014190       __GenericDict_guideXOS_System_Collections_Generic_List_1<guideXOS_guideXOS_GUI_GXMScriptWindow_Callback> 0000000010090190     guideXOS.obj
 0004:000141a0       __GenericDict_guideXOS_System_Array_1<guideXOS_guideXOS_GUI_WorkspaceSwitcher_WindowSnapshot> 00000000100901a0     guideXOS.obj
 0004:000141a0       __GenericDict_guideXOS_System_Collections_Generic_List_1<guideXOS_guideXOS_GUI_WorkspaceSwitcher_WindowSnapshot> 00000000100901a0     guideXOS.obj
 0004:000141b0       __GenericDict_guideXOS_System_Array_1<guideXOS_guideXOS_DefaultApps_DiskManager_DiskEntry> 00000000100901b0     guideXOS.obj
 0004:000141b0       __GenericDict_guideXOS_System_Collections_Generic_List_1<guideXOS_guideXOS_DefaultApps_DiskManager_DiskEntry> 00000000100901b0     guideXOS.obj
 0004:000141c0       __GenericDict_guideXOS_System_Array_1<guideXOS_guideXOS_DefaultApps_HDInstaller_DiskInfo> 00000000100901c0     guideXOS.obj
 0004:000141c0       __GenericDict_guideXOS_System_Collections_Generic_List_1<guideXOS_guideXOS_DefaultApps_HDInstaller_DiskInfo> 00000000100901c0     guideXOS.obj
 0004:000141d0       __GenericDict_guideXOS_System_Array_1<guideXOS_guideXOS_DefaultApps_IRCNetworks_Entry> 00000000100901d0     guideXOS.obj
 0004:000141d0       __GenericDict_guideXOS_System_Collections_Generic_List_1<guideXOS_guideXOS_DefaultApps_IRCNetworks_Entry> 00000000100901d0     guideXOS.obj
 0004:000141e0       __GenericDict_guideXOS_System_Array_1<guideXOS_guideXOS_DefaultApps_WebBrowser_BrowserTab> 00000000100901e0     guideXOS.obj
 0004:000141e0       __GenericDict_guideXOS_System_Collections_Generic_List_1<guideXOS_guideXOS_DefaultApps_WebBrowser_BrowserTab> 00000000100901e0     guideXOS.obj
 0004:000141f0       __GenericDict_guideXOS_System_Array_1<guideXOS_guideXOS_DefaultApps_WebBrowser_RenderElement> 00000000100901f0     guideXOS.obj
 0004:000141f0       __GenericDict_guideXOS_System_Collections_Generic_List_1<guideXOS_guideXOS_DefaultApps_WebBrowser_RenderElement> 00000000100901f0     guideXOS.obj
 0004:00014200       __GenericDict_guideXOS_System_Array_1<__Array<UInt8>> 0000000010090200     guideXOS.obj
 0004:00014200       __GenericDict_guideXOS_System_Collections_Generic_List_1<__Array<UInt8>> 0000000010090200     guideXOS.obj
 0004:00014210       __GenericDict_guideXOS_System_Collections_Generic_Queue_1<__Array<UInt8>> 0000000010090210     guideXOS.obj
 0004:00014274       __volatile_metadata        0000000010090274     <linker-defined>
 0004:00014400       _unwind0guideXOS_Program__SMain 0000000010090400     guideXOS.obj
 0004:000146d0       _unwind1guideXOS_Program__SMain 00000000100906d0     guideXOS.obj
 0004:000146e8       _unwind2guideXOS_Program__SMain 00000000100906e8     guideXOS.obj
 0004:00014700       _unwind3guideXOS_Program__SMain 0000000010090700     guideXOS.obj
 0004:00014718       _unwind4guideXOS_Program__SMain 0000000010090718     guideXOS.obj
 0004:00014730       _unwind5guideXOS_Program__SMain 0000000010090730     guideXOS.obj
 0004:00014748       _unwind6guideXOS_Program__SMain 0000000010090748     guideXOS.obj
 0004:00014760       _unwind7guideXOS_Program__SMain 0000000010090760     guideXOS.obj
 0004:00014778       _unwind8guideXOS_Program__SMain 0000000010090778     guideXOS.obj
 0004:00014790       _unwind9guideXOS_Program__SMain 0000000010090790     guideXOS.obj
 0004:000147a8       _unwind10guideXOS_Program__SMain 00000000100907a8     guideXOS.obj
 0004:000147c0       _unwind11guideXOS_Program__SMain 00000000100907c0     guideXOS.obj
 0004:000147d8       _unwind12guideXOS_Program__SMain 00000000100907d8     guideXOS.obj
 0004:000147f0       _unwind13guideXOS_Program__SMain 00000000100907f0     guideXOS.obj
 0004:00014808       _unwind14guideXOS_Program__SMain 0000000010090808     guideXOS.obj
 0004:00014820       _unwind15guideXOS_Program__SMain 0000000010090820     guideXOS.obj
 0004:00014838       _unwind16guideXOS_Program__SMain 0000000010090838     guideXOS.obj
 0004:00014850       _unwind17guideXOS_Program__SMain 0000000010090850     guideXOS.obj
 0004:00014868       _unwind0guideXOS_Program__RefreshCachedIcons 0000000010090868     guideXOS.obj
 0004:000148e4       _unwind1guideXOS_Program__RefreshCachedIcons 00000000100908e4     guideXOS.obj
 0004:000148fc       _unwind0guideXOS_Allocator__FindOrAddOwner 00000000100908fc     guideXOS.obj
 0004:00014948       _unwind0guideXOS_Allocator__Initialize 0000000010090948     guideXOS.obj
 0004:00014974       _unwind0guideXOS_Allocator__get_MemoryInUse 0000000010090974     guideXOS.obj
 0004:00014980       _unwind0guideXOS_Allocator__GetPageIndexStart 0000000010090980     guideXOS.obj
 0004:00014990       _unwind0guideXOS_Allocator__Free 0000000010090990     guideXOS.obj
 0004:00014a14       _unwind1guideXOS_Allocator__Free 0000000010090a14     guideXOS.obj
 0004:00014a2c       _unwind0guideXOS_Allocator__SuspiciousSize 0000000010090a2c     guideXOS.obj
 0004:00014a34       _unwind0guideXOS_Allocator__Allocate_0 0000000010090a34     guideXOS.obj
 0004:00014b08       _unwind1guideXOS_Allocator__Allocate_0 0000000010090b08     guideXOS.obj
 0004:00014b20       _unwind0guideXOS_Allocator__Reallocate 0000000010090b20     guideXOS.obj
 0004:00014b48       _unwind0guideXOS_Allocator__ClearAllocate_0 0000000010090b48     guideXOS.obj
 0004:00014b68       _unwind0guideXOS_Allocator__GetTagBytes 0000000010090b68     guideXOS.obj
 0004:00014b74       _unwind0guideXOS_Allocator__GetOwnerBytes 0000000010090b74     guideXOS.obj
 0004:00014bc4       _unwind1guideXOS_Allocator__GetOwnerBytes 0000000010090bc4     guideXOS.obj
 0004:00014bdc       _unwind0guideXOS_Allocator__GetOwnerListSnapshot 0000000010090bdc     guideXOS.obj
 0004:00014c34       _unwind1guideXOS_Allocator__GetOwnerListSnapshot 0000000010090c34     guideXOS.obj
 0004:00014c4c       _unwind0guideXOS_GDT__FillEntry 0000000010090c4c     guideXOS.obj
 0004:00014c54       _unwind0guideXOS_GDT__Initialise 0000000010090c54     guideXOS.obj
 0004:00014c74       _unwind0guideXOS_GDT__SetKernelStack 0000000010090c74     guideXOS.obj
 0004:00014c80       _unwind0guideXOS_IDT__Initialize 0000000010090c80     guideXOS.obj
 0004:00014cac       _unwind0guideXOS_IDT__AllowUserSoftwareInterrupt 0000000010090cac     guideXOS.obj
 0004:00014cc4       _unwind0guideXOS_IDT__intr_handler 0000000010090cc4     guideXOS.obj
 0004:00014d04       _unwind0guideXOS_Native__Load_GDT 0000000010090d04     guideXOS.obj
 0004:00014d24       _unwind0guideXOS_Native__Load_IDT 0000000010090d24     guideXOS.obj
 0004:00014d44       _unwind0guideXOS_Internal_Runtime_EEType__get_IsArray 0000000010090d44     guideXOS.obj
 0004:00014d4c       _unwind0guideXOS_Internal_Runtime_EEType__get_ArrayRank 0000000010090d4c     guideXOS.obj
 0004:00014d54       _unwind0guideXOS_Internal_Runtime_CompilerHelpers_StartupCodeHelpers____imp_GetCurrentThreadId 0000000010090d54     guideXOS.obj
 0004:00014d5c       _unwind0guideXOS_Internal_Runtime_CompilerHelpers_StartupCodeHelpers____CheckForDebuggerJustMyCode 0000000010090d5c     guideXOS.obj
 0004:00014d64       _unwind0guideXOS_Internal_Runtime_CompilerHelpers_StartupCodeHelpers__FailFast 0000000010090d64     guideXOS.obj
 0004:00014d70       _unwind0guideXOS_Internal_Runtime_CompilerHelpers_StartupCodeHelpers__MemSet 0000000010090d70     guideXOS.obj
 0004:00014d7c       _unwind0guideXOS_Internal_Runtime_CompilerHelpers_StartupCodeHelpers__MemCpy 0000000010090d7c     guideXOS.obj
 0004:00014d88       _unwind0guideXOS_Internal_Runtime_CompilerHelpers_StartupCodeHelpers__RhpFallbackFailFast 0000000010090d88     guideXOS.obj
 0004:00014d94       _unwind0guideXOS_Internal_Runtime_CompilerHelpers_StartupCodeHelpers__RhpReversePInvoke2 0000000010090d94     guideXOS.obj
 0004:00014d9c       _unwind0guideXOS_Internal_Runtime_CompilerHelpers_StartupCodeHelpers__RhpReversePInvokeReturn2 0000000010090d9c     guideXOS.obj
 0004:00014da4       _unwind0guideXOS_Internal_Runtime_CompilerHelpers_StartupCodeHelpers__RhpReversePInvoke 0000000010090da4     guideXOS.obj
 0004:00014dac       _unwind0guideXOS_Internal_Runtime_CompilerHelpers_StartupCodeHelpers__RhpReversePInvokeReturn 0000000010090dac     guideXOS.obj
 0004:00014db4       _unwind0guideXOS_Internal_Runtime_CompilerHelpers_StartupCodeHelpers__RhpPinvoke 0000000010090db4     guideXOS.obj
 0004:00014dbc       _unwind0guideXOS_Internal_Runtime_CompilerHelpers_StartupCodeHelpers__RhpPinvokeReturn 0000000010090dbc     guideXOS.obj
 0004:00014dc4       _unwind0guideXOS_Internal_Runtime_CompilerHelpers_StartupCodeHelpers__RhpNewFast 0000000010090dc4     guideXOS.obj
 0004:00014de4       _unwind0guideXOS_Internal_Runtime_CompilerHelpers_StartupCodeHelpers__RhpNewArray 0000000010090de4     guideXOS.obj
 0004:00014e0c       _unwind0guideXOS_Internal_Runtime_CompilerHelpers_StartupCodeHelpers__RhpAssignRef 0000000010090e0c     guideXOS.obj
 0004:00014e14       _unwind0guideXOS_Internal_Runtime_CompilerHelpers_StartupCodeHelpers__RhpByRefAssignRef 0000000010090e14     guideXOS.obj
 0004:00014e1c       _unwind0guideXOS_Internal_Runtime_CompilerHelpers_StartupCodeHelpers__RhpCheckedAssignRef 0000000010090e1c     guideXOS.obj
 0004:00014e24       _unwind0guideXOS_Internal_Runtime_CompilerHelpers_StartupCodeHelpers__RhpStelemRef 0000000010090e24     guideXOS.obj
 0004:00014e30       _unwind0guideXOS_Internal_Runtime_CompilerHelpers_StartupCodeHelpers__RhTypeCast_IsInstanceOfClass 0000000010090e30     guideXOS.obj
 0004:00014e48       _unwind0guideXOS_Internal_Runtime_CompilerHelpers_StartupCodeHelpers__InitializeModules 0000000010090e48     guideXOS.obj
 0004:00014e8c       _unwind0guideXOS_Internal_Runtime_CompilerHelpers_StartupCodeHelpers__InitializeStatics 0000000010090e8c     guideXOS.obj
 0004:00014ec0       _unwind0guideXOS_Internal_Runtime_CompilerHelpers_SynchronizedMethodHelpers__MonitorEnterStatic 0000000010090ec0     guideXOS.obj
 0004:00014ec8       _unwind0guideXOS_Internal_Runtime_CompilerHelpers_SynchronizedMethodHelpers__MonitorExitStatic 0000000010090ec8     guideXOS.obj
 0004:00014ed0       _unwind0guideXOS_Internal_Runtime_CompilerHelpers_ThrowHelpers__Error 0000000010090ed0     guideXOS.obj
 0004:00014ef8       _unwind1guideXOS_Internal_Runtime_CompilerHelpers_ThrowHelpers__Error 0000000010090ef8     guideXOS.obj
 0004:00014f10       _unwind0guideXOS_Internal_Runtime_CompilerHelpers_ThrowHelpers__ThrowOverflowException 0000000010090f10     guideXOS.obj
 0004:00014f24       _unwind0guideXOS_Internal_Runtime_CompilerHelpers_ThrowHelpers__ThrowIndexOutOfRangeException 0000000010090f24     guideXOS.obj
 0004:00014f38       _unwind0UInt8__ToString    0000000010090f38     guideXOS.obj
 0004:00014f44       _unwind0guideXOS_System_Delegate__InitializeOpenStaticThunk 0000000010090f44     guideXOS.obj
 0004:00014f54       _unwind0guideXOS_System_Delegate__InitializeClosedInstance 0000000010090f54     guideXOS.obj
 0004:00014f60       _unwind0Int32__ToString    0000000010090f60     guideXOS.obj
 0004:00014f6c       _unwind0Int32__op_Implicit 0000000010090f6c     guideXOS.obj
 0004:00014f74       _unwind0Int64__ToString    0000000010090f74     guideXOS.obj
 0004:00014f90       _unwind0guideXOS_System_Math__Sqrt 0000000010090f90     guideXOS.obj
 0004:00014f9c       _unwind0guideXOS_System_Math__Ceiling 0000000010090f9c     guideXOS.obj
 0004:00014fa4       _unwind0guideXOS_System_MathF__Floor 0000000010090fa4     guideXOS.obj
 0004:00014fac       _unwind0Object___ctor      0000000010090fac     guideXOS.obj
 0004:00014fb4       _unwind0Object__ToString   0000000010090fb4     guideXOS.obj
 0004:00014fbc       _unwind0Object__Dispose    0000000010090fbc     guideXOS.obj
 0004:00014fd8       _unwind0String__FromASCII  0000000010090fd8     guideXOS.obj
 0004:00014ff4       _unwind0String__Ctor       0000000010090ff4     guideXOS.obj
 0004:00015000       _unwind0String__Ctor_1     0000000010091000     guideXOS.obj
 0004:00015010       _unwind0String__Ctor_2     0000000010091010     guideXOS.obj
 0004:00015034       _unwind0String__LastIndexOf 0000000010091034     guideXOS.obj
 0004:0001504c       _unwind0String__Ctor_3     000000001009104c     guideXOS.obj
 0004:0001505c       _unwind0String__ToString   000000001009105c     guideXOS.obj
 0004:00015064       _unwind0String__Equals_0   0000000010091064     guideXOS.obj
 0004:00015088       _unwind0String__Concat     0000000010091088     guideXOS.obj
 0004:000150c4       _unwind0String__IndexOf    00000000100910c4     guideXOS.obj
 0004:000150dc       _unwind0String__Concat_0   00000000100910dc     guideXOS.obj
 0004:00015100       _unwind0String__Concat_1   0000000010091100     guideXOS.obj
 0004:00015130       _unwind0String__Concat_2   0000000010091130     guideXOS.obj
 0004:0001515c       _unwind0String__Format     000000001009115c     guideXOS.obj
 0004:000151f4       _unwind1String__Format     00000000100911f4     guideXOS.obj
 0004:0001520c       _unwind0String__Split      000000001009120c     guideXOS.obj
 0004:00015264       _unwind0String__Substring  0000000010091264     guideXOS.obj
 0004:00015274       _unwind0String__Substring_0 0000000010091274     guideXOS.obj
 0004:00015284       _unwind0String__EndsWith_0 0000000010091284     guideXOS.obj
 0004:000152c0       _unwind0String__ToUpper    00000000100912c0     guideXOS.obj
 0004:000152e4       _unwind0String__ToLower    00000000100912e4     guideXOS.obj
 0004:00015308       _unwind0guideXOS_System_StringPool___cctor 0000000010091308     guideXOS.obj
 0004:00015384       _unwind1guideXOS_System_StringPool___cctor 0000000010091384     guideXOS.obj
 0004:00015394       _unwind0guideXOS_System_StringPool__GetPercentage 0000000010091394     guideXOS.obj
 0004:000153b4       _unwind0guideXOS_System_StringPool__GetNumber 00000000100913b4     guideXOS.obj
 0004:000153d0       _unwind0guideXOS_System_StringPool__GetNumber_0 00000000100913d0     guideXOS.obj
 0004:000153ec       _unwind0guideXOS_System_StringPool__GetMemorySize 00000000100913ec     guideXOS.obj
 0004:000154d4       _unwind0guideXOS_System_StringPool__GetTransferRate 00000000100914d4     guideXOS.obj
 0004:000154f0       _unwind0guideXOS_System_StringPool__FormatUptime 00000000100914f0     guideXOS.obj
 0004:00015540       _unwind0UInt16__ToString   0000000010091540     guideXOS.obj
 0004:0001554c       _unwind0UInt32__ToString   000000001009154c     guideXOS.obj
 0004:00015558       _unwind0UInt64__ToString   0000000010091558     guideXOS.obj
 0004:00015574       _unwind0UInt64__ToStringHex 0000000010091574     guideXOS.obj
 0004:00015590       _unwind0guideXOS_System_Threading_Monitor__Unlock 0000000010091590     guideXOS.obj
 0004:000155ac       _unwind0guideXOS_System_Runtime_TypeCast__CheckCastClass 00000000100915ac     guideXOS.obj
 0004:000155b8       _unwind0guideXOS_System_Runtime_TypeCast__CheckCastArray 00000000100915b8     guideXOS.obj
 0004:000155c4       _unwind0guideXOS_System_Runtime_TypeCast__IsInstanceOfArray 00000000100915c4     guideXOS.obj
 0004:000155d4       _unwind0guideXOS_System_Runtime_CompilerServices_ClassConstructorRunner__CheckStaticClassConstructionReturnNonGCStaticBase 00000000100915d4     guideXOS.obj
 0004:000155e0       _unwind0guideXOS_System_Runtime_CompilerServices_ClassConstructorRunner__CheckStaticClassConstructionReturnGCStaticBase 00000000100915e0     guideXOS.obj
 0004:000155f0       _unwind0guideXOS_System_Runtime_CompilerServices_ClassConstructorRunner__CheckStaticClassConstruction 00000000100915f0     guideXOS.obj
 0004:000155fc       _unwind0guideXOS_System_Drawing_Image___ctor 00000000100915fc     guideXOS.obj
 0004:0001560c       _unwind0guideXOS_System_Drawing_Image___ctor_0 000000001009160c     guideXOS.obj
 0004:00015614       _unwind0guideXOS_System_Drawing_Image__Resample 0000000010091614     guideXOS.obj
 0004:0001564c       _unwind0guideXOS_System_Drawing_Image__ResizeImage 000000001009164c     guideXOS.obj
 0004:000156b4       _unwind1guideXOS_System_Drawing_Image__ResizeImage 00000000100916b4     guideXOS.obj
 0004:000156cc       _unwind0guideXOS_System_Drawing_Image__Dispose 00000000100916cc     guideXOS.obj
 0004:000156f0       _unwind0guideXOS_guideXOS_Animation___ctor 00000000100916f0     guideXOS.obj
 0004:000156f8       _unwind0guideXOS_guideXOS_API__HandleSystemCall 00000000100916f8     guideXOS.obj
 0004:00015730       _unwind0guideXOS_guideXOS_API__API_SndWrite 0000000010091730     guideXOS.obj
 0004:00015738       _unwind0guideXOS_guideXOS_API__API_Calloc 0000000010091738     guideXOS.obj
 0004:00015740       _unwind0guideXOS_guideXOS_API__API_StartThread 0000000010091740     guideXOS.obj
 0004:00015754       _unwind0guideXOS_guideXOS_API__API_Error 0000000010091754     guideXOS.obj
 0004:00015764       _unwind0guideXOS_guideXOS_API__API_GetTime 0000000010091764     guideXOS.obj
 0004:00015780       _unwind0guideXOS_guideXOS_API__API_DrawImage 0000000010091780     guideXOS.obj
 0004:00015794       _unwind0guideXOS_guideXOS_API__API_WriteString 0000000010091794     guideXOS.obj
 0004:000157b4       _unwind0guideXOS_guideXOS_API__API_Width 00000000100917b4     guideXOS.obj
 0004:000157c0       _unwind0guideXOS_guideXOS_API__API_Height 00000000100917c0     guideXOS.obj
 0004:000157cc       _unwind0guideXOS_guideXOS_API__API_Update 00000000100917cc     guideXOS.obj
 0004:000157d4       _unwind0guideXOS_guideXOS_API__API_Clear 00000000100917d4     guideXOS.obj
 0004:000157ec       _unwind0guideXOS_guideXOS_API__API_DebugWrite 00000000100917ec     guideXOS.obj
 0004:000157f8       _unwind0guideXOS_guideXOS_API__API_DebugWriteLine 00000000100917f8     guideXOS.obj
 0004:00015804       _unwind0guideXOS_guideXOS_API__API_Lock 0000000010091804     guideXOS.obj
 0004:00015810       _unwind0guideXOS_guideXOS_API__API_Unlock 0000000010091810     guideXOS.obj
 0004:00015824       _unwind0guideXOS_guideXOS_API__API_DrawPoint 0000000010091824     guideXOS.obj
 0004:00015838       _unwind0guideXOS_guideXOS_API__API_SwitchToConsoleMode 0000000010091838     guideXOS.obj
 0004:00015844       _unwind0guideXOS_guideXOS_API__API_ReadAllBytes 0000000010091844     guideXOS.obj
 0004:00015874       _unwind0guideXOS_guideXOS_API__API_Sleep 0000000010091874     guideXOS.obj
 0004:0001587c       _unwind0guideXOS_guideXOS_API__API_GetTick 000000001009187c     guideXOS.obj
 0004:00015888       _unwind0guideXOS_guideXOS_API__API_Write 0000000010091888     guideXOS.obj
 0004:00015894       _unwind0guideXOS_guideXOS_API__API_WriteLine 0000000010091894     guideXOS.obj
 0004:0001589c       _unwind0guideXOS_guideXOS_API__API_Allocate 000000001009189c     guideXOS.obj
 0004:000158a8       _unwind0guideXOS_guideXOS_API__API_Free 00000000100918a8     guideXOS.obj
 0004:000158b0       _unwind0guideXOS_guideXOS_API__API_Reallocate 00000000100918b0     guideXOS.obj
 0004:000158b8       _unwind0guideXOS_guideXOS_API__SayHello 00000000100918b8     guideXOS.obj
 0004:000158c4       _unwind0guideXOS_guideXOS_Kbd2Mouse__OnKeyChanged 00000000100918c4     guideXOS.obj
 0004:000158f0       _unwind0guideXOS_guideXOS_ASC16__DrawChar 00000000100918f0     guideXOS.obj
 0004:00015924       _unwind0guideXOS_guideXOS_Console__add_OnWrite 0000000010091924     guideXOS.obj
 0004:00015954       _unwind1guideXOS_guideXOS_Console__add_OnWrite 0000000010091954     guideXOS.obj
 0004:00015960       _unwind0guideXOS_guideXOS_Console__Setup 0000000010091960     guideXOS.obj
 0004:00015974       _unwind0guideXOS_guideXOS_Console__Write 0000000010091974     guideXOS.obj
 0004:00015998       _unwind0guideXOS_guideXOS_Console__Write_0 0000000010091998     guideXOS.obj
 0004:000159c0       _unwind0guideXOS_guideXOS_Console__WriteFramebuffer 00000000100919c0     guideXOS.obj
 0004:000159e8       _unwind0guideXOS_guideXOS_Console__MoveUp 00000000100919e8     guideXOS.obj
 0004:000159fc       _unwind0guideXOS_guideXOS_Console__MoveUpFramebuffer 00000000100919fc     guideXOS.obj
 0004:00015a0c       _unwind0guideXOS_guideXOS_Console__UpdateCursorFramebuffer 0000000010091a0c     guideXOS.obj
 0004:00015a30       _unwind0guideXOS_guideXOS_Console__WriteLine 0000000010091a30     guideXOS.obj
 0004:00015a58       _unwind0guideXOS_guideXOS_Console__WriteLine_0 0000000010091a58     guideXOS.obj
 0004:00015a68       _unwind0guideXOS_guideXOS_Console__Clear 0000000010091a68     guideXOS.obj
 0004:00015a7c       _unwind0guideXOS_guideXOS_Console__ClearFramebuffer 0000000010091a7c     guideXOS.obj
 0004:00015a98       _unwind0guideXOS_guideXOS_PageTable__Initialise 0000000010091a98     guideXOS.obj
 0004:00015ac0       _unwind0guideXOS_guideXOS_PageTable__GetPageInternal 0000000010091ac0     guideXOS.obj
 0004:00015adc       _unwind0guideXOS_guideXOS_PageTable__MapOnRoot 0000000010091adc     guideXOS.obj
 0004:00015afc       _unwind0guideXOS_guideXOS_PageTable__Next_0 0000000010091afc     guideXOS.obj
 0004:00015b1c       _unwind0guideXOS_guideXOS_Intel825xx__Initialize 0000000010091b1c     guideXOS.obj
 0004:00015c4c       _unwind0guideXOS_guideXOS_Intel825xx__Reset 0000000010091c4c     guideXOS.obj
 0004:00015c64       _unwind0guideXOS_guideXOS_Intel825xx__TXsetup 0000000010091c64     guideXOS.obj
 0004:00015c74       _unwind0guideXOS_guideXOS_Intel825xx__RXsetup 0000000010091c74     guideXOS.obj
 0004:00015c88       _unwind0guideXOS_guideXOS_Intel825xx__ReadROM 0000000010091c88     guideXOS.obj
 0004:00015c9c       _unwind0guideXOS_guideXOS_Intel825xx__OnInterrupt 0000000010091c9c     guideXOS.obj
 0004:00015cbc       _unwind0guideXOS_guideXOS_Intel825xx__Linkup 0000000010091cbc     guideXOS.obj
 0004:00015cd8       _unwind0guideXOS_guideXOS_Intel825xx__Send 0000000010091cd8     guideXOS.obj
 0004:00015cec       _unwind0guideXOS_guideXOS_NETv4__Initialize 0000000010091cec     guideXOS.obj
 0004:00015d0c       _unwind0guideXOS_guideXOS_NETv4__SwapLeftRight 0000000010091d0c     guideXOS.obj
 0004:00015d14       _unwind0guideXOS_guideXOS_NETv4__SwapLeftRight_0 0000000010091d14     guideXOS.obj
 0004:00015d1c       _unwind0guideXOS_guideXOS_NETv4__SwapLeftRight_1 0000000010091d1c     guideXOS.obj
 0004:00015d24       _unwind0guideXOS_guideXOS_NETv4__SwapLeftRight_2 0000000010091d24     guideXOS.obj
 0004:00015d2c       _unwind0guideXOS_guideXOS_NETv4__OnData_0 0000000010091d2c     guideXOS.obj
 0004:00015d40       _unwind0guideXOS_guideXOS_NETv4__DNSQuery 0000000010091d40     guideXOS.obj
 0004:00015e10       _unwind0guideXOS_guideXOS_NETv4__DHCPDiscover 0000000010091e10     guideXOS.obj
 0004:00015ef4       _unwind0guideXOS_guideXOS_NETv4__MakeDHCPRequestPacket 0000000010091ef4     guideXOS.obj
 0004:00015f14       _unwind0guideXOS_guideXOS_NETv4__UDPBind 0000000010091f14     guideXOS.obj
 0004:00015f2c       _unwind0guideXOS_guideXOS_NETv4__UDPSend 0000000010091f2c     guideXOS.obj
 0004:00015f58       _unwind0guideXOS_guideXOS_NETv4__MakeUDPPacket 0000000010091f58     guideXOS.obj
 0004:00015f84       _unwind0guideXOS_guideXOS_NETv4__UDPOnData_0 0000000010091f84     guideXOS.obj
 0004:00015fd0       _unwind0guideXOS_guideXOS_NETv4__TCPOnData 0000000010091fd0     guideXOS.obj
 0004:00016058       _unwind0guideXOS_guideXOS_NETv4__TCPConnect 0000000010092058     guideXOS.obj
 0004:00016070       _unwind0guideXOS_guideXOS_NETv4__TCPClose 0000000010092070     guideXOS.obj
 0004:00016080       _unwind0guideXOS_guideXOS_NETv4__TCPSendData 0000000010092080     guideXOS.obj
 0004:00016098       _unwind0guideXOS_guideXOS_NETv4__TCPSend 0000000010092098     guideXOS.obj
 0004:000160c4       _unwind0guideXOS_guideXOS_NETv4__MakeTCPPacket 00000000100920c4     guideXOS.obj
 0004:000160f0       _unwind0guideXOS_guideXOS_NETv4__IPOnData 00000000100920f0     guideXOS.obj
 0004:00016114       _unwind0guideXOS_guideXOS_NETv4__MakeIPPacket 0000000010092114     guideXOS.obj
 0004:00016124       _unwind0guideXOS_guideXOS_NETv4__IPChecksum 0000000010092124     guideXOS.obj
 0004:00016134       _unwind0guideXOS_guideXOS_NETv4__ICMPOnData 0000000010092134     guideXOS.obj
 0004:00016164       _unwind0guideXOS_guideXOS_NETv4__ICMPPing 0000000010092164     guideXOS.obj
 0004:0001618c       _unwind0guideXOS_guideXOS_NETv4__ARPLookup 000000001009218c     guideXOS.obj
 0004:000161dc       _unwind0guideXOS_guideXOS_NETv4__ARPOnData 00000000100921dc     guideXOS.obj
 0004:00016210       _unwind0guideXOS_guideXOS_NETv4__MakeARPPacket 0000000010092210     guideXOS.obj
 0004:00016228       _unwind0guideXOS_guideXOS_NETv4__ARPRequire 0000000010092228     guideXOS.obj
 0004:00016248       _unwind0guideXOS_guideXOS_NETv4__MakeEthernetPacket 0000000010092248     guideXOS.obj
 0004:00016260       _unwind0guideXOS_guideXOS_RTL8111__Initialize 0000000010092260     guideXOS.obj
 0004:0001642c       _unwind0guideXOS_guideXOS_RTL8111__ResetRXDesc 000000001009242c     guideXOS.obj
 0004:00016438       _unwind0guideXOS_guideXOS_RTL8111__Send 0000000010092438     guideXOS.obj
 0004:00016460       _unwind0guideXOS_guideXOS_RTL8111__OnInterrupt 0000000010092460     guideXOS.obj
 0004:00016498       _unwind0guideXOS_guideXOS_SMP__ApplicationProcessorMain 0000000010092498     guideXOS.obj
 0004:000164bc       _unwind0guideXOS_guideXOS_SMP__Initialize 00000000100924bc     guideXOS.obj
 0004:00016540       _unwind0guideXOS_guideXOS_Network_Http__NextEphemeralPort 0000000010092540     guideXOS.obj
 0004:0001654c       _unwind0guideXOS_guideXOS_Network_Http__PostJson 000000001009254c     guideXOS.obj
 0004:00016564       _unwind0guideXOS_guideXOS_Network_Http__BuildPost 0000000010092564     guideXOS.obj
 0004:000165a0       _unwind0guideXOS_guideXOS_Network_Http__Send 00000000100925a0     guideXOS.obj
 0004:0001672c       _unwind0guideXOS_guideXOS_Network_Http__Resolve 000000001009272c     guideXOS.obj
 0004:00016770       _unwind0guideXOS_guideXOS_Network_Http__IsZero 0000000010092770     guideXOS.obj
 0004:00016778       _unwind0guideXOS_guideXOS_Network_Http__EqualsIp 0000000010092778     guideXOS.obj
 0004:00016780       _unwind0guideXOS_guideXOS_Network_Http__ReceiveAll 0000000010092780     guideXOS.obj
 0004:000167dc       _unwind0guideXOS_guideXOS_Network_Http__IsHttpComplete 00000000100927dc     guideXOS.obj
 0004:00016828       _unwind0guideXOS_guideXOS_Network_Http__HeaderContentLengthBytes 0000000010092828     guideXOS.obj
 0004:0001685c       _unwind0guideXOS_guideXOS_Network_Http__HeaderChunkedBytes 000000001009285c     guideXOS.obj
 0004:0001686c       _unwind0guideXOS_guideXOS_Network_Http__ParseHttp 000000001009286c     guideXOS.obj
 0004:0001694c       _unwind0guideXOS_guideXOS_Network_Http__DecodeChunked 000000001009294c     guideXOS.obj
 0004:000169a4       _unwind0guideXOS_guideXOS_Network_Http__IndexOf 00000000100929a4     guideXOS.obj
 0004:000169c8       _unwind0guideXOS_guideXOS_Network_Http__Match 00000000100929c8     guideXOS.obj
 0004:000169fc       _unwind0guideXOS_guideXOS_Network_Http__ToAsciiBytes 00000000100929fc     guideXOS.obj
 0004:00016a2c       _unwind0guideXOS_guideXOS_Network_Http__BytesToAscii_0 0000000010092a2c     guideXOS.obj
 0004:00016a5c       _unwind0guideXOS_guideXOS_Network_Http__SetHeader 0000000010092a5c     guideXOS.obj
 0004:00016a74       _unwind0guideXOS_guideXOS_Network_Http__GetHeader 0000000010092a74     guideXOS.obj
 0004:00016a88       _unwind0guideXOS_guideXOS_Network_Http__EqualsIgnoreCase 0000000010092a88     guideXOS.obj
 0004:00016ab0       _unwind0guideXOS_guideXOS_Network_Http__IndexOfIgnoreCase 0000000010092ab0     guideXOS.obj
 0004:00016ae4       _unwind0guideXOS_guideXOS_Network_Http__IndexOf_0 0000000010092ae4     guideXOS.obj
 0004:00016afc       _unwind0guideXOS_guideXOS_Network_Http__HasPrefix 0000000010092afc     guideXOS.obj
 0004:00016b20       _unwind0guideXOS_guideXOS_Network_Http__TrimSpaces 0000000010092b20     guideXOS.obj
 0004:00016b3c       _unwind0guideXOS_guideXOS_Network_Http__ParseInt 0000000010092b3c     guideXOS.obj
 0004:00016b50       _unwind0guideXOS_guideXOS_Network_Http__ParseIntToString 0000000010092b50     guideXOS.obj
 0004:00016b84       _unwind0guideXOS_guideXOS_Network_Http__ParseHex 0000000010092b84     guideXOS.obj
 0004:00016b9c       _unwind0guideXOS_guideXOS_Graph_Graphics__FromImage 0000000010092b9c     guideXOS.obj
 0004:00016bb0       _unwind0guideXOS_guideXOS_Graph_Graphics__Update 0000000010092bb0     guideXOS.obj
 0004:00016bb8       _unwind0guideXOS_guideXOS_Graph_Graphics__Clear 0000000010092bb8     guideXOS.obj
 0004:00016bd4       _unwind0guideXOS_guideXOS_Graph_Graphics__Copy 0000000010092bd4     guideXOS.obj
 0004:00016bfc       _unwind0guideXOS_guideXOS_Graph_Graphics__FillRectangle 0000000010092bfc     guideXOS.obj
 0004:00016c20       _unwind0guideXOS_guideXOS_Graph_Graphics__AFillRectangle 0000000010092c20     guideXOS.obj
 0004:00016c48       _unwind0guideXOS_guideXOS_Graph_Graphics__GetPoint 0000000010092c48     guideXOS.obj
 0004:00016c50       _unwind0guideXOS_guideXOS_Graph_Graphics__DrawPoint 0000000010092c50     guideXOS.obj
 0004:00016c6c       _unwind0guideXOS_guideXOS_Graph_Graphics__DrawRectangle 0000000010092c6c     guideXOS.obj
 0004:00016c8c       _unwind0guideXOS_guideXOS_Graph_Graphics__Save 0000000010092c8c     guideXOS.obj
 0004:00016cb4       _unwind0guideXOS_guideXOS_Graph_Graphics__ADrawImage 0000000010092cb4     guideXOS.obj
 0004:00016ce0       _unwind0guideXOS_guideXOS_Graph_Graphics__DrawImage 0000000010092ce0     guideXOS.obj
 0004:00016d40       _unwind0guideXOS_guideXOS_Graph_Graphics__FPartOfNumber 0000000010092d40     guideXOS.obj
 0004:00016d48       _unwind0guideXOS_guideXOS_Graph_Graphics__DrawPoint_0 0000000010092d48     guideXOS.obj
 0004:00016d58       _unwind0guideXOS_guideXOS_Graph_Graphics__DrawLine 0000000010092d58     guideXOS.obj
 0004:00016d84       _unwind0guideXOS_guideXOS_Graph_Graphics__BlurRectangle 0000000010092d84     guideXOS.obj
 0004:00016e64       _unwind0guideXOS_guideXOS_Graph_Graphics__ResetBlurBuffers 0000000010092e64     guideXOS.obj
 0004:00016e8c       _unwind0guideXOS_guideXOS_FS_AutoFS___ctor 0000000010092e8c     guideXOS.obj
 0004:00016ebc       _unwind0guideXOS_guideXOS_FS_AutoFS___ctor_0 0000000010092ebc     guideXOS.obj
 0004:00016ef0       _unwind0guideXOS_guideXOS_FS_AutoFS__LooksLikeTar 0000000010092ef0     guideXOS.obj
 0004:00016ef8       _unwind0guideXOS_guideXOS_FS_AutoFS__LooksLikeFat 0000000010092ef8     guideXOS.obj
 0004:00016f00       _unwind0guideXOS_guideXOS_FS_AutoFS__LooksLikeExt 0000000010092f00     guideXOS.obj
 0004:00016f18       _unwind0guideXOS_guideXOS_FS_AutoFS__LooksLikeExt_0 0000000010092f18     guideXOS.obj
 0004:00016f20       _unwind0guideXOS_guideXOS_FS_AutoFS__GetFiles 0000000010092f20     guideXOS.obj
 0004:00016f30       _unwind0guideXOS_guideXOS_FS_AutoFS__ReadAllBytes 0000000010092f30     guideXOS.obj
 0004:00016f40       _unwind0guideXOS_guideXOS_FS_AutoFS__WriteAllBytes 0000000010092f40     guideXOS.obj
 0004:00016f50       _unwind0guideXOS_guideXOS_FS_AutoFS__Format 0000000010092f50     guideXOS.obj
 0004:00016f60       _unwind0guideXOS_guideXOS_FS_EXT2___ctor 0000000010092f60     guideXOS.obj
 0004:00016f8c       _unwind0guideXOS_guideXOS_FS_EXT2___ctor_0 0000000010092f8c     guideXOS.obj
 0004:00016fb8       _unwind0guideXOS_guideXOS_FS_EXT2__ReadBytes 0000000010092fb8     guideXOS.obj
 0004:00017000       _unwind0guideXOS_guideXOS_FS_EXT2__WriteBytes 0000000010093000     guideXOS.obj
 0004:00017058       _unwind0guideXOS_guideXOS_FS_EXT2__ReadBlock 0000000010093058     guideXOS.obj
 0004:00017078       _unwind0guideXOS_guideXOS_FS_EXT2__WriteBlock 0000000010093078     guideXOS.obj
 0004:000170b4       _unwind0guideXOS_guideXOS_FS_EXT2__ReadBlockRange 00000000100930b4     guideXOS.obj
 0004:000170d4       _unwind0guideXOS_guideXOS_FS_EXT2__ReadU32 00000000100930d4     guideXOS.obj
 0004:000170e0       _unwind0guideXOS_guideXOS_FS_EXT2__WriteU16 00000000100930e0     guideXOS.obj
 0004:000170ec       _unwind0guideXOS_guideXOS_FS_EXT2__WriteU32 00000000100930ec     guideXOS.obj
 0004:000170f8       _unwind0guideXOS_guideXOS_FS_EXT2__ReadInode 00000000100930f8     guideXOS.obj
 0004:0001711c       _unwind0guideXOS_guideXOS_FS_EXT2__WriteInode 000000001009311c     guideXOS.obj
 0004:0001713c       _unwind0guideXOS_guideXOS_FS_EXT2__EnumDirectory 000000001009313c     guideXOS.obj
 0004:00017218       _unwind0guideXOS_guideXOS_FS_EXT2__ResolvePathToInode 0000000010093218     guideXOS.obj
 0004:00017244       _unwind0guideXOS_guideXOS_FS_EXT2__StrEq 0000000010093244     guideXOS.obj
 0004:00017268       _unwind0guideXOS_guideXOS_FS_EXT2__GetFiles 0000000010093268     guideXOS.obj
 0004:00017298       _unwind0guideXOS_guideXOS_FS_EXT2__ReadAllBytes 0000000010093298     guideXOS.obj
 0004:00017310       _unwind0guideXOS_guideXOS_FS_EXT2__WriteAllBytes 0000000010093310     guideXOS.obj
 0004:000173b0       _unwind0guideXOS_guideXOS_FS_EXT2__Format 00000000100933b0     guideXOS.obj
 0004:000173c0       _unwind0guideXOS_guideXOS_FS_FAT___ctor 00000000100933c0     guideXOS.obj
 0004:000173dc       _unwind0guideXOS_guideXOS_FS_FAT___ctor_0 00000000100933dc     guideXOS.obj
 0004:000173f4       _unwind0guideXOS_guideXOS_FS_FAT__InvalidateSector 00000000100933f4     guideXOS.obj
 0004:00017414       _unwind0guideXOS_guideXOS_FS_FAT__ReadSectorsCached 0000000010093414     guideXOS.obj
 0004:00017484       _unwind0guideXOS_guideXOS_FS_FAT__WriteSector 0000000010093484     guideXOS.obj
 0004:0001749c       _unwind0guideXOS_guideXOS_FS_FAT__ReadFatEntry 000000001009349c     guideXOS.obj
 0004:000174bc       _unwind0guideXOS_guideXOS_FS_FAT__WriteFatEntry 00000000100934bc     guideXOS.obj
 0004:00017500       _unwind0guideXOS_guideXOS_FS_FAT__IsEOC 0000000010093500     guideXOS.obj
 0004:00017508       _unwind0guideXOS_guideXOS_FS_FAT__EOC 0000000010093508     guideXOS.obj
 0004:00017510       _unwind0guideXOS_guideXOS_FS_FAT__GetClusterChain 0000000010093510     guideXOS.obj
 0004:00017528       _unwind0guideXOS_guideXOS_FS_FAT__ReadCluster 0000000010093528     guideXOS.obj
 0004:00017554       _unwind0guideXOS_guideXOS_FS_FAT__ZeroCluster 0000000010093554     guideXOS.obj
 0004:00017574       _unwind0guideXOS_guideXOS_FS_FAT__ReadAllClusterChain 0000000010093574     guideXOS.obj
 0004:000175a8       _unwind0guideXOS_guideXOS_FS_FAT__ComposeShortName 00000000100935a8     guideXOS.obj
 0004:000175d4       _unwind0guideXOS_guideXOS_FS_FAT__AssembleLfn 00000000100935d4     guideXOS.obj
 0004:00017610       _unwind0guideXOS_guideXOS_FS_FAT__IterateDirectory 0000000010093610     guideXOS.obj
 0004:00017630       _unwind0guideXOS_guideXOS_FS_FAT__IterateDirSectorRangeCluster 0000000010093630     guideXOS.obj
 0004:0001764c       _unwind0guideXOS_guideXOS_FS_FAT__IterateDirEntries 000000001009364c     guideXOS.obj
 0004:00017690       _unwind0guideXOS_guideXOS_FS_FAT__EqualsIgnoreCase 0000000010093690     guideXOS.obj
 0004:000176b8       _unwind0guideXOS_guideXOS_FS_FAT__FindPath 00000000100936b8     guideXOS.obj
 0004:00017730       _unwind0guideXOS_guideXOS_FS_FAT__FindEntryLoc 0000000010093730     guideXOS.obj
 0004:0001782c       _unwind1guideXOS_guideXOS_FS_FAT__FindEntryLoc 000000001009382c     guideXOS.obj
 0004:00017844       _unwind2guideXOS_guideXOS_FS_FAT__FindEntryLoc 0000000010093844     guideXOS.obj
 0004:0001785c       _unwind0guideXOS_guideXOS_FS_FAT__NextFreeCluster 000000001009385c     guideXOS.obj
 0004:00017874       _unwind0guideXOS_guideXOS_FS_FAT__AllocateClustersForSize 0000000010093874     guideXOS.obj
 0004:0001789c       _unwind0guideXOS_guideXOS_FS_FAT__FreeClusterChain 000000001009389c     guideXOS.obj
 0004:000178c0       _unwind0guideXOS_guideXOS_FS_FAT__WriteDataToChain 00000000100938c0     guideXOS.obj
 0004:00017968       _unwind0guideXOS_guideXOS_FS_FAT__WriteDirEntry 0000000010093968     guideXOS.obj
 0004:000179e0       _unwind0guideXOS_guideXOS_FS_FAT__GenerateShortName 00000000100939e0     guideXOS.obj
 0004:00017a90       _unwind0guideXOS_guideXOS_FS_FAT__EnsureDirHasFreeSlot 0000000010093a90     guideXOS.obj
 0004:00017ab0       _unwind0guideXOS_guideXOS_FS_FAT__GetFiles 0000000010093ab0     guideXOS.obj
 0004:00017ad8       _unwind0guideXOS_guideXOS_FS_FAT__ReadAllBytes 0000000010093ad8     guideXOS.obj
 0004:00017af0       _unwind0guideXOS_guideXOS_FS_FAT__WriteAllBytes 0000000010093af0     guideXOS.obj
 0004:00017b44       _unwind0guideXOS_guideXOS_FS_FAT__Format 0000000010093b44     guideXOS.obj
 0004:00017cc0       _unwind1guideXOS_guideXOS_FS_FAT__Format 0000000010093cc0     guideXOS.obj
 0004:00017cd8       _unwind2guideXOS_guideXOS_FS_FAT__Format 0000000010093cd8     guideXOS.obj
 0004:00017cf0       _unwind0guideXOS_guideXOS_FS_FileInfo__Dispose 0000000010093cf0     guideXOS.obj
 0004:00017d14       _unwind0guideXOS_guideXOS_FS_FileInfo___ctor 0000000010093d14     guideXOS.obj
 0004:00017d1c       _unwind0guideXOS_guideXOS_FS_File__Exists 0000000010093d1c     guideXOS.obj
 0004:00017d3c       _unwind0guideXOS_guideXOS_FS_FileSystem__SizeToSec 0000000010093d3c     guideXOS.obj
 0004:00017d44       _unwind0guideXOS_guideXOS_FS_FileSystem__IsInDirectory 0000000010093d44     guideXOS.obj
 0004:00017d70       _unwind0guideXOS_guideXOS_FS_TarFS___ctor_0 0000000010093d70     guideXOS.obj
 0004:00017d80       _unwind0guideXOS_guideXOS_FS_TarFS__GetFiles 0000000010093d80     guideXOS.obj
 0004:00017e18       _unwind0guideXOS_guideXOS_FS_TarFS__ReadAllBytes 0000000010093e18     guideXOS.obj
 0004:00017e80       _unwind0guideXOS_guideXOS_FS_TarFS__WriteAllBytes 0000000010093e80     guideXOS.obj
 0004:00017e88       _unwind0guideXOS_guideXOS_FS_TarFS__Format 0000000010093e88     guideXOS.obj
 0004:00017e90       _unwind0guideXOS_guideXOS_Kernel_Libraries_stdio___putchar 0000000010093e90     guideXOS.obj
 0004:00017ea0       _unwind0guideXOS_guideXOS_Kernel_Libraries_stdio__fopen 0000000010093ea0     guideXOS.obj
 0004:00017f04       _unwind0guideXOS_guideXOS_Kernel_Libraries_stdio__fseek 0000000010093f04     guideXOS.obj
 0004:00017f18       _unwind0guideXOS_guideXOS_Kernel_Libraries_stdio__fread 0000000010093f18     guideXOS.obj
 0004:00017f34       _unwind0guideXOS_guideXOS_Kernel_Libraries_stdlib__malloc 0000000010093f34     guideXOS.obj
 0004:00017f40       _unwind0guideXOS_guideXOS_Kernel_Libraries_stdlib__free 0000000010093f40     guideXOS.obj
 0004:00017f4c       _unwind0guideXOS_guideXOS_Kernel_Libraries_stdlib__realloc 0000000010093f4c     guideXOS.obj
 0004:00017f58       _unwind0guideXOS_guideXOS_Kernel_Libraries_stdlib__calloc 0000000010093f58     guideXOS.obj
 0004:00017f78       _unwind0guideXOS_guideXOS_Kernel_Libraries_stdlib__kmalloc 0000000010093f78     guideXOS.obj
 0004:00017f84       _unwind0guideXOS_guideXOS_Kernel_Libraries_stdlib__kfree 0000000010093f84     guideXOS.obj
 0004:00017f90       _unwind0guideXOS_guideXOS_Kernel_Libraries_stdlib__krealloc 0000000010093f90     guideXOS.obj
 0004:00017f9c       _unwind0guideXOS_guideXOS_Kernel_Libraries_stdlib__kcalloc 0000000010093f9c     guideXOS.obj
 0004:00017fbc       _unwind0guideXOS_guideXOS_Kernel_Drivers_ACPI__GetRSDP 0000000010093fbc     guideXOS.obj
 0004:00017fc8       _unwind0guideXOS_guideXOS_Kernel_Drivers_ACPI__Shutdown 0000000010093fc8     guideXOS.obj
 0004:00017ff0       _unwind0guideXOS_guideXOS_Kernel_Drivers_ACPI__Initialize 0000000010093ff0     guideXOS.obj
 0004:00018010       _unwind0guideXOS_guideXOS_Kernel_Drivers_ACPI__ParseDT 0000000010094010     guideXOS.obj
 0004:00018058       _unwind0guideXOS_guideXOS_Kernel_Drivers_ACPI__RemapIRQ 0000000010094058     guideXOS.obj
 0004:00018070       _unwind0guideXOS_guideXOS_Kernel_Drivers_ACPITimer__Sleep 0000000010094070     guideXOS.obj
 0004:000180a8       _unwind0guideXOS_guideXOS_Kernel_Drivers_ACPITimer__SleepMicroseconds 00000000100940a8     guideXOS.obj
 0004:000180d4       _unwind0guideXOS_guideXOS_Kernel_Drivers_Resolution__ToString 00000000100940d4     guideXOS.obj
 0004:00018100       _unwind0guideXOS_guideXOS_Kernel_Drivers_DisplayManager__EnsureSvga 0000000010094100     guideXOS.obj
 0004:0001814c       _unwind1guideXOS_guideXOS_Kernel_Drivers_DisplayManager__EnsureSvga 000000001009414c     guideXOS.obj
 0004:0001815c       _unwind0guideXOS_guideXOS_Kernel_Drivers_DisplayManager__TrySetResolution 000000001009415c     guideXOS.obj
 0004:00018198       _unwind1guideXOS_guideXOS_Kernel_Drivers_DisplayManager__TrySetResolution 0000000010094198     guideXOS.obj
 0004:000181a8       _unwind2guideXOS_guideXOS_Kernel_Drivers_DisplayManager__TrySetResolution 00000000100941a8     guideXOS.obj
 0004:000181b8       _unwind0guideXOS_guideXOS_Kernel_Drivers_DisplayManager__ToASCII 00000000100941b8     guideXOS.obj
 0004:000181d4       _unwind0guideXOS_guideXOS_Kernel_Drivers_DisplayManager__SaveResolution 00000000100941d4     guideXOS.obj
 0004:0001821c       _unwind1guideXOS_guideXOS_Kernel_Drivers_DisplayManager__SaveResolution 000000001009421c     guideXOS.obj
 0004:00018234       _unwind0guideXOS_guideXOS_Kernel_Drivers_EHCI__SendAndReceive 0000000010094234     guideXOS.obj
 0004:00018258       _unwind0guideXOS_guideXOS_Kernel_Drivers_EHCI__WaitForComplete 0000000010094258     guideXOS.obj
 0004:00018278       _unwind0guideXOS_guideXOS_Kernel_Drivers_EHCI__BulkTransfer 0000000010094278     guideXOS.obj
 0004:0001829c       _unwind0guideXOS_guideXOS_Kernel_Drivers_Framebuffer__set_TripleBuffered 000000001009429c     guideXOS.obj
 0004:000182b8       _unwind0guideXOS_guideXOS_Kernel_Drivers_Framebuffer__Update 00000000100942b8     guideXOS.obj
 0004:000182e4       _unwind0guideXOS_guideXOS_Kernel_Drivers_Framebuffer__Initialize 00000000100942e4     guideXOS.obj
 0004:00018318       _unwind0guideXOS_guideXOS_Kernel_Drivers_HPET__Initialize 0000000010094318     guideXOS.obj
 0004:00018334       _unwind0guideXOS_guideXOS_Kernel_Drivers_HPET__WriteRegister 0000000010094334     guideXOS.obj
 0004:00018344       _unwind0guideXOS_guideXOS_Kernel_Drivers_HPET__ReadRegister 0000000010094344     guideXOS.obj
 0004:00018350       _unwind0guideXOS_guideXOS_Kernel_Drivers_IDE__Initialize 0000000010094350     guideXOS.obj
 0004:00018364       _unwind0guideXOS_guideXOS_Kernel_Drivers_IDE__ScanPorts 0000000010094364     guideXOS.obj
 0004:000183e4       _unwind0guideXOS_guideXOS_Kernel_Drivers_IDE___ScanPorts_g__WaitForIdentifyData_3_2 00000000100943e4     guideXOS.obj
 0004:00018404       _unwind0guideXOS_guideXOS_Kernel_Drivers_IDEDevice__ReadOrWrite 0000000010094404     guideXOS.obj
 0004:00018454       _unwind0guideXOS_guideXOS_Kernel_Drivers_IDEDevice__WaitForReadyStatus 0000000010094454     guideXOS.obj
 0004:00018474       _unwind0guideXOS_guideXOS_Kernel_Drivers_IDEDevice__Read 0000000010094474     guideXOS.obj
 0004:0001848c       _unwind0guideXOS_guideXOS_Kernel_Drivers_IDEDevice__Write 000000001009448c     guideXOS.obj
 0004:000184a4       _unwind0guideXOS_guideXOS_Kernel_Drivers_IDEDevice___ctor 00000000100944a4     guideXOS.obj
 0004:000184b4       _unwind0guideXOS_guideXOS_Kernel_Drivers_IOAPIC__Initialize 00000000100944b4     guideXOS.obj
 0004:000184d0       _unwind0guideXOS_guideXOS_Kernel_Drivers_IOAPIC__In 00000000100944d0     guideXOS.obj
 0004:000184dc       _unwind0guideXOS_guideXOS_Kernel_Drivers_IOAPIC__Out 00000000100944dc     guideXOS.obj
 0004:000184ec       _unwind0guideXOS_guideXOS_Kernel_Drivers_IOAPIC__SetEntry 00000000100944ec     guideXOS.obj
 0004:000184fc       _unwind0guideXOS_guideXOS_Kernel_Drivers_IOAPIC__SetEntry_0 00000000100944fc     guideXOS.obj
 0004:0001850c       _unwind0guideXOS_guideXOS_Kernel_Drivers_Keyboard__InvokeOnKeyChanged 000000001009450c     guideXOS.obj
 0004:0001852c       _unwind0guideXOS_guideXOS_Kernel_Drivers_Keyboard__SimulateKey 000000001009452c     guideXOS.obj
 0004:00018548       _unwind0guideXOS_guideXOS_Kernel_Drivers_Keyboard__CleanKeyInfo 0000000010094548     guideXOS.obj
 0004:00018554       _unwind0guideXOS_guideXOS_Kernel_Drivers_LocalAPIC__ReadRegister 0000000010094554     guideXOS.obj
 0004:00018560       _unwind0guideXOS_guideXOS_Kernel_Drivers_LocalAPIC__Initialize 0000000010094560     guideXOS.obj
 0004:00018574       _unwind0guideXOS_guideXOS_Kernel_Drivers_LocalAPIC__SendIPI 0000000010094574     guideXOS.obj
 0004:0001858c       _unwind0guideXOS_guideXOS_Kernel_Drivers_LocalAPICTimer__StartTimer 000000001009458c     guideXOS.obj
 0004:000185ac       _unwind0guideXOS_guideXOS_Kernel_Drivers_LocalAPICTimer__EstimateBusSpeed 00000000100945ac     guideXOS.obj
 0004:000185bc       _unwind0guideXOS_guideXOS_Kernel_Drivers_PCIDevice__WriteRegister 00000000100945bc     guideXOS.obj
 0004:000185d4       _unwind0guideXOS_guideXOS_Kernel_Drivers_PCIDevice___ctor 00000000100945d4     guideXOS.obj
 0004:000185dc       _unwind0guideXOS_guideXOS_Kernel_Drivers_PCI__GetDevice 00000000100945dc     guideXOS.obj
 0004:00018600       _unwind0guideXOS_guideXOS_Kernel_Drivers_PCI__Initialise 0000000010094600     guideXOS.obj
 0004:00018618       _unwind0guideXOS_guideXOS_Kernel_Drivers_PCI__CheckBus 0000000010094618     guideXOS.obj
 0004:00018698       _unwind0guideXOS_guideXOS_Kernel_Drivers_PCI__ReadRegister16 0000000010094698     guideXOS.obj
 0004:000186bc       _unwind0guideXOS_guideXOS_Kernel_Drivers_PCI__ReadRegister8 00000000100946bc     guideXOS.obj
 0004:000186e0       _unwind0guideXOS_guideXOS_Kernel_Drivers_PCI__WriteRegister16 00000000100946e0     guideXOS.obj
 0004:00018704       _unwind0guideXOS_guideXOS_Kernel_Drivers_PCI__GetVendorID 0000000010094704     guideXOS.obj
 0004:00018728       _unwind0guideXOS_guideXOS_Kernel_Drivers_PCI__GetHeaderType 0000000010094728     guideXOS.obj
 0004:0001874c       _unwind0guideXOS_guideXOS_Kernel_Drivers_PCI__GetAddressBase 000000001009474c     guideXOS.obj
 0004:00018754       _unwind0guideXOS_guideXOS_Kernel_Drivers_PCIExpress__Initialize 0000000010094754     guideXOS.obj
 0004:00018778       _unwind0guideXOS_guideXOS_Kernel_Drivers_PCIExpress__CheckBus 0000000010094778     guideXOS.obj
 0004:000187e8       _unwind0guideXOS_guideXOS_Kernel_Drivers_PIC__Disable 00000000100947e8     guideXOS.obj
 0004:00018828       _unwind0guideXOS_guideXOS_Kernel_Drivers_Power__Reboot 0000000010094828     guideXOS.obj
 0004:0001884c       _unwind0guideXOS_guideXOS_Kernel_Drivers_PS2Keyboard__Initialize 000000001009484c     guideXOS.obj
 0004:00018878       _unwind0guideXOS_guideXOS_Kernel_Drivers_PS2Keyboard__OnInterrupt 0000000010094878     guideXOS.obj
 0004:000188a4       _unwind0guideXOS_guideXOS_Kernel_Drivers_PS2Keyboard__TranslateSet2ToSet1 00000000100948a4     guideXOS.obj
 0004:000188b0       _unwind0guideXOS_guideXOS_Kernel_Drivers_PS2Keyboard__UpdateModifiers 00000000100948b0     guideXOS.obj
 0004:000188c0       _unwind0guideXOS_guideXOS_Kernel_Drivers_PS2Keyboard__ScancodeToKey 00000000100948c0     guideXOS.obj
 0004:000188cc       _unwind0guideXOS_guideXOS_Kernel_Drivers_PS2Keyboard__GetChar 00000000100948cc     guideXOS.obj
 0004:000188ec       _unwind0guideXOS_guideXOS_Kernel_Drivers_PS2Mouse__Initialise 00000000100948ec     guideXOS.obj
 0004:0001899c       _unwind0guideXOS_guideXOS_Kernel_Drivers_PS2Mouse__WriteRegister 000000001009499c     guideXOS.obj
 0004:000189d0       _unwind0guideXOS_guideXOS_Kernel_Drivers_PS2Mouse__OnInterrupt 00000000100949d0     guideXOS.obj
 0004:00018a08       _unwind0guideXOS_guideXOS_Kernel_Drivers_Ramdisk__Read 0000000010094a08     guideXOS.obj
 0004:00018a24       _unwind0guideXOS_guideXOS_Kernel_Drivers_Ramdisk__Write 0000000010094a24     guideXOS.obj
 0004:00018a40       _unwind0guideXOS_guideXOS_Kernel_Drivers_RTC__get_Second 0000000010094a40     guideXOS.obj
 0004:00018a64       _unwind0guideXOS_guideXOS_Kernel_Drivers_RTC__get_Minute 0000000010094a64     guideXOS.obj
 0004:00018a88       _unwind0guideXOS_guideXOS_Kernel_Drivers_RTC__get_Hour 0000000010094a88     guideXOS.obj
 0004:00018aac       _unwind0guideXOS_guideXOS_Kernel_Drivers_RTC__get_Century 0000000010094aac     guideXOS.obj
 0004:00018ad0       _unwind0guideXOS_guideXOS_Kernel_Drivers_RTC__get_Year 0000000010094ad0     guideXOS.obj
 0004:00018af4       _unwind0guideXOS_guideXOS_Kernel_Drivers_RTC__get_Month 0000000010094af4     guideXOS.obj
 0004:00018b18       _unwind0guideXOS_guideXOS_Kernel_Drivers_RTC__get_Day 0000000010094b18     guideXOS.obj
 0004:00018b3c       _unwind0guideXOS_guideXOS_Kernel_Drivers_SATA__Initialize 0000000010094b3c     guideXOS.obj
 0004:00018bf8       _unwind0guideXOS_guideXOS_Kernel_Drivers_SATA__CheckPortType 0000000010094bf8     guideXOS.obj
 0004:00018c00       _unwind0guideXOS_guideXOS_Kernel_Drivers_Serial__Initialise 0000000010094c00     guideXOS.obj
 0004:00018c34       _unwind0guideXOS_guideXOS_Kernel_Drivers_Serial__Write_0 0000000010094c34     guideXOS.obj
 0004:00018c54       _unwind0guideXOS_guideXOS_Kernel_Drivers_SMBIOS__Initialise 0000000010094c54     guideXOS.obj
 0004:00018c7c       _unwind0guideXOS_guideXOS_Kernel_Drivers_SMBIOS__PrintIndex 0000000010094c7c     guideXOS.obj
 0004:00018c94       _unwind0guideXOS_guideXOS_Kernel_Drivers_Timer__Initialize 0000000010094c94     guideXOS.obj
 0004:00018cb4       _unwind0guideXOS_guideXOS_Kernel_Drivers_Timer__EstimateCPUSpeed 0000000010094cb4     guideXOS.obj
 0004:00018cd8       _unwind0guideXOS_guideXOS_Kernel_Drivers_Timer__OnInterrupt 0000000010094cd8     guideXOS.obj
 0004:00018cec       _unwind0guideXOS_guideXOS_Kernel_Drivers_Timer__Sleep 0000000010094cec     guideXOS.obj
 0004:00018d0c       _unwind0guideXOS_guideXOS_Kernel_Drivers_USBMSCBot__TryCreateDisk 0000000010094d0c     guideXOS.obj
 0004:00018d30       _unwind0guideXOS_guideXOS_Kernel_Drivers_VMWareSVGAII___ctor 0000000010094d30     guideXOS.obj
 0004:00018d6c       _unwind0guideXOS_guideXOS_Kernel_Drivers_VMWareSVGAII__InitializeFIFO 0000000010094d6c     guideXOS.obj
 0004:00018da0       _unwind0guideXOS_guideXOS_Kernel_Drivers_VMWareSVGAII__SetMode 0000000010094da0     guideXOS.obj
 0004:00018de8       _unwind0guideXOS_guideXOS_Kernel_Drivers_VMwareTools__Initialize 0000000010094de8     guideXOS.obj
 0004:00018df8       _unwind0guideXOS_guideXOS_Kernel_Drivers_VMwareTools__vmware_handle_mouse 0000000010094df8     guideXOS.obj
 0004:00018e24       _unwind0guideXOS_guideXOS_Kernel_Drivers_VMwareTools__mouse_absolute 0000000010094e24     guideXOS.obj
 0004:00018e4c       _unwind0guideXOS_guideXOS_Kernel_Drivers_VMwareTools__is_vmware_backdoor 0000000010094e4c     guideXOS.obj
 0004:00018e6c       _unwind0guideXOS_guideXOS_Kernel_Drivers_USBStorage__GetFirst 0000000010094e6c     guideXOS.obj
 0004:00018e78       _unwind0guideXOS_guideXOS_Kernel_Drivers_USBStorage___cctor 0000000010094e78     guideXOS.obj
 0004:00018e88       _unwind0guideXOS_guideXOS_OS_App__get__name 0000000010094e88     guideXOS.obj
 0004:00018e90       _unwind0guideXOS_guideXOS_OS_App__get__icon 0000000010094e90     guideXOS.obj
 0004:00018e98       _unwind0guideXOS_guideXOS_OS_App__get__appObject 0000000010094e98     guideXOS.obj
 0004:00018ea0       _unwind0guideXOS_guideXOS_OS_App__set__appObject 0000000010094ea0     guideXOS.obj
 0004:00018ea8       _unwind0guideXOS_guideXOS_OS_App__get_Name 0000000010094ea8     guideXOS.obj
 0004:00018eb0       _unwind0guideXOS_guideXOS_OS_App__get_Icon 0000000010094eb0     guideXOS.obj
 0004:00018eb8       _unwind0guideXOS_guideXOS_OS_App__get_AppObject 0000000010094eb8     guideXOS.obj
 0004:00018ec0       _unwind0guideXOS_guideXOS_OS_App__set_AppObject 0000000010094ec0     guideXOS.obj
 0004:00018ec8       _unwind0guideXOS_guideXOS_OS_AppCollection__Load 0000000010094ec8     guideXOS.obj
 0004:00018fe4       _unwind0guideXOS_guideXOS_OS_AppCollection__LaunchGXMFromFile 0000000010094fe4     guideXOS.obj
 0004:0001901c       _unwind0guideXOS_guideXOS_OS_AppCollection__get_Length 000000001009501c     guideXOS.obj
 0004:00019024       _unwind0guideXOS_guideXOS_OS_AppCollection__Name 0000000010095024     guideXOS.obj
 0004:00019038       _unwind0guideXOS_guideXOS_OS_AppCollection__Icon 0000000010095038     guideXOS.obj
 0004:0001904c       _unwind0guideXOS_guideXOS_OS_AuthClient__JsonEscape 000000001009504c     guideXOS.obj
 0004:00019084       _unwind0guideXOS_guideXOS_OS_AuthClient__ParseGuidFromJson 0000000010095084     guideXOS.obj
 0004:0001909c       _unwind0guideXOS_guideXOS_OS_AuthClient__IndexOfIgnoreCase 000000001009509c     guideXOS.obj
 0004:000190cc       _unwind0guideXOS_guideXOS_OS_AuthClient__IndexOfFrom 00000000100950cc     guideXOS.obj
 0004:000190e4       _unwind0guideXOS_guideXOS_OS_AuthClient__TryLogin 00000000100950e4     guideXOS.obj
 0004:0001910c       _unwind0guideXOS_guideXOS_OS_AuthClient__TryRegister 000000001009510c     guideXOS.obj
 0004:00019134       _unwind0guideXOS_guideXOS_OS_Configuration__Initialize 0000000010095134     guideXOS.obj
 0004:00019148       _unwind0guideXOS_guideXOS_OS_Configuration__LoadConfiguration 0000000010095148     guideXOS.obj
 0004:00019168       _unwind1guideXOS_guideXOS_OS_Configuration__LoadConfiguration 0000000010095168     guideXOS.obj
 0004:00019174       _unwind0guideXOS_guideXOS_OS_Configuration__SaveConfiguration 0000000010095174     guideXOS.obj
 0004:00019194       _unwind1guideXOS_guideXOS_OS_Configuration__SaveConfiguration 0000000010095194     guideXOS.obj
 0004:000191a0       _unwind0guideXOS_guideXOS_OS_Configuration__LoadUISettings 00000000100951a0     guideXOS.obj
 0004:00019218       _unwind1guideXOS_guideXOS_OS_Configuration__LoadUISettings 0000000010095218     guideXOS.obj
 0004:00019230       _unwind0guideXOS_guideXOS_OS_Configuration__SaveUISettings 0000000010095230     guideXOS.obj
 0004:000192f0       _unwind1guideXOS_guideXOS_OS_Configuration__SaveUISettings 00000000100952f0     guideXOS.obj
 0004:00019308       _unwind0guideXOS_guideXOS_OS_Configuration__FindValue 0000000010095308     guideXOS.obj
 0004:00019348       _unwind0guideXOS_guideXOS_OS_Configuration__ParseInt 0000000010095348     guideXOS.obj
 0004:00019368       _unwind0guideXOS_guideXOS_OS_Configuration__ParseBool 0000000010095368     guideXOS.obj
 0004:00019370       _unwind0guideXOS_guideXOS_OS_Configuration__GetBytesFromString 0000000010095370     guideXOS.obj
 0004:000193a0       _unwind0guideXOS_guideXOS_OS_Configuration__GetStringFromBytes 00000000100953a0     guideXOS.obj
 0004:000193c4       _unwind0guideXOS_guideXOS_OS_Firewall__ListHas 00000000100953c4     guideXOS.obj
 0004:000193d8       _unwind0guideXOS_guideXOS_OS_Firewall__get_Exceptions 00000000100953d8     guideXOS.obj
 0004:00019408       _unwind0guideXOS_guideXOS_OS_Firewall__AddException 0000000010095408     guideXOS.obj
 0004:00019420       _unwind0guideXOS_guideXOS_OS_Firewall__Check 0000000010095420     guideXOS.obj
 0004:0001943c       _unwind0guideXOS_guideXOS_OS_Firewall__QueueAlert 000000001009543c     guideXOS.obj
 0004:0001945c       _unwind0guideXOS_guideXOS_OS_Firewall__ShowAlert 000000001009545c     guideXOS.obj
 0004:00019474       _unwind0guideXOS_guideXOS_OS_Firewall__RemoveAlert 0000000010095474     guideXOS.obj
 0004:0001948c       _unwind0guideXOS_guideXOS_OS_Firewall___cctor 000000001009548c     guideXOS.obj
 0004:000194a4       _unwind0guideXOS_guideXOS_OS_SystemMode__get_IsLiveMode 00000000100954a4     guideXOS.obj
 0004:000194b4       _unwind0guideXOS_guideXOS_OS_SystemMode__DetectMode 00000000100954b4     guideXOS.obj
 0004:00019510       _unwind1guideXOS_guideXOS_OS_SystemMode__DetectMode 0000000010095510     guideXOS.obj
 0004:0001951c       _unwind0guideXOS_guideXOS_OS_SystemMode__CanWriteSettings 000000001009551c     guideXOS.obj
 0004:00019580       _unwind1guideXOS_guideXOS_OS_SystemMode__CanWriteSettings 0000000010095580     guideXOS.obj
 0004:00019598       _unwind0guideXOS_guideXOS_Modules_ModuleManager__Register 0000000010095598     guideXOS.obj
 0004:000195b0       _unwind0guideXOS_guideXOS_Modules_ModuleManager__InitializeBuiltins 00000000100955b0     guideXOS.obj
 0004:000195e4       _unwind0guideXOS_guideXOS_Modules_ModuleManager___cctor 00000000100955e4     guideXOS.obj
 0004:000195f4       _unwind0guideXOS_guideXOS_Misc_TrueTypeFont___ctor 00000000100955f4     guideXOS.obj
 0004:0001961c       _unwind0guideXOS_guideXOS_Misc_TrueTypeFont__ParseFont 000000001009561c     guideXOS.obj
 0004:000196a4       _unwind0guideXOS_guideXOS_Misc_TrueTypeFont__ParseHeadTable 00000000100956a4     guideXOS.obj
 0004:000196bc       _unwind0guideXOS_guideXOS_Misc_TrueTypeFont__ParseMaxpTable 00000000100956bc     guideXOS.obj
 0004:000196d4       _unwind0guideXOS_guideXOS_Misc_TrueTypeFont__ParseLocaTable 00000000100956d4     guideXOS.obj
 0004:00019738       _unwind0guideXOS_guideXOS_Misc_TrueTypeFont__ParseHheaTable 0000000010095738     guideXOS.obj
 0004:00019750       _unwind0guideXOS_guideXOS_Misc_TrueTypeFont__ParseHmtxTable 0000000010095750     guideXOS.obj
 0004:000197c4       _unwind0guideXOS_guideXOS_Misc_TrueTypeFont__ParseCmapTable 00000000100957c4     guideXOS.obj
 0004:0001983c       _unwind0guideXOS_guideXOS_Misc_TrueTypeFont__ParseCmapFormat4 000000001009583c     guideXOS.obj
 0004:00019898       _unwind0guideXOS_guideXOS_Misc_TrueTypeFont__LoadGlyphOutline 0000000010095898     guideXOS.obj
 0004:000199e4       _unwind0guideXOS_guideXOS_Misc_TrueTypeFont__RenderChar 00000000100959e4     guideXOS.obj
 0004:00019a18       _unwind0guideXOS_guideXOS_Misc_TrueTypeFont__RasterizeOutline 0000000010095a18     guideXOS.obj
 0004:00019a88       _unwind0guideXOS_guideXOS_Misc_TrueTypeFont__FindNextOnCurve 0000000010095a88     guideXOS.obj
 0004:00019aa0       _unwind0guideXOS_guideXOS_Misc_TrueTypeFont__DrawLine 0000000010095aa0     guideXOS.obj
 0004:00019ac4       _unwind0guideXOS_guideXOS_Misc_TrueTypeFont__DrawQuadraticBezier 0000000010095ac4     guideXOS.obj
 0004:00019af4       _unwind0guideXOS_guideXOS_Misc_TrueTypeFont__FloodFill 0000000010095af4     guideXOS.obj
 0004:00019b1c       _unwind0guideXOS_guideXOS_Misc_TrueTypeFont__DrawString 0000000010095b1c     guideXOS.obj
 0004:00019b7c       _unwind0guideXOS_guideXOS_Misc_TrueTypeFont__ReadInt16 0000000010095b7c     guideXOS.obj
 0004:00019b88       _unwind0guideXOS_guideXOS_Misc_TrueTypeFont__ReadUInt16 0000000010095b88     guideXOS.obj
 0004:00019b94       _unwind0guideXOS_guideXOS_Misc_TrueTypeFont__ReadUInt32 0000000010095b94     guideXOS.obj
 0004:00019ba8       _unwind0guideXOS_guideXOS_Misc_Audio__snd_write 0000000010095ba8     guideXOS.obj
 0004:00019bcc       _unwind0guideXOS_guideXOS_Misc_Audio__snd_clear 0000000010095bcc     guideXOS.obj
 0004:00019bd8       _unwind0guideXOS_guideXOS_Misc_Bitmap___ctor 0000000010095bd8     guideXOS.obj
 0004:00019c3c       _unwind0guideXOS_guideXOS_Misc_BootSplash__Initialize 0000000010095c3c     guideXOS.obj
 0004:00019c58       _unwind0guideXOS_guideXOS_Misc_BootSplash__Cleanup 0000000010095c58     guideXOS.obj
 0004:00019c68       _unwind0guideXOS_guideXOS_Misc_BootSplash__Tick 0000000010095c68     guideXOS.obj
 0004:00019d0c       _unwind1guideXOS_guideXOS_Misc_BootSplash__Tick 0000000010095d0c     guideXOS.obj
 0004:00019d24       _unwind0guideXOS_guideXOS_Misc_ClassID__GetName 0000000010095d24     guideXOS.obj
 0004:00019d30       _unwind0guideXOS_guideXOS_Misc_EntryPoint__KMain 0000000010095d30     guideXOS.obj
 0004:00019e1c       _unwind0guideXOS_guideXOS_Misc_EntryPoint__Entry 0000000010095e1c     guideXOS.obj
 0004:00019ee8       _unwind0guideXOS_guideXOS_Misc_EntryPoint__DetectArchitecture 0000000010095ee8     guideXOS.obj
 0004:00019f04       _unwind0guideXOS_guideXOS_Misc_EntryPoint__TestPointerIntegrity 0000000010095f04     guideXOS.obj
 0004:00019f10       _unwind0guideXOS_guideXOS_Misc_GXMLoader__TryExecute 0000000010095f10     guideXOS.obj
 0004:00019fe0       _unwind0guideXOS_guideXOS_Misc_GXMLoader__ApplyGuiLine 0000000010095fe0     guideXOS.obj
 0004:0001a2bc       _unwind0guideXOS_guideXOS_Misc_GXMLoader__NextField 00000000100962bc     guideXOS.obj
 0004:0001a2d4       _unwind0guideXOS_guideXOS_Misc_GXMLoader__IndexOf 00000000100962d4     guideXOS.obj
 0004:0001a2ec       _unwind0guideXOS_guideXOS_Misc_GXMLoader__StringEquals 00000000100962ec     guideXOS.obj
 0004:0001a314       _unwind0guideXOS_guideXOS_Misc_GXMLoader__ToInt 0000000010096314     guideXOS.obj
 0004:0001a334       _unwind0guideXOS_guideXOS_Misc_GXMLoader__ToBool 0000000010096334     guideXOS.obj
 0004:0001a340       _unwind0guideXOS_guideXOS_Misc_GXMLoader__ExtractUtf8 0000000010096340     guideXOS.obj
 0004:0001a380       _unwind0guideXOS_guideXOS_Misc_GXMLoader__ReadU32 0000000010096380     guideXOS.obj
 0004:0001a38c       _unwind0guideXOS_guideXOS_Misc_IFont__DrawChar 000000001009638c     guideXOS.obj
 0004:0001a3e0       _unwind0guideXOS_guideXOS_Misc_IFont__DrawString 00000000100963e0     guideXOS.obj
 0004:0001a400       _unwind0guideXOS_guideXOS_Misc_IFont__DrawString_0 0000000010096400     guideXOS.obj
 0004:0001a420       _unwind0guideXOS_guideXOS_Misc_IFont__MeasureString 0000000010096420     guideXOS.obj
 0004:0001a43c       _unwind0guideXOS_guideXOS_Misc_IFont__DrawString_1 000000001009643c     guideXOS.obj
 0004:0001a480       _unwind0guideXOS_guideXOS_Misc_Interrupts__EnableInterrupt_0 0000000010096480     guideXOS.obj
 0004:0001a498       _unwind0guideXOS_guideXOS_Misc_Interrupts__HandleInterrupt 0000000010096498     guideXOS.obj
 0004:0001a4c0       _unwind0guideXOS_guideXOS_Misc_Panic__Error 00000000100964c0     guideXOS.obj
 0004:0001a4f8       _unwind0guideXOS_guideXOS_Misc_Panic__ShowEnhancedCrashScreen 00000000100964f8     guideXOS.obj
 0004:0001a534       _unwind0guideXOS_guideXOS_Misc_Panic__DrawPanicHeader 0000000010096534     guideXOS.obj
 0004:0001a578       _unwind0guideXOS_guideXOS_Misc_Panic__DrawExceptionInfo 0000000010096578     guideXOS.obj
 0004:0001a6e0       _unwind0guideXOS_guideXOS_Misc_Panic__DrawRegisters 00000000100966e0     guideXOS.obj
 0004:0001a72c       _unwind0guideXOS_guideXOS_Misc_Panic__FormatRegister 000000001009672c     guideXOS.obj
 0004:0001a754       _unwind0guideXOS_guideXOS_Misc_Panic__DrawStackTrace 0000000010096754     guideXOS.obj
 0004:0001a814       _unwind1guideXOS_guideXOS_Misc_Panic__DrawStackTrace 0000000010096814     guideXOS.obj
 0004:0001a82c       _unwind0guideXOS_guideXOS_Misc_Panic__DrawSystemInfo 000000001009682c     guideXOS.obj
 0004:0001a910       _unwind1guideXOS_guideXOS_Misc_Panic__DrawSystemInfo 0000000010096910     guideXOS.obj
 0004:0001a928       _unwind2guideXOS_guideXOS_Misc_Panic__DrawSystemInfo 0000000010096928     guideXOS.obj
 0004:0001a940       _unwind0guideXOS_guideXOS_Misc_Panic__DrawTimingAnalysis 0000000010096940     guideXOS.obj
 0004:0001a9d0       _unwind1guideXOS_guideXOS_Misc_Panic__DrawTimingAnalysis 00000000100969d0     guideXOS.obj
 0004:0001a9e4       _unwind0guideXOS_guideXOS_Misc_Panic__DrawControlRegisters 00000000100969e4     guideXOS.obj
 0004:0001ab68       _unwind1guideXOS_guideXOS_Misc_Panic__DrawControlRegisters 0000000010096b68     guideXOS.obj
 0004:0001ab80       _unwind2guideXOS_guideXOS_Misc_Panic__DrawControlRegisters 0000000010096b80     guideXOS.obj
 0004:0001ab98       _unwind3guideXOS_guideXOS_Misc_Panic__DrawControlRegisters 0000000010096b98     guideXOS.obj
 0004:0001abb0       _unwind0guideXOS_guideXOS_Misc_Panic__DrawRFlagsBreakdown 0000000010096bb0     guideXOS.obj
 0004:0001abfc       _unwind0guideXOS_guideXOS_Misc_Panic__DrawSectionHeader 0000000010096bfc     guideXOS.obj
 0004:0001ac1c       _unwind0guideXOS_guideXOS_Misc_Panic__DrawFooter 0000000010096c1c     guideXOS.obj
 0004:0001ac34       _unwind0guideXOS_guideXOS_Misc_Panic__DrawText 0000000010096c34     guideXOS.obj
 0004:0001ac5c       _unwind1guideXOS_guideXOS_Misc_Panic__DrawText 0000000010096c5c     guideXOS.obj
 0004:0001ac6c       _unwind0guideXOS_guideXOS_Misc_Panic__DrawTextLarge 0000000010096c6c     guideXOS.obj
 0004:0001aca4       _unwind1guideXOS_guideXOS_Misc_Panic__DrawTextLarge 0000000010096ca4     guideXOS.obj
 0004:0001acbc       _unwind0guideXOS_guideXOS_Misc_Panic__GetExceptionName 0000000010096cbc     guideXOS.obj
 0004:0001acd0       _unwind0guideXOS_guideXOS_Misc_PNG__BuildFallback 0000000010096cd0     guideXOS.obj
 0004:0001ad00       _unwind0guideXOS_guideXOS_Misc_PNG__HasPngHeader 0000000010096d00     guideXOS.obj
 0004:0001ad08       _unwind0guideXOS_guideXOS_Misc_PNG__TryGetIHDRDims 0000000010096d08     guideXOS.obj
 0004:0001ad20       _unwind0guideXOS_guideXOS_Misc_PNG___ctor 0000000010096d20     guideXOS.obj
 0004:0001ad88       _unwind0guideXOS_guideXOS_Misc_PNG__lodepng_decode_memory 0000000010096d88     guideXOS.obj
 0004:0001adac       _unwind0guideXOS_guideXOS_Misc_SchedulerExtensions__EnterUserMode 0000000010096dac     guideXOS.obj
 0004:0001adc8       _unwind0guideXOS_guideXOS_Misc_SVG__BuildFallback 0000000010096dc8     guideXOS.obj
 0004:0001adf8       _unwind0guideXOS_guideXOS_Misc_SVG___ctor 0000000010096df8     guideXOS.obj
 0004:0001ae70       _unwind1guideXOS_guideXOS_Misc_SVG___ctor 0000000010096e70     guideXOS.obj
 0004:0001ae88       _unwind0guideXOS_guideXOS_Misc_SVG__RenderSVG 0000000010096e88     guideXOS.obj
 0004:0001af04       _unwind0guideXOS_guideXOS_Misc_SVG__GetMinIndex 0000000010096f04     guideXOS.obj
 0004:0001af14       _unwind0guideXOS_guideXOS_Misc_SVG__FindString 0000000010096f14     guideXOS.obj
 0004:0001af4c       _unwind0guideXOS_guideXOS_Misc_SVG__FindChar 0000000010096f4c     guideXOS.obj
 0004:0001af64       _unwind0guideXOS_guideXOS_Misc_SVG__RenderRectElement 0000000010096f64     guideXOS.obj
 0004:0001afd8       _unwind0guideXOS_guideXOS_Misc_SVG__RenderCircleElement 0000000010096fd8     guideXOS.obj
 0004:0001b03c       _unwind0guideXOS_guideXOS_Misc_SVG__RenderEllipseElement 000000001009703c     guideXOS.obj
 0004:0001b09c       _unwind0guideXOS_guideXOS_Misc_SVG__RenderPathElement 000000001009709c     guideXOS.obj
 0004:0001b160       _unwind0guideXOS_guideXOS_Misc_SVG__RenderPolygonElement 0000000010097160     guideXOS.obj
 0004:0001b1d0       _unwind0guideXOS_guideXOS_Misc_SVG__RenderPolylineElement 00000000100971d0     guideXOS.obj
 0004:0001b22c       _unwind0guideXOS_guideXOS_Misc_SVG__ParseNextNumber 000000001009722c     guideXOS.obj
 0004:0001b27c       _unwind0guideXOS_guideXOS_Misc_SVG__SplitString 000000001009727c     guideXOS.obj
 0004:0001b2f0       _unwind0guideXOS_guideXOS_Misc_SVG__DrawLine 00000000100972f0     guideXOS.obj
 0004:0001b310       _unwind0guideXOS_guideXOS_Misc_SVG__DrawRectStroke 0000000010097310     guideXOS.obj
 0004:0001b340       _unwind0guideXOS_guideXOS_Misc_SVG__ParseFloatAttr 0000000010097340     guideXOS.obj
 0004:0001b368       _unwind0guideXOS_guideXOS_Misc_SVG__ParseSimpleFloat 0000000010097368     guideXOS.obj
 0004:0001b388       _unwind0guideXOS_guideXOS_Misc_SVG__ParseColorAttr 0000000010097388     guideXOS.obj
 0004:0001b424       _unwind0guideXOS_guideXOS_Misc_SVG__SetPixel 0000000010097424     guideXOS.obj
 0004:0001b438       _unwind0guideXOS_guideXOS_Misc_Thread__NewThread 0000000010097438     guideXOS.obj
 0004:0001b450       _unwind0guideXOS_guideXOS_Misc_Thread__Start 0000000010097450     guideXOS.obj
 0004:0001b490       _unwind1guideXOS_guideXOS_Misc_Thread__Start 0000000010097490     guideXOS.obj
 0004:0001b4a8       _unwind0guideXOS_guideXOS_Misc_Thread__Start_0 00000000100974a8     guideXOS.obj
 0004:0001b4f4       _unwind1guideXOS_guideXOS_Misc_Thread__Start_0 00000000100974f4     guideXOS.obj
 0004:0001b50c       _unwind0guideXOS_guideXOS_Misc_Thread__Sleep 000000001009750c     guideXOS.obj
 0004:0001b514       _unwind0guideXOS_guideXOS_Misc_ThreadPool__Initialize 0000000010097514     guideXOS.obj
 0004:0001b584       _unwind0guideXOS_guideXOS_Misc_ThreadPool__Terminate 0000000010097584     guideXOS.obj
 0004:0001b5ac       _unwind0guideXOS_guideXOS_Misc_ThreadPool__IdleThread 00000000100975ac     guideXOS.obj
 0004:0001b5c8       _unwind0guideXOS_guideXOS_Misc_ThreadPool__get_CanLock 00000000100975c8     guideXOS.obj
 0004:0001b5d4       _unwind0guideXOS_guideXOS_Misc_ThreadPool__Lock 00000000100975d4     guideXOS.obj
 0004:0001b5e4       _unwind0guideXOS_guideXOS_Misc_ThreadPool__UnLock 00000000100975e4     guideXOS.obj
 0004:0001b5f0       _unwind0guideXOS_guideXOS_Misc_ThreadPool__Schedule 00000000100975f0     guideXOS.obj
 0004:0001b6b8       _unwind0guideXOS_guideXOS_Misc_UserModeStub__iret_to_user 00000000100976b8     guideXOS.obj
 0004:0001b6c4       _unwind0guideXOS_guideXOS_Misc_VendorID__GetName 00000000100976c4     guideXOS.obj
 0004:0001b6d0       _unwind0guideXOS_guideXOS_Misc_WAV__Decode 00000000100976d0     guideXOS.obj
 0004:0001b6fc       _unwind0guideXOS_guideXOS_GUI_BackgroundRotationManager__Initialize 00000000100976fc     guideXOS.obj
 0004:0001b7a0       _unwind1guideXOS_guideXOS_GUI_BackgroundRotationManager__Initialize 00000000100977a0     guideXOS.obj
 0004:0001b7b8       _unwind0guideXOS_guideXOS_GUI_BackgroundRotationManager__LoadBackgroundPaths 00000000100977b8     guideXOS.obj
 0004:0001b814       _unwind0guideXOS_guideXOS_GUI_BackgroundRotationManager__Update 0000000010097814     guideXOS.obj
 0004:0001b830       _unwind0guideXOS_guideXOS_GUI_BackgroundRotationManager__RotateToNext 0000000010097830     guideXOS.obj
 0004:0001b8b4       _unwind1guideXOS_guideXOS_GUI_BackgroundRotationManager__RotateToNext 00000000100978b4     guideXOS.obj
 0004:0001b8cc       _unwind0guideXOS_guideXOS_GUI_BackgroundRotationManager__StartFadeTransition 00000000100978cc     guideXOS.obj
 0004:0001b8e0       _unwind0guideXOS_guideXOS_GUI_BackgroundRotationManager__DrawBackground 00000000100978e0     guideXOS.obj
 0004:0001b8f4       _unwind0guideXOS_guideXOS_GUI_Busy__Pop 00000000100978f4     guideXOS.obj
 0004:0001b900       _unwind0guideXOS_guideXOS_GUI_Desktop__IsBootFromUSB 0000000010097900     guideXOS.obj
 0004:0001b92c       _unwind1guideXOS_guideXOS_GUI_Desktop__IsBootFromUSB 000000001009792c     guideXOS.obj
 0004:0001b938       _unwind0guideXOS_guideXOS_GUI_Desktop__ClearDirCache 0000000010097938     guideXOS.obj
 0004:0001b964       _unwind0guideXOS_guideXOS_GUI_Desktop__GetDirectoryEntries 0000000010097964     guideXOS.obj
 0004:0001b980       _unwind0guideXOS_guideXOS_GUI_Desktop__IsMouseOverAnyVisibleWindow 0000000010097980     guideXOS.obj
 0004:0001b9ac       _unwind0guideXOS_guideXOS_GUI_Desktop__SetIconSize 00000000100979ac     guideXOS.obj
 0004:0001b9b8       _unwind0guideXOS_guideXOS_GUI_Desktop__Update 00000000100979b8     guideXOS.obj
 0004:0001bea4       _unwind0guideXOS_guideXOS_GUI_Desktop__ClickEvent 0000000010097ea4     guideXOS.obj
 0004:0001bedc       _unwind0guideXOS_guideXOS_GUI_Desktop__OnClick 0000000010097edc     guideXOS.obj
 0004:0001c170       _unwind0guideXOS_guideXOS_GUI_DisplayOptions___ctor 0000000010098170     guideXOS.obj
 0004:0001c250       _unwind0guideXOS_guideXOS_GUI_DisplayOptions__LoadBackgrounds 0000000010098250     guideXOS.obj
 0004:0001c418       _unwind1guideXOS_guideXOS_GUI_DisplayOptions__LoadBackgrounds 0000000010098418     guideXOS.obj
 0004:0001c430       _unwind2guideXOS_guideXOS_GUI_DisplayOptions__LoadBackgrounds 0000000010098430     guideXOS.obj
 0004:0001c448       _unwind0guideXOS_guideXOS_GUI_DisplayOptions__LoadFonts 0000000010098448     guideXOS.obj
 0004:0001c494       _unwind0guideXOS_guideXOS_GUI_DisplayOptions__OnInput 0000000010098494     guideXOS.obj
 0004:0001c6e0       _unwind1guideXOS_guideXOS_GUI_DisplayOptions__OnInput 00000000100986e0     guideXOS.obj
 0004:0001c6f8       _unwind0guideXOS_guideXOS_GUI_DisplayOptions__RevertResolution 00000000100986f8     guideXOS.obj
 0004:0001c724       _unwind0guideXOS_guideXOS_GUI_DisplayOptions__ApplyGradient 0000000010098724     guideXOS.obj
 0004:0001c754       _unwind0guideXOS_guideXOS_GUI_DisplayOptions__CreateGradient 0000000010098754     guideXOS.obj
 0004:0001c7a4       _unwind0guideXOS_guideXOS_GUI_DisplayOptions__DrawGradientPreview 00000000100987a4     guideXOS.obj
 0004:0001c7f0       _unwind0guideXOS_guideXOS_GUI_DisplayOptions__ApplyFont 00000000100987f0     guideXOS.obj
 0004:0001c880       _unwind1guideXOS_guideXOS_GUI_DisplayOptions__ApplyFont 0000000010098880     guideXOS.obj
 0004:0001c894       _unwind0guideXOS_guideXOS_GUI_DisplayOptions__OnDraw 0000000010098894     guideXOS.obj
 0004:0001cebc       _unwind0guideXOS_guideXOS_GUI_DisplayOptions__Dispose 0000000010098ebc     guideXOS.obj
 0004:0001cf18       _unwind0guideXOS_guideXOS_GUI_ColorPicker__OnInput 0000000010098f18     guideXOS.obj
 0004:0001cf4c       _unwind0guideXOS_guideXOS_GUI_ColorPicker__OnDraw 0000000010098f4c     guideXOS.obj
 0004:0001cf88       _unwind0guideXOS_guideXOS_GUI_ColorPicker__SampleColor 0000000010098f88     guideXOS.obj
 0004:0001cf90       _unwind0guideXOS_guideXOS_GUI_DockableWidget__HandleDragging 0000000010098f90     guideXOS.obj
 0004:0001cfb0       _unwind0guideXOS_guideXOS_GUI_DockableWidget__CheckForDocking 0000000010098fb0     guideXOS.obj
 0004:0001d00c       _unwind0guideXOS_guideXOS_GUI_DockableWidget__IsNearWidget 000000001009900c     guideXOS.obj
 0004:0001d014       _unwind0guideXOS_guideXOS_GUI_DockableWidget__CreateContainerWith 0000000010099014     guideXOS.obj
 0004:0001d038       _unwind0guideXOS_guideXOS_GUI_DockableWidget__UndockFromContainer 0000000010099038     guideXOS.obj
 0004:0001d048       _unwind0guideXOS_guideXOS_GUI_DockableWidget__DrawCloseButton 0000000010099048     guideXOS.obj
 0004:0001d070       _unwind0guideXOS_guideXOS_GUI_GXMScriptWindow___ctor 0000000010099070     guideXOS.obj
 0004:0001d0ac       _unwind0guideXOS_guideXOS_GUI_GXMScriptWindow__AddTextBox 00000000100990ac     guideXOS.obj
 0004:0001d0c8       _unwind0guideXOS_guideXOS_GUI_GXMScriptWindow__AddList 00000000100990c8     guideXOS.obj
 0004:0001d120       _unwind0guideXOS_guideXOS_GUI_GXMScriptWindow__AddDropdown 0000000010099120     guideXOS.obj
 0004:0001d178       _unwind0guideXOS_guideXOS_GUI_GXMScriptWindow__AddOnClick 0000000010099178     guideXOS.obj
 0004:0001d190       _unwind0guideXOS_guideXOS_GUI_GXMScriptWindow__AddOnChange 0000000010099190     guideXOS.obj
 0004:0001d1a8       _unwind0guideXOS_guideXOS_GUI_GXMScriptWindow__AddOnTextChange 00000000100991a8     guideXOS.obj
 0004:0001d1c0       _unwind0guideXOS_guideXOS_GUI_GXMScriptWindow__Keyboard_OnKeyChanged 00000000100991c0     guideXOS.obj
 0004:0001d258       _unwind0guideXOS_guideXOS_GUI_GXMScriptWindow__MapFromKey 0000000010099258     guideXOS.obj
 0004:0001d268       _unwind0guideXOS_guideXOS_GUI_GXMScriptWindow__OnInput 0000000010099268     guideXOS.obj
 0004:0001d304       _unwind0guideXOS_guideXOS_GUI_GXMScriptWindow__RunActions 0000000010099304     guideXOS.obj
 0004:0001d354       _unwind0guideXOS_guideXOS_GUI_GXMScriptWindow__ExecuteAction 0000000010099354     guideXOS.obj
 0004:0001d47c       _unwind0guideXOS_guideXOS_GUI_GXMScriptWindow__ExecuteTextAction 000000001009947c     guideXOS.obj
 0004:0001d4a8       _unwind0guideXOS_guideXOS_GUI_GXMScriptWindow__ReplaceToken 00000000100994a8     guideXOS.obj
 0004:0001d4dc       _unwind0guideXOS_guideXOS_GUI_GXMScriptWindow__IndexOf 00000000100994dc     guideXOS.obj
 0004:0001d50c       _unwind0guideXOS_guideXOS_GUI_GXMScriptWindow__ParseInt 000000001009950c     guideXOS.obj
 0004:0001d52c       _unwind0guideXOS_guideXOS_GUI_GXMScriptWindow__SaveFileAction 000000001009952c     guideXOS.obj
 0004:0001d648       _unwind1guideXOS_guideXOS_GUI_GXMScriptWindow__SaveFileAction 0000000010099648     guideXOS.obj
 0004:0001d660       _unwind0guideXOS_guideXOS_GUI_GXMScriptWindow__LoadFileAction 0000000010099660     guideXOS.obj
 0004:0001d838       _unwind1guideXOS_guideXOS_GUI_GXMScriptWindow__LoadFileAction 0000000010099838     guideXOS.obj
 0004:0001d850       _unwind0guideXOS_guideXOS_GUI_GXMScriptWindow__SaveTextFromTextBox 0000000010099850     guideXOS.obj
 0004:0001d900       _unwind1guideXOS_guideXOS_GUI_GXMScriptWindow__SaveTextFromTextBox 0000000010099900     guideXOS.obj
 0004:0001d918       _unwind0guideXOS_guideXOS_GUI_GXMScriptWindow__LoadTextIntoTextBox 0000000010099918     guideXOS.obj
 0004:0001d9f4       _unwind1guideXOS_guideXOS_GUI_GXMScriptWindow__LoadTextIntoTextBox 00000000100999f4     guideXOS.obj
 0004:0001da0c       _unwind0guideXOS_guideXOS_GUI_GXMScriptWindow__OpenSaveDialogForTextBox 0000000010099a0c     guideXOS.obj
 0004:0001da38       _unwind0guideXOS_guideXOS_GUI_GXMScriptWindow__OpenOpenDialogForTextBox 0000000010099a38     guideXOS.obj
 0004:0001da5c       _unwind0guideXOS_guideXOS_GUI_GXMScriptWindow__LoadAndExecuteScript 0000000010099a5c     guideXOS.obj
 0004:0001db5c       _unwind1guideXOS_guideXOS_GUI_GXMScriptWindow__LoadAndExecuteScript 0000000010099b5c     guideXOS.obj
 0004:0001db74       _unwind0guideXOS_guideXOS_GUI_GXMScriptWindow__Notify 0000000010099b74     guideXOS.obj
 0004:0001db8c       _unwind0guideXOS_guideXOS_GUI_GXMScriptWindow__OnDraw 0000000010099b8c     guideXOS.obj
 0004:0001dbf4       _unwind0guideXOS_guideXOS_GUI_GXMScriptWindow__Dispose 0000000010099bf4     guideXOS.obj
 0004:0001de58       _unwind0guideXOS_guideXOS_GUI_GXMScriptWindow___OpenSaveDialogForTextBox_b__40_0 0000000010099e58     guideXOS.obj
 0004:0001defc       _unwind1guideXOS_guideXOS_GUI_GXMScriptWindow___OpenSaveDialogForTextBox_b__40_0 0000000010099efc     guideXOS.obj
 0004:0001df14       _unwind0guideXOS_guideXOS_GUI_GXMScriptWindow___OpenOpenDialogForTextBox_b__41_0 0000000010099f14     guideXOS.obj
 0004:0001dfc8       _unwind1guideXOS_guideXOS_GUI_GXMScriptWindow___OpenOpenDialogForTextBox_b__41_0 0000000010099fc8     guideXOS.obj
 0004:0001dfe0       _unwind0guideXOS_guideXOS_GUI_IconsPrivate___ctor 0000000010099fe0     guideXOS.obj
 0004:0001e12c       _unwind0guideXOS_guideXOS_GUI_IconsPrivate__LoadIcon 000000001009a12c     guideXOS.obj
 0004:0001e190       _unwind1guideXOS_guideXOS_GUI_IconsPrivate__LoadIcon 000000001009a190     guideXOS.obj
 0004:0001e1a0       _unwind0guideXOS_guideXOS_GUI_Icons__DocumentIcon 000000001009a1a0     guideXOS.obj
 0004:0001e1b0       _unwind0guideXOS_guideXOS_GUI_Icons__ImageIcon 000000001009a1b0     guideXOS.obj
 0004:0001e1c0       _unwind0guideXOS_guideXOS_GUI_Icons__AudioIcon 000000001009a1c0     guideXOS.obj
 0004:0001e1d0       _unwind0guideXOS_guideXOS_GUI_Icons__FolderIcon 000000001009a1d0     guideXOS.obj
 0004:0001e1e0       _unwind0guideXOS_guideXOS_GUI_Icons__TaskbarIcon 000000001009a1e0     guideXOS.obj
 0004:0001e1f0       _unwind0guideXOS_guideXOS_GUI_Icons__TaskbarIconOver 000000001009a1f0     guideXOS.obj
 0004:0001e200       _unwind0guideXOS_guideXOS_GUI_Icons__TaskbarIconDown 000000001009a200     guideXOS.obj
 0004:0001e210       _unwind0guideXOS_guideXOS_GUI_Icons___cctor 000000001009a210     guideXOS.obj
 0004:0001e230       _unwind0guideXOS_guideXOS_GUI_Lockscreen__Run 000000001009a230     guideXOS.obj
 0004:0001e2a4       _unwind0guideXOS_guideXOS_GUI_Lockscreen__DrawLockscreenUI 000000001009a2a4     guideXOS.obj
 0004:0001e360       _unwind0guideXOS_guideXOS_GUI_MessageBox__SetText 000000001009a360     guideXOS.obj
 0004:0001e380       _unwind0guideXOS_guideXOS_GUI_NetworkConfigurationDialog___ctor 000000001009a380     guideXOS.obj
 0004:0001e3a8       _unwind0guideXOS_guideXOS_GUI_NetworkConfigurationDialog__LoadCurrentConfig 000000001009a3a8     guideXOS.obj
 0004:0001e3dc       _unwind0guideXOS_guideXOS_GUI_NetworkConfigurationDialog__Keyboard_OnKeyChanged 000000001009a3dc     guideXOS.obj
 0004:0001e408       _unwind0guideXOS_guideXOS_GUI_NetworkConfigurationDialog__OnInput 000000001009a408     guideXOS.obj
 0004:0001e468       _unwind0guideXOS_guideXOS_GUI_NetworkConfigurationDialog__GetOctetArray 000000001009a468     guideXOS.obj
 0004:0001e470       _unwind0guideXOS_guideXOS_GUI_NetworkConfigurationDialog__ApplyConfiguration 000000001009a470     guideXOS.obj
 0004:0001e530       _unwind1guideXOS_guideXOS_GUI_NetworkConfigurationDialog__ApplyConfiguration 000000001009a530     guideXOS.obj
 0004:0001e548       _unwind2guideXOS_guideXOS_GUI_NetworkConfigurationDialog__ApplyConfiguration 000000001009a548     guideXOS.obj
 0004:0001e560       _unwind0guideXOS_guideXOS_GUI_NetworkConfigurationDialog__ParseOctet 000000001009a560     guideXOS.obj
 0004:0001e57c       _unwind0guideXOS_guideXOS_GUI_NetworkConfigurationDialog__OnDraw 000000001009a57c     guideXOS.obj
 0004:0001e5f8       _unwind0guideXOS_guideXOS_GUI_NetworkConfigurationDialog__DrawRadioButton 000000001009a5f8     guideXOS.obj
 0004:0001e628       _unwind0guideXOS_guideXOS_GUI_NetworkConfigurationDialog__DrawIPFields 000000001009a628     guideXOS.obj
 0004:0001e680       _unwind0guideXOS_guideXOS_GUI_NetworkConfigurationDialog__DrawButton 000000001009a680     guideXOS.obj
 0004:0001e6ac       _unwind0guideXOS_guideXOS_GUI_NetworkConfigurationDialog__Dispose 000000001009a6ac     guideXOS.obj
 0004:0001e6d4       _unwind0guideXOS_guideXOS_GUI_Notify___ctor 000000001009a6d4     guideXOS.obj
 0004:0001e6f0       _unwind0guideXOS_guideXOS_GUI_Notify__Dispose 000000001009a6f0     guideXOS.obj
 0004:0001e71c       _unwind0guideXOS_guideXOS_GUI_NotificationManager__Add 000000001009a71c     guideXOS.obj
 0004:0001e730       _unwind0guideXOS_guideXOS_GUI_OnScreenKeyboard__OnInput 000000001009a730     guideXOS.obj
 0004:0001e790       _unwind0guideXOS_guideXOS_GUI_OnScreenKeyboard__SendKey 000000001009a790     guideXOS.obj
 0004:0001e7a4       _unwind0guideXOS_guideXOS_GUI_OnScreenKeyboard__CharToConsoleKey 000000001009a7a4     guideXOS.obj
 0004:0001e7b0       _unwind0guideXOS_guideXOS_GUI_OnScreenKeyboard__OnDraw 000000001009a7b0     guideXOS.obj
 0004:0001e828       _unwind0guideXOS_guideXOS_GUI_OnScreenKeyboard__DrawKey 000000001009a828     guideXOS.obj
 0004:0001e850       _unwind0guideXOS_guideXOS_GUI_OnScreenKeyboard__DrawSpecialKey 000000001009a850     guideXOS.obj
 0004:0001e878       _unwind0guideXOS_guideXOS_GUI_OnScreenKeyboard___cctor 000000001009a878     guideXOS.obj
 0004:0001e88c       _unwind0guideXOS_guideXOS_GUI_OpenDialog___ctor 000000001009a88c     guideXOS.obj
 0004:0001e8b0       _unwind0guideXOS_guideXOS_GUI_OpenDialog__Keyboard_OnKeyChanged 000000001009a8b0     guideXOS.obj
 0004:0001e8f0       _unwind0guideXOS_guideXOS_GUI_OpenDialog__VisibleRows 000000001009a8f0     guideXOS.obj
 0004:0001e8f8       _unwind0guideXOS_guideXOS_GUI_OpenDialog__RefreshEntries 000000001009a8f8     guideXOS.obj
 0004:0001e928       _unwind0guideXOS_guideXOS_GUI_OpenDialog__GoUp 000000001009a928     guideXOS.obj
 0004:0001e940       _unwind0guideXOS_guideXOS_GUI_OpenDialog__OpenSelected 000000001009a940     guideXOS.obj
 0004:0001e96c       _unwind0guideXOS_guideXOS_GUI_OpenDialog__OnInput 000000001009a96c     guideXOS.obj
 0004:0001e994       _unwind0guideXOS_guideXOS_GUI_OpenDialog__OnDraw 000000001009a994     guideXOS.obj
 0004:0001ea08       _unwind0guideXOS_guideXOS_GUI_PinnedManager__IsPinned 000000001009aa08     guideXOS.obj
 0004:0001ea20       _unwind0guideXOS_guideXOS_GUI_PinnedManager__PinApp 000000001009aa20     guideXOS.obj
 0004:0001ea40       _unwind0guideXOS_guideXOS_GUI_PinnedManager__PinFile 000000001009aa40     guideXOS.obj
 0004:0001ea68       _unwind0guideXOS_guideXOS_GUI_PinnedManager__PinComputerFiles 000000001009aa68     guideXOS.obj
 0004:0001ea84       _unwind0guideXOS_guideXOS_GUI_PinnedManager___cctor 000000001009aa84     guideXOS.obj
 0004:0001ea94       _unwind0guideXOS_guideXOS_GUI_RecentManager__AddProgram 000000001009aa94     guideXOS.obj
 0004:0001eac8       _unwind0guideXOS_guideXOS_GUI_RecentManager__AddDocument 000000001009aac8     guideXOS.obj
 0004:0001eafc       _unwind0guideXOS_guideXOS_GUI_RecentManager___cctor 000000001009aafc     guideXOS.obj
 0004:0001eb14       _unwind0guideXOS_guideXOS_GUI_RightMenu___ctor 000000001009ab14     guideXOS.obj
 0004:0001eb24       _unwind0guideXOS_guideXOS_GUI_RightMenu__OnSetVisible 000000001009ab24     guideXOS.obj
 0004:0001eb34       _unwind0guideXOS_guideXOS_GUI_RightMenu__OnInput 000000001009ab34     guideXOS.obj
 0004:0001ec08       _unwind0guideXOS_guideXOS_GUI_RightMenu__Hit 000000001009ac08     guideXOS.obj
 0004:0001ec10       _unwind0guideXOS_guideXOS_GUI_RightMenu__OnDraw 000000001009ac10     guideXOS.obj
 0004:0001ec90       _unwind0guideXOS_guideXOS_GUI_SaveChangesDialog___ctor 000000001009ac90     guideXOS.obj
 0004:0001eca8       _unwind0guideXOS_guideXOS_GUI_SaveChangesDialog__OnInput 000000001009aca8     guideXOS.obj
 0004:0001ecd0       _unwind0guideXOS_guideXOS_GUI_SaveChangesDialog__OnDraw 000000001009acd0     guideXOS.obj
 0004:0001ed04       _unwind0guideXOS_guideXOS_GUI_SaveDialog___ctor 000000001009ad04     guideXOS.obj
 0004:0001ed30       _unwind0guideXOS_guideXOS_GUI_SaveDialog__RefreshEntries 000000001009ad30     guideXOS.obj
 0004:0001ed60       _unwind0guideXOS_guideXOS_GUI_SaveDialog__GoUp 000000001009ad60     guideXOS.obj
 0004:0001ed78       _unwind0guideXOS_guideXOS_GUI_SaveDialog__Keyboard_OnKeyChanged 000000001009ad78     guideXOS.obj
 0004:0001edb4       _unwind0guideXOS_guideXOS_GUI_SaveDialog__VisibleRows 000000001009adb4     guideXOS.obj
 0004:0001edbc       _unwind0guideXOS_guideXOS_GUI_SaveDialog__StartsWithFast 000000001009adbc     guideXOS.obj
 0004:0001ede8       _unwind0guideXOS_guideXOS_GUI_SaveDialog__FuzzyResolveIfUnique 000000001009ade8     guideXOS.obj
 0004:0001ee3c       _unwind0guideXOS_guideXOS_GUI_SaveDialog__SaveAction 000000001009ae3c     guideXOS.obj
 0004:0001ee64       _unwind0guideXOS_guideXOS_GUI_SaveDialog__OnInput 000000001009ae64     guideXOS.obj
 0004:0001ee8c       _unwind0guideXOS_guideXOS_GUI_SaveDialog__OnDraw 000000001009ae8c     guideXOS.obj
 0004:0001eef0       _unwind0guideXOS_guideXOS_GUI_ShutdownDialog___ctor 000000001009aef0     guideXOS.obj
 0004:0001ef00       _unwind0guideXOS_guideXOS_GUI_ShutdownDialog__OnInput 000000001009af00     guideXOS.obj
 0004:0001ef1c       _unwind0guideXOS_guideXOS_GUI_ShutdownDialog__OnDraw 000000001009af1c     guideXOS.obj
 0004:0001ef54       _unwind0guideXOS_guideXOS_GUI_SpecialEffects__NextRandom 000000001009af54     guideXOS.obj
 0004:0001ef60       _unwind0guideXOS_guideXOS_GUI_SpecialEffects__EnsureTablesInitialized 000000001009af60     guideXOS.obj
 0004:0001ef74       _unwind0guideXOS_guideXOS_GUI_SpecialEffects__FastSin 000000001009af74     guideXOS.obj
 0004:0001ef84       _unwind0guideXOS_guideXOS_GUI_SpecialEffects__FastCos 000000001009af84     guideXOS.obj
 0004:0001ef94       _unwind0guideXOS_guideXOS_GUI_SpecialEffects__IntSqrt 000000001009af94     guideXOS.obj
 0004:0001efa4       _unwind0guideXOS_guideXOS_GUI_SpecialEffects__GetRandomEffect 000000001009afa4     guideXOS.obj
 0004:0001efb0       _unwind0guideXOS_guideXOS_GUI_SpecialEffects__RenderEffect 000000001009afb0     guideXOS.obj
 0004:0001efdc       _unwind1guideXOS_guideXOS_GUI_SpecialEffects__RenderEffect 000000001009afdc     guideXOS.obj
 0004:0001eff4       _unwind0guideXOS_guideXOS_GUI_SpecialEffects__RenderDigitize 000000001009aff4     guideXOS.obj
 0004:0001f034       _unwind0guideXOS_guideXOS_GUI_SpecialEffects__RenderDerezz 000000001009b034     guideXOS.obj
 0004:0001f080       _unwind0guideXOS_guideXOS_GUI_SpecialEffects__RenderBurnIn 000000001009b080     guideXOS.obj
 0004:0001f0b8       _unwind0guideXOS_guideXOS_GUI_SpecialEffects__RenderBurnOut 000000001009b0b8     guideXOS.obj
 0004:0001f0dc       _unwind0guideXOS_guideXOS_GUI_SpecialEffects__RenderSmokeIn 000000001009b0dc     guideXOS.obj
 0004:0001f110       _unwind0guideXOS_guideXOS_GUI_SpecialEffects__RenderSmokeOut 000000001009b110     guideXOS.obj
 0004:0001f140       _unwind0guideXOS_guideXOS_GUI_SpecialEffects__RenderGlitch 000000001009b140     guideXOS.obj
 0004:0001f178       _unwind0guideXOS_guideXOS_GUI_SpecialEffects__RenderRipple 000000001009b178     guideXOS.obj
 0004:0001f1a8       _unwind0guideXOS_guideXOS_GUI_SpecialEffects__RenderExplode 000000001009b1a8     guideXOS.obj
 0004:0001f1d0       _unwind0guideXOS_guideXOS_GUI_SpecialEffects__RenderImplode 000000001009b1d0     guideXOS.obj
 0004:0001f204       _unwind0guideXOS_guideXOS_GUI_StartMenu___ctor 000000001009b204     guideXOS.obj
 0004:0001f214       _unwind0guideXOS_guideXOS_GUI_StartMenu__OnSetVisible 000000001009b214     guideXOS.obj
 0004:0001f22c       _unwind0guideXOS_guideXOS_GUI_StartMenu__BuildBackgroundBlurCache 000000001009b22c     guideXOS.obj
 0004:0001f2ec       _unwind0guideXOS_guideXOS_GUI_StartMenu__RefreshRecentCacheIfNeeded 000000001009b2ec     guideXOS.obj
 0004:0001f344       _unwind0guideXOS_guideXOS_GUI_StartMenu__OnInput 000000001009b344     guideXOS.obj
 0004:0001f47c       _unwind0guideXOS_guideXOS_GUI_StartMenu__OnDraw 000000001009b47c     guideXOS.obj
 0004:0001fb88       _unwind0guideXOS_guideXOS_GUI_StartMenu__ToggleAllPrograms 000000001009bb88     guideXOS.obj
 0004:0001fb98       _unwind0guideXOS_guideXOS_GUI_StartMenu__BuildAllProgramsOrder 000000001009bb98     guideXOS.obj
 0004:0001fc5c       _unwind0guideXOS_guideXOS_GUI_StartMenu__CompareIgnoreCase 000000001009bc5c     guideXOS.obj
 0004:0001fc84       _unwind0guideXOS_guideXOS_GUI_StartMenu__TruncateToWidth 000000001009bc84     guideXOS.obj
 0004:0001fcb4       _unwind0guideXOS_guideXOS_GUI_Taskbar__get_IsWorkspaceSwitcherVisible 000000001009bcb4     guideXOS.obj
 0004:0001fcbc       _unwind0guideXOS_guideXOS_GUI_Taskbar__CloseWorkspaceSwitcher 000000001009bcbc     guideXOS.obj
 0004:0001fcc4       _unwind0guideXOS_guideXOS_GUI_Taskbar__ShowWorkspaceSwitcher 000000001009bcc4     guideXOS.obj
 0004:0001fccc       _unwind0guideXOS_guideXOS_GUI_Taskbar__DrawWorkspaceSwitcher 000000001009bccc     guideXOS.obj
 0004:0001fcdc       _unwind0guideXOS_guideXOS_GUI_Taskbar__Draw 000000001009bcdc     guideXOS.obj
 0004:00020418       _unwind0guideXOS_guideXOS_GUI_Taskbar__ToggleShowDesktop 000000001009c418     guideXOS.obj
 0004:0002046c       _unwind0guideXOS_guideXOS_GUI_Taskbar__OpenOnScreenKeyboard 000000001009c46c     guideXOS.obj
 0004:000204bc       _unwind0guideXOS_guideXOS_GUI_Taskbar__StartAnimation 000000001009c4bc     guideXOS.obj
 0004:000204d0       _unwind0guideXOS_guideXOS_GUI_Taskbar__UpdateAnimation 000000001009c4d0     guideXOS.obj
 0004:000204e4       _unwind0guideXOS_guideXOS_GUI_TaskbarMenu__OnSetVisible 000000001009c4e4     guideXOS.obj
 0004:000204f8       _unwind0guideXOS_guideXOS_GUI_TaskbarMenu__OnInput 000000001009c4f8     guideXOS.obj
 0004:00020538       _unwind0guideXOS_guideXOS_GUI_TaskbarMenu__OnDraw 000000001009c538     guideXOS.obj
 0004:0002055c       _unwind0guideXOS_guideXOS_GUI_UI__IsMouseOver 000000001009c55c     guideXOS.obj
 0004:00020570       _unwind0guideXOS_guideXOS_GUI_UI__ButtonFillColor 000000001009c570     guideXOS.obj
 0004:00020580       _unwind0guideXOS_guideXOS_GUI_UIPrimitives__AFillRoundedRect 000000001009c580     guideXOS.obj
 0004:000205bc       _unwind0guideXOS_guideXOS_GUI_UIPrimitives__AFillRoundedRectTop 000000001009c5bc     guideXOS.obj
 0004:000205f0       _unwind0guideXOS_guideXOS_GUI_UIPrimitives__DrawRoundedRect 000000001009c5f0     guideXOS.obj
 0004:00020658       _unwind0guideXOS_guideXOS_GUI_UIPrimitives__CornerInset 000000001009c658     guideXOS.obj
 0004:00020660       _unwind0guideXOS_guideXOS_GUI_USBDrives__RefreshList 000000001009c660     guideXOS.obj
 0004:000206dc       _unwind0guideXOS_guideXOS_GUI_USBDrives__FormatSize 000000001009c6dc     guideXOS.obj
 0004:000206f4       _unwind0guideXOS_guideXOS_GUI_USBDrives__OnInput 000000001009c6f4     guideXOS.obj
 0004:00020740       _unwind0guideXOS_guideXOS_GUI_USBDrives__OnDraw 000000001009c740     guideXOS.obj
 0004:000207e0       _unwind0guideXOS_guideXOS_GUI_USBFiles___ctor 000000001009c7e0     guideXOS.obj
 0004:000207fc       _unwind0guideXOS_guideXOS_GUI_USBFiles__LoadIcons 000000001009c7fc     guideXOS.obj
 0004:00020830       _unwind1guideXOS_guideXOS_GUI_USBFiles__LoadIcons 000000001009c830     guideXOS.obj
 0004:0002083c       _unwind2guideXOS_guideXOS_GUI_USBFiles__LoadIcons 000000001009c83c     guideXOS.obj
 0004:00020848       _unwind0guideXOS_guideXOS_GUI_USBFiles__InitLocalFS 000000001009c848     guideXOS.obj
 0004:000208b4       _unwind1guideXOS_guideXOS_GUI_USBFiles__InitLocalFS 000000001009c8b4     guideXOS.obj
 0004:000208c4       _unwind2guideXOS_guideXOS_GUI_USBFiles__InitLocalFS 000000001009c8c4     guideXOS.obj
 0004:000208d4       _unwind0guideXOS_guideXOS_GUI_USBFiles__RefreshEntries 000000001009c8d4     guideXOS.obj
 0004:00020968       _unwind1guideXOS_guideXOS_GUI_USBFiles__RefreshEntries 000000001009c968     guideXOS.obj
 0004:00020980       _unwind0guideXOS_guideXOS_GUI_USBFiles__OnInput 000000001009c980     guideXOS.obj
 0004:000209e4       _unwind0guideXOS_guideXOS_GUI_USBFiles__OnDraw 000000001009c9e4     guideXOS.obj
 0004:00020a58       _unwind0guideXOS_guideXOS_GUI_VisualEffectsSettings___ctor 000000001009ca58     guideXOS.obj
 0004:00020a68       _unwind0guideXOS_guideXOS_GUI_VisualEffectsSettings__LoadSettings 000000001009ca68     guideXOS.obj
 0004:00020a78       _unwind0guideXOS_guideXOS_GUI_VisualEffectsSettings__OnInput 000000001009ca78     guideXOS.obj
 0004:00020abc       _unwind0guideXOS_guideXOS_GUI_VisualEffectsSettings__ProcessTabInput 000000001009cabc     guideXOS.obj
 0004:00020ad4       _unwind0guideXOS_guideXOS_GUI_VisualEffectsSettings__ProcessAnimationsInput 000000001009cad4     guideXOS.obj
 0004:00020af8       _unwind0guideXOS_guideXOS_GUI_VisualEffectsSettings__ProcessVisualEffectsInput 000000001009caf8     guideXOS.obj
 0004:00020b30       _unwind0guideXOS_guideXOS_GUI_VisualEffectsSettings__ProcessWindowRenderingInput 000000001009cb30     guideXOS.obj
 0004:00020b5c       _unwind0guideXOS_guideXOS_GUI_VisualEffectsSettings__ProcessPerformanceInput 000000001009cb5c     guideXOS.obj
 0004:00020b84       _unwind0guideXOS_guideXOS_GUI_VisualEffectsSettings__ProcessWidgetsInput 000000001009cb84     guideXOS.obj
 0004:00020bac       _unwind0guideXOS_guideXOS_GUI_VisualEffectsSettings__CheckCheckbox 000000001009cbac     guideXOS.obj
 0004:00020bb4       _unwind0guideXOS_guideXOS_GUI_VisualEffectsSettings__CheckSlider 000000001009cbb4     guideXOS.obj
 0004:00020bbc       _unwind0guideXOS_guideXOS_GUI_VisualEffectsSettings__OnDraw 000000001009cbbc     guideXOS.obj
 0004:00020c14       _unwind0guideXOS_guideXOS_GUI_VisualEffectsSettings__DrawAnimationsTab 000000001009cc14     guideXOS.obj
 0004:00020c38       _unwind0guideXOS_guideXOS_GUI_VisualEffectsSettings__DrawVisualEffectsTab 000000001009cc38     guideXOS.obj
 0004:00020c74       _unwind0guideXOS_guideXOS_GUI_VisualEffectsSettings__DrawWindowRenderingTab 000000001009cc74     guideXOS.obj
 0004:00020ca0       _unwind0guideXOS_guideXOS_GUI_VisualEffectsSettings__DrawPerformanceTab 000000001009cca0     guideXOS.obj
 0004:00020cc4       _unwind0guideXOS_guideXOS_GUI_VisualEffectsSettings__DrawWidgetsTab 000000001009ccc4     guideXOS.obj
 0004:00020cec       _unwind0guideXOS_guideXOS_GUI_VisualEffectsSettings__DrawTitle 000000001009ccec     guideXOS.obj
 0004:00020d10       _unwind0guideXOS_guideXOS_GUI_VisualEffectsSettings__DrawSubtitle 000000001009cd10     guideXOS.obj
 0004:00020d34       _unwind0guideXOS_guideXOS_GUI_VisualEffectsSettings__DrawCheckboxWithLabel 000000001009cd34     guideXOS.obj
 0004:00020d4c       _unwind0guideXOS_guideXOS_GUI_VisualEffectsSettings__DrawSliderWithLabel 000000001009cd4c     guideXOS.obj
 0004:00020d7c       _unwind0guideXOS_guideXOS_GUI_VisualEffectsSettings__DrawCheckbox 000000001009cd7c     guideXOS.obj
 0004:00020da0       _unwind0guideXOS_guideXOS_GUI_VisualEffectsSettings__DrawSlider 000000001009cda0     guideXOS.obj
 0004:00020dc4       _unwind0guideXOS_guideXOS_GUI_VisualEffectsSettings__DrawScrollbar 000000001009cdc4     guideXOS.obj
 0004:00020de4       _unwind0guideXOS_guideXOS_GUI_VisualEffectsSettings__DrawButtons 000000001009cde4     guideXOS.obj
 0004:00020e14       _unwind0guideXOS_guideXOS_GUI_VisualEffectsSettings__GetCurrentTabHeight 000000001009ce14     guideXOS.obj
 0004:00020e1c       _unwind0guideXOS_guideXOS_GUI_VisualEffectsSettings__ApplySettings 000000001009ce1c     guideXOS.obj
 0004:00020e34       _unwind0guideXOS_guideXOS_GUI_VisualEffectsSettings__ResetToDefaults 000000001009ce34     guideXOS.obj
 0004:00020e48       _unwind0guideXOS_guideXOS_GUI_VisualEffectsSettings__ProcessSpecialEffectsInput 000000001009ce48     guideXOS.obj
 0004:00020e74       _unwind0guideXOS_guideXOS_GUI_VisualEffectsSettings__DrawSpecialEffectsTab 000000001009ce74     guideXOS.obj
 0004:00020ea0       _unwind0guideXOS_guideXOS_GUI_VisualEffectsSettings__CheckDropdown 000000001009cea0     guideXOS.obj
 0004:00020ea8       _unwind0guideXOS_guideXOS_GUI_VisualEffectsSettings__DrawDropdownWithLabel 000000001009cea8     guideXOS.obj
 0004:00020ed4       _unwind0guideXOS_guideXOS_GUI_VisualEffectsSettings__DrawDropdownOptions 000000001009ced4     guideXOS.obj
 0004:00020f20       _unwind0guideXOS_guideXOS_GUI_VisualEffectsSettings__ProcessDropdownOptions 000000001009cf20     guideXOS.obj
 0004:00020f38       _unwind0guideXOS_guideXOS_GUI_VisualEffectsSettings__GetEffectName 000000001009cf38     guideXOS.obj
 0004:00020f40       _unwind0guideXOS_guideXOS_GUI_WidgetContainer___ctor 000000001009cf40     guideXOS.obj
 0004:00020f58       _unwind0guideXOS_guideXOS_GUI_WidgetContainer__AddWidget 000000001009cf58     guideXOS.obj
 0004:00020f8c       _unwind0guideXOS_guideXOS_GUI_WidgetContainer__RemoveWidget 000000001009cf8c     guideXOS.obj
 0004:00020fa4       _unwind0guideXOS_guideXOS_GUI_WidgetContainer__UndockWidgetToPosition 000000001009cfa4     guideXOS.obj
 0004:00020fbc       _unwind0guideXOS_guideXOS_GUI_WidgetContainer__UpdateLayout 000000001009cfbc     guideXOS.obj
 0004:00020ff0       _unwind0guideXOS_guideXOS_GUI_WidgetContainer__OnInput 000000001009cff0     guideXOS.obj
 0004:0002109c       _unwind0guideXOS_guideXOS_GUI_WidgetContainer__UndockWidget 000000001009d09c     guideXOS.obj
 0004:000210b4       _unwind0guideXOS_guideXOS_GUI_WidgetContainer__OnDraw 000000001009d0b4     guideXOS.obj
 0004:00021104       _unwind0guideXOS_guideXOS_GUI_WidgetContainer__DrawCloseButton 000000001009d104     guideXOS.obj
 0004:0002112c       _unwind0guideXOS_guideXOS_GUI_WidgetContainer__Dispose 000000001009d12c     guideXOS.obj
 0004:00021134       _unwind0guideXOS_guideXOS_GUI_WidgetContainer__RevealWidgets 000000001009d134     guideXOS.obj
 0004:0002115c       _unwind0guideXOS_guideXOS_GUI_WidgetContainer__HideWidgetsAuto 000000001009d15c     guideXOS.obj
 0004:00021188       _unwind0guideXOS_guideXOS_GUI_WidgetContainer__UpdateAutoHide 000000001009d188     guideXOS.obj
 0004:000211c0       _unwind0guideXOS_guideXOS_GUI_WidgetContextMenu___ctor 000000001009d1c0     guideXOS.obj
 0004:000211d0       _unwind0guideXOS_guideXOS_GUI_WidgetContextMenu__OnInput 000000001009d1d0     guideXOS.obj
 0004:000211e4       _unwind0guideXOS_guideXOS_GUI_WidgetContextMenu__OnDraw 000000001009d1e4     guideXOS.obj
 0004:00021214       _unwind0guideXOS_guideXOS_GUI_WidgetToggleButton__OnInput 000000001009d214     guideXOS.obj
 0004:0002124c       _unwind0guideXOS_guideXOS_GUI_WidgetToggleButton__OnDraw 000000001009d24c     guideXOS.obj
 0004:00021270       _unwind0guideXOS_guideXOS_GUI_Window__set_Visible 000000001009d270     guideXOS.obj
 0004:00021294       _unwind0guideXOS_guideXOS_GUI_Window___ctor 000000001009d294     guideXOS.obj
 0004:000212b8       _unwind0guideXOS_guideXOS_GUI_Window__BeginFadeIn 000000001009d2b8     guideXOS.obj
 0004:000212d0       _unwind0guideXOS_guideXOS_GUI_Window__BeginFadeOutClose 000000001009d2d0     guideXOS.obj
 0004:000212fc       _unwind0guideXOS_guideXOS_GUI_Window__BeginMinimize 000000001009d2fc     guideXOS.obj
 0004:00021310       _unwind0guideXOS_guideXOS_GUI_Window__BeginRestore 000000001009d310     guideXOS.obj
 0004:00021324       _unwind0guideXOS_guideXOS_GUI_Window__UpdateAnimation 000000001009d324     guideXOS.obj
 0004:00021350       _unwind0guideXOS_guideXOS_GUI_Window__IsUnderMouse 000000001009d350     guideXOS.obj
 0004:00021360       _unwind0guideXOS_guideXOS_GUI_Window__OnSetVisible 000000001009d360     guideXOS.obj
 0004:00021370       _unwind0guideXOS_guideXOS_GUI_Window__DisposeBlurCache 000000001009d370     guideXOS.obj
 0004:00021394       _unwind0guideXOS_guideXOS_GUI_Window__ComputeButtonRects 000000001009d394     guideXOS.obj
 0004:0002139c       _unwind0guideXOS_guideXOS_GUI_Window__HitTestButtons 000000001009d39c     guideXOS.obj
 0004:000213ac       _unwind0guideXOS_guideXOS_GUI_Window__PerformButton 000000001009d3ac     guideXOS.obj
 0004:000213cc       _unwind0guideXOS_guideXOS_GUI_Window__DrawTitleButton 000000001009d3cc     guideXOS.obj
 0004:00021430       _unwind0guideXOS_guideXOS_GUI_Window__OnInput 000000001009d430     guideXOS.obj
 0004:0002145c       _unwind0guideXOS_guideXOS_GUI_Window__OnDraw 000000001009d45c     guideXOS.obj
 0004:0002162c       _unwind1guideXOS_guideXOS_GUI_Window__OnDraw 000000001009d62c     guideXOS.obj
 0004:00021644       _unwind0guideXOS_guideXOS_GUI_Window__DrawBorder 000000001009d644     guideXOS.obj
 0004:00021658       _unwind0guideXOS_guideXOS_GUI_Window__ClampToScreen 000000001009d658     guideXOS.obj
 0004:00021668       _unwind0guideXOS_guideXOS_GUI_Window__Minimize 000000001009d668     guideXOS.obj
 0004:00021678       _unwind0guideXOS_guideXOS_GUI_Window__Restore 000000001009d678     guideXOS.obj
 0004:0002168c       _unwind0guideXOS_guideXOS_GUI_Window__Maximize 000000001009d68c     guideXOS.obj
 0004:0002169c       _unwind0guideXOS_guideXOS_GUI_Window__OnGlobalKey 000000001009d69c     guideXOS.obj
 0004:000216ac       _unwind0guideXOS_guideXOS_GUI_Window__Dispose 000000001009d6ac     guideXOS.obj
 0004:000216bc       _unwind0guideXOS_guideXOS_GUI_Window__FreeOwnerMemory 000000001009d6bc     guideXOS.obj
 0004:000216e8       _unwind1guideXOS_guideXOS_GUI_Window__FreeOwnerMemory 000000001009d6e8     guideXOS.obj
 0004:000216fc       _unwind2guideXOS_guideXOS_GUI_Window__FreeOwnerMemory 000000001009d6fc     guideXOS.obj
 0004:00021710       _unwind0guideXOS_guideXOS_GUI_WindowManager__FlushPendingCreates 000000001009d710     guideXOS.obj
 0004:00021730       _unwind0guideXOS_guideXOS_GUI_WindowManager__MoveToEnd 000000001009d730     guideXOS.obj
 0004:00021774       _unwind0guideXOS_guideXOS_GUI_WindowManager__DrawAllExceptTaskManager 000000001009d774     guideXOS.obj
 0004:000217b8       _unwind0guideXOS_guideXOS_GUI_WindowManager__DrawTaskManager 000000001009d7b8     guideXOS.obj
 0004:000217e0       _unwind0guideXOS_guideXOS_GUI_WindowManager__UpdateCpuPercents 000000001009d7e0     guideXOS.obj
 0004:000217f0       _unwind0guideXOS_guideXOS_GUI_WindowManager__InputAll 000000001009d7f0     guideXOS.obj
 0004:0002184c       _unwind0guideXOS_guideXOS_GUI_WindowManager__GetStartMenuWindows 000000001009d84c     guideXOS.obj
 0004:00021884       _unwind0guideXOS_guideXOS_GUI_WindowManager__CleanupClosedWindows 000000001009d884     guideXOS.obj
 0004:000218b0       _unwind0guideXOS_guideXOS_GUI_WorkspaceManager__IndexOf 000000001009d8b0     guideXOS.obj
 0004:000218d4       _unwind0guideXOS_guideXOS_GUI_WorkspaceManager__ListContains 000000001009d8d4     guideXOS.obj
 0004:000218f0       _unwind0guideXOS_guideXOS_GUI_WorkspaceManager__ListRemove 000000001009d8f0     guideXOS.obj
 0004:0002190c       _unwind0guideXOS_guideXOS_GUI_WorkspaceManager__EnsureAllWindowsTracked 000000001009d90c     guideXOS.obj
 0004:00021950       _unwind0guideXOS_guideXOS_GUI_WorkspaceManager__GetWorkspace 000000001009d950     guideXOS.obj
 0004:00021960       _unwind0guideXOS_guideXOS_GUI_WorkspaceManager__AddWorkspace 000000001009d960     guideXOS.obj
 0004:0002196c       _unwind0guideXOS_guideXOS_GUI_WorkspaceManager__SwitchTo 000000001009d96c     guideXOS.obj
 0004:000219f4       _unwind1guideXOS_guideXOS_GUI_WorkspaceManager__SwitchTo 000000001009d9f4     guideXOS.obj
 0004:00021a0c       _unwind0guideXOS_guideXOS_GUI_WorkspaceManager__WorkspaceWindowCounts 000000001009da0c     guideXOS.obj
 0004:00021a3c       _unwind0guideXOS_guideXOS_GUI_WorkspaceManager___cctor 000000001009da3c     guideXOS.obj
 0004:00021a58       _unwind0guideXOS_guideXOS_GUI_WorkspaceSwitcher___ctor 000000001009da58     guideXOS.obj
 0004:00021a6c       _unwind0guideXOS_guideXOS_GUI_WorkspaceSwitcher__RefreshWindowCache 000000001009da6c     guideXOS.obj
 0004:00021ad8       _unwind0guideXOS_guideXOS_GUI_WorkspaceSwitcher__OnInput 000000001009dad8     guideXOS.obj
 0004:00021b24       _unwind0guideXOS_guideXOS_GUI_WorkspaceSwitcher__OnDraw 000000001009db24     guideXOS.obj
 0004:00021b94       _unwind0guideXOS_guideXOS_GUI_WorkspaceSwitcher__DrawWorkspaceThumbnail 000000001009db94     guideXOS.obj
 0004:00021cbc       _unwind0guideXOS_guideXOS_GUI_Widgets_Button___ctor 000000001009dcbc     guideXOS.obj
 0004:00021cc4       _unwind0guideXOS_guideXOS_GUI_Widgets_Base_Widget___ctor 000000001009dcc4     guideXOS.obj
 0004:00021ccc       _unwind0guideXOS_guideXOS_GUI_Base_WindowBase___ctor 000000001009dccc     guideXOS.obj
 0004:00021cd4       _unwind0guideXOS_guideXOS_DockableWidgets_Clock__get_PreferredHeight 000000001009dcd4     guideXOS.obj
 0004:00021cdc       _unwind0guideXOS_guideXOS_DockableWidgets_Clock___ctor 000000001009dcdc     guideXOS.obj
 0004:00021cec       _unwind0guideXOS_guideXOS_DockableWidgets_Clock__OnInput 000000001009dcec     guideXOS.obj
 0004:00021d14       _unwind0guideXOS_guideXOS_DockableWidgets_Clock__OnDraw 000000001009dd14     guideXOS.obj
 0004:00021d28       _unwind0guideXOS_guideXOS_DockableWidgets_Clock__DrawContent 000000001009dd28     guideXOS.obj
 0004:00021dac       _unwind0guideXOS_guideXOS_DockableWidgets_Clock__DrawHand 000000001009ddac     guideXOS.obj
 0004:00021de8       _unwind1guideXOS_guideXOS_DockableWidgets_Clock__DrawHand 000000001009dde8     guideXOS.obj
 0004:00021e00       _unwind0guideXOS_guideXOS_DockableWidgets_Monitor__get_PreferredHeight 000000001009de00     guideXOS.obj
 0004:00021e08       _unwind0guideXOS_guideXOS_DockableWidgets_Monitor___ctor 000000001009de08     guideXOS.obj
 0004:00021e20       _unwind0guideXOS_guideXOS_DockableWidgets_Monitor__OnInput 000000001009de20     guideXOS.obj
 0004:00021e48       _unwind0guideXOS_guideXOS_DockableWidgets_Monitor__OnDraw 000000001009de48     guideXOS.obj
 0004:00021e70       _unwind0guideXOS_guideXOS_DockableWidgets_Monitor__DrawContent 000000001009de70     guideXOS.obj
 0004:00021e94       _unwind0guideXOS_guideXOS_DockableWidgets_Monitor__Render 000000001009de94     guideXOS.obj
 0004:00021ed8       _unwind0guideXOS_guideXOS_DockableWidgets_Monitor__DrawLineChart 000000001009ded8     guideXOS.obj
 0004:00021ef8       _unwind0guideXOS_guideXOS_DockableWidgets_PerformanceWidget__get_PreferredHeight 000000001009def8     guideXOS.obj
 0004:00021f00       _unwind0guideXOS_guideXOS_DockableWidgets_PerformanceWidget___ctor 000000001009df00     guideXOS.obj
 0004:00021f10       _unwind0guideXOS_guideXOS_DockableWidgets_PerformanceWidget__OnInput 000000001009df10     guideXOS.obj
 0004:00021f38       _unwind0guideXOS_guideXOS_DockableWidgets_PerformanceWidget__OnDraw 000000001009df38     guideXOS.obj
 0004:00021f4c       _unwind0guideXOS_guideXOS_DockableWidgets_PerformanceWidget__DrawContent 000000001009df4c     guideXOS.obj
 0004:00021f6c       _unwind0guideXOS_guideXOS_DockableWidgets_PerformanceWidget__DrawMetric 000000001009df6c     guideXOS.obj
 0004:00021f94       _unwind0guideXOS_guideXOS_DockableWidgets_PerformanceWidget__UpdateMetrics 000000001009df94     guideXOS.obj
 0004:00021fa8       _unwind0guideXOS_guideXOS_DockableWidgets_Uptime__get_PreferredHeight 000000001009dfa8     guideXOS.obj
 0004:00021fb0       _unwind0guideXOS_guideXOS_DockableWidgets_Uptime__OnInput 000000001009dfb0     guideXOS.obj
 0004:00021fd8       _unwind0guideXOS_guideXOS_DockableWidgets_Uptime__OnDraw 000000001009dfd8     guideXOS.obj
 0004:00021fec       _unwind0guideXOS_guideXOS_DockableWidgets_Uptime__DrawContent 000000001009dfec     guideXOS.obj
 0004:00022228       _unwind0guideXOS_guideXOS_DefaultApps_Calculator___ctor 000000001009e228     guideXOS.obj
 0004:00022268       _unwind0guideXOS_guideXOS_DefaultApps_Calculator__OnDraw 000000001009e268     guideXOS.obj
 0004:0002229c       _unwind0guideXOS_guideXOS_DefaultApps_Calculator__OnInput 000000001009e29c     guideXOS.obj
 0004:000222e0       _unwind0guideXOS_guideXOS_DefaultApps_Calculator__ProcessButton 000000001009e2e0     guideXOS.obj
 0004:0002231c       _unwind0guideXOS_guideXOS_DefaultApps_Calculator__AddButton 000000001009e31c     guideXOS.obj
 0004:0002233c       _unwind0guideXOS_guideXOS_DefaultApps_ComputerFiles___ctor 000000001009e33c     guideXOS.obj
 0004:00022364       _unwind0guideXOS_guideXOS_DefaultApps_ComputerFiles___ctor_0 000000001009e364     guideXOS.obj
 0004:0002238c       _unwind0guideXOS_guideXOS_DefaultApps_ComputerFiles__Keyboard_OnKeyChanged 000000001009e38c     guideXOS.obj
 0004:000223a4       _unwind0guideXOS_guideXOS_DefaultApps_ComputerFiles__LoadIcons 000000001009e3a4     guideXOS.obj
 0004:000223f0       _unwind1guideXOS_guideXOS_DefaultApps_ComputerFiles__LoadIcons 000000001009e3f0     guideXOS.obj
 0004:000223fc       _unwind2guideXOS_guideXOS_DefaultApps_ComputerFiles__LoadIcons 000000001009e3fc     guideXOS.obj
 0004:00022408       _unwind0guideXOS_guideXOS_DefaultApps_ComputerFiles__RefreshDrives 000000001009e408     guideXOS.obj
 0004:00022448       _unwind0guideXOS_guideXOS_DefaultApps_ComputerFiles__ClearEntriesCache 000000001009e448     guideXOS.obj
 0004:00022480       _unwind0guideXOS_guideXOS_DefaultApps_ComputerFiles__EnsureEntries 000000001009e480     guideXOS.obj
 0004:00022498       _unwind0guideXOS_guideXOS_DefaultApps_ComputerFiles__PushHistory 000000001009e498     guideXOS.obj
 0004:000224d4       _unwind0guideXOS_guideXOS_DefaultApps_ComputerFiles__get_CanGoForward 000000001009e4d4     guideXOS.obj
 0004:000224dc       _unwind0guideXOS_guideXOS_DefaultApps_ComputerFiles__GoBack 000000001009e4dc     guideXOS.obj
 0004:000224ec       _unwind0guideXOS_guideXOS_DefaultApps_ComputerFiles__GoForward 000000001009e4ec     guideXOS.obj
 0004:000224fc       _unwind0guideXOS_guideXOS_DefaultApps_ComputerFiles__GoUpLevel 000000001009e4fc     guideXOS.obj
 0004:00022514       _unwind0guideXOS_guideXOS_DefaultApps_ComputerFiles__CurrentPad 000000001009e514     guideXOS.obj
 0004:0002251c       _unwind0guideXOS_guideXOS_DefaultApps_ComputerFiles__OnInput 000000001009e51c     guideXOS.obj
 0004:00022684       _unwind0guideXOS_guideXOS_DefaultApps_ComputerFiles__ContainsIgnoreCase 000000001009e684     guideXOS.obj
 0004:000226b8       _unwind0guideXOS_guideXOS_DefaultApps_ComputerFiles__GetTotalContentHeight 000000001009e6b8     guideXOS.obj
 0004:000226d4       _unwind0guideXOS_guideXOS_DefaultApps_ComputerFiles__OnDraw 000000001009e6d4     guideXOS.obj
 0004:000228f8       _unwind0guideXOS_guideXOS_DefaultApps_ComputerFiles__Dispose 000000001009e8f8     guideXOS.obj
 0004:00022930       _unwind0guideXOS_guideXOS_DefaultApps_Devices__EnsureRowsCapacity 000000001009e930     guideXOS.obj
 0004:00022974       _unwind0guideXOS_guideXOS_DefaultApps_Devices__AddRow 000000001009e974     guideXOS.obj
 0004:00022994       _unwind0guideXOS_guideXOS_DefaultApps_Devices__BuildRows 000000001009e994     guideXOS.obj
 0004:00022b44       _unwind1guideXOS_guideXOS_DefaultApps_Devices__BuildRows 000000001009eb44     guideXOS.obj
 0004:00022b5c       _unwind0guideXOS_guideXOS_DefaultApps_Devices__OnInput 000000001009eb5c     guideXOS.obj
 0004:00022bc8       _unwind0guideXOS_guideXOS_DefaultApps_Devices__OnDraw 000000001009ebc8     guideXOS.obj
 0004:00022d14       _unwind0guideXOS_guideXOS_DefaultApps_DiskManager___ctor 000000001009ed14     guideXOS.obj
 0004:00022d30       _unwind0guideXOS_guideXOS_DefaultApps_DiskManager__BuildStatus 000000001009ed30     guideXOS.obj
 0004:00022d6c       _unwind0guideXOS_guideXOS_DefaultApps_DiskManager__RefreshDisks 000000001009ed6c     guideXOS.obj
 0004:00022e58       _unwind0guideXOS_guideXOS_DefaultApps_DiskManager__GetSelected 000000001009ee58     guideXOS.obj
 0004:00022e64       _unwind0guideXOS_guideXOS_DefaultApps_DiskManager__ProbeOnce 000000001009ee64     guideXOS.obj
 0004:00022ed0       _unwind1guideXOS_guideXOS_DefaultApps_DiskManager__ProbeOnce 000000001009eed0     guideXOS.obj
 0004:00022ee0       _unwind2guideXOS_guideXOS_DefaultApps_DiskManager__ProbeOnce 000000001009eee0     guideXOS.obj
 0004:00022ef0       _unwind0guideXOS_guideXOS_DefaultApps_DiskManager__FmtSize 000000001009eef0     guideXOS.obj
 0004:00022f04       _unwind0guideXOS_guideXOS_DefaultApps_DiskManager__DetectFsAtLBA 000000001009ef04     guideXOS.obj
 0004:00022f70       _unwind1guideXOS_guideXOS_DefaultApps_DiskManager__DetectFsAtLBA 000000001009ef70     guideXOS.obj
 0004:00022f84       _unwind2guideXOS_guideXOS_DefaultApps_DiskManager__DetectFsAtLBA 000000001009ef84     guideXOS.obj
 0004:00022f98       _unwind3guideXOS_guideXOS_DefaultApps_DiskManager__DetectFsAtLBA 000000001009ef98     guideXOS.obj
 0004:00022fac       _unwind0guideXOS_guideXOS_DefaultApps_DiskManager__WithDisk 000000001009efac     guideXOS.obj
 0004:00022ff8       _unwind1guideXOS_guideXOS_DefaultApps_DiskManager__WithDisk 000000001009eff8     guideXOS.obj
 0004:00023008       _unwind0guideXOS_guideXOS_DefaultApps_DiskManager__ReadMBRForEntry 000000001009f008     guideXOS.obj
 0004:00023054       _unwind0guideXOS_guideXOS_DefaultApps_DiskManager__OnInput 000000001009f054     guideXOS.obj
 0004:0002309c       _unwind0guideXOS_guideXOS_DefaultApps_DiskManager__OnDraw 000000001009f09c     guideXOS.obj
 0004:000230bc       _unwind0guideXOS_guideXOS_DefaultApps_DiskManager__DrawLeftPane 000000001009f0bc     guideXOS.obj
 0004:000230ec       _unwind0guideXOS_guideXOS_DefaultApps_DiskManager__DrawVolumesGrid 000000001009f0ec     guideXOS.obj
 0004:00023208       _unwind0guideXOS_guideXOS_DefaultApps_DiskManager__DrawPartitionMap 000000001009f208     guideXOS.obj
 0004:00023300       _unwind0guideXOS_guideXOS_DefaultApps_DiskManager__DrawActions 000000001009f300     guideXOS.obj
 0004:00023330       _unwind0guideXOS_guideXOS_DefaultApps_DiskManager__DrawHeaderCell 000000001009f330     guideXOS.obj
 0004:00023350       _unwind0guideXOS_guideXOS_DefaultApps_DiskManager__DrawCell 000000001009f350     guideXOS.obj
 0004:0002336c       _unwind0guideXOS_guideXOS_DefaultApps_DiskManager__DrawButton 000000001009f36c     guideXOS.obj
 0004:0002338c       _unwind0guideXOS_guideXOS_DefaultApps_DiskManager__TrySetFS_Auto 000000001009f38c     guideXOS.obj
 0004:000233cc       _unwind1guideXOS_guideXOS_DefaultApps_DiskManager__TrySetFS_Auto 000000001009f3cc     guideXOS.obj
 0004:000233d8       _unwind0guideXOS_guideXOS_DefaultApps_DiskManager__TrySetFS_FAT 000000001009f3d8     guideXOS.obj
 0004:0002341c       _unwind1guideXOS_guideXOS_DefaultApps_DiskManager__TrySetFS_FAT 000000001009f41c     guideXOS.obj
 0004:00023428       _unwind0guideXOS_guideXOS_DefaultApps_DiskManager__TrySetFS_TAR 000000001009f428     guideXOS.obj
 0004:00023478       _unwind1guideXOS_guideXOS_DefaultApps_DiskManager__TrySetFS_TAR 000000001009f478     guideXOS.obj
 0004:00023488       _unwind0guideXOS_guideXOS_DefaultApps_DiskManager__TrySetFS_EXT2 000000001009f488     guideXOS.obj
 0004:000234cc       _unwind1guideXOS_guideXOS_DefaultApps_DiskManager__TrySetFS_EXT2 000000001009f4cc     guideXOS.obj
 0004:000234d8       _unwind0guideXOS_guideXOS_DefaultApps_DiskManager__TryFormatFAT 000000001009f4d8     guideXOS.obj
 0004:00023524       _unwind1guideXOS_guideXOS_DefaultApps_DiskManager__TryFormatFAT 000000001009f524     guideXOS.obj
 0004:00023530       _unwind0guideXOS_guideXOS_DefaultApps_DiskManager__TryCreatePartitionLargestFree 000000001009f530     guideXOS.obj
 0004:0002362c       _unwind1guideXOS_guideXOS_DefaultApps_DiskManager__TryCreatePartitionLargestFree 000000001009f62c     guideXOS.obj
 0004:00023644       _unwind0guideXOS_guideXOS_DefaultApps_DriveInfo__Dispose 000000001009f644     guideXOS.obj
 0004:00023660       _unwind0guideXOS_guideXOS_DefaultApps_DriveInfo___ctor 000000001009f660     guideXOS.obj
 0004:00023668       _unwind0guideXOS_guideXOS_DefaultApps_FConsole___ctor 000000001009f668     guideXOS.obj
 0004:00023690       _unwind0guideXOS_guideXOS_DefaultApps_FConsole__UpdateTitle 000000001009f690     guideXOS.obj
 0004:000236a0       _unwind0guideXOS_guideXOS_DefaultApps_FConsole__GetPromptString 000000001009f6a0     guideXOS.obj
 0004:000236bc       _unwind0guideXOS_guideXOS_DefaultApps_FConsole__Rebind 000000001009f6bc     guideXOS.obj
 0004:000236d4       _unwind0guideXOS_guideXOS_DefaultApps_FConsole__MapFromKey 000000001009f6d4     guideXOS.obj
 0004:000236e0       _unwind0guideXOS_guideXOS_DefaultApps_FConsole__Keyboard_OnKeyChanged 000000001009f6e0     guideXOS.obj
 0004:0002370c       _unwind0guideXOS_guideXOS_DefaultApps_FConsole__TrimSpaces 000000001009f70c     guideXOS.obj
 0004:00023728       _unwind0guideXOS_guideXOS_DefaultApps_FConsole__StartsWithFast 000000001009f728     guideXOS.obj
 0004:00023750       _unwind0guideXOS_guideXOS_DefaultApps_FConsole__JoinParts 000000001009f750     guideXOS.obj
 0004:00023768       _unwind0guideXOS_guideXOS_DefaultApps_FConsole__TryParseIp 000000001009f768     guideXOS.obj
 0004:00023794       _unwind0guideXOS_guideXOS_DefaultApps_FConsole__HandleViKey 000000001009f794     guideXOS.obj
 0004:000237e8       _unwind0guideXOS_guideXOS_DefaultApps_FConsole__InsertVi 000000001009f7e8     guideXOS.obj
 0004:00023804       _unwind0guideXOS_guideXOS_DefaultApps_FConsole__RedrawVi 000000001009f804     guideXOS.obj
 0004:00023820       _unwind0guideXOS_guideXOS_DefaultApps_FConsole__SaveVi 000000001009f820     guideXOS.obj
 0004:00023864       _unwind0guideXOS_guideXOS_DefaultApps_FConsole__ExitVi 000000001009f864     guideXOS.obj
 0004:00023874       _unwind0guideXOS_guideXOS_DefaultApps_FConsole__EnterVi 000000001009f874     guideXOS.obj
 0004:000238dc       _unwind0guideXOS_guideXOS_DefaultApps_FConsole__ToAbs 000000001009f8dc     guideXOS.obj
 0004:000238f8       _unwind0guideXOS_guideXOS_DefaultApps_FConsole__ResolveFileToken 000000001009f8f8     guideXOS.obj
 0004:0002392c       _unwind0guideXOS_guideXOS_DefaultApps_FConsole__SplitArgs 000000001009f92c     guideXOS.obj
 0004:000239a8       _unwind0guideXOS_guideXOS_DefaultApps_FConsole__HandleCommand 000000001009f9a8     guideXOS.obj
 0004:00024aec       _unwind1guideXOS_guideXOS_DefaultApps_FConsole__HandleCommand 00000000100a0aec     guideXOS.obj
 0004:00024b04       _unwind2guideXOS_guideXOS_DefaultApps_FConsole__HandleCommand 00000000100a0b04     guideXOS.obj
 0004:00024b1c       _unwind3guideXOS_guideXOS_DefaultApps_FConsole__HandleCommand 00000000100a0b1c     guideXOS.obj
 0004:00024b34       _unwind4guideXOS_guideXOS_DefaultApps_FConsole__HandleCommand 00000000100a0b34     guideXOS.obj
 0004:00024b4c       _unwind5guideXOS_guideXOS_DefaultApps_FConsole__HandleCommand 00000000100a0b4c     guideXOS.obj
 0004:00024b64       _unwind6guideXOS_guideXOS_DefaultApps_FConsole__HandleCommand 00000000100a0b64     guideXOS.obj
 0004:00024b7c       _unwind7guideXOS_guideXOS_DefaultApps_FConsole__HandleCommand 00000000100a0b7c     guideXOS.obj
 0004:00024b94       _unwind0guideXOS_guideXOS_DefaultApps_FConsole__EqualsIgnoreCase 00000000100a0b94     guideXOS.obj
 0004:00024bc0       _unwind0guideXOS_guideXOS_DefaultApps_FConsole__StartsWithIgnoreCase 00000000100a0bc0     guideXOS.obj
 0004:00024bec       _unwind0guideXOS_guideXOS_DefaultApps_FConsole__PadRight 00000000100a0bec     guideXOS.obj
 0004:00024c34       _unwind0guideXOS_guideXOS_DefaultApps_FConsole__OnInput 00000000100a0c34     guideXOS.obj
 0004:00024c68       _unwind0guideXOS_guideXOS_DefaultApps_FConsole__OnDraw 00000000100a0c68     guideXOS.obj
 0004:00024c90       _unwind0guideXOS_guideXOS_DefaultApps_FConsole__DrawString 00000000100a0c90     guideXOS.obj
 0004:00024ccc       _unwind0guideXOS_guideXOS_DefaultApps_FConsole__Console_OnWrite 00000000100a0ccc     guideXOS.obj
 0004:00024cdc       _unwind0guideXOS_guideXOS_DefaultApps_FConsole__WriteLine 00000000100a0cdc     guideXOS.obj
 0004:00024cec       _unwind0guideXOS_guideXOS_DefaultApps_FirewallAlert___ctor 00000000100a0cec     guideXOS.obj
 0004:00024d00       _unwind0guideXOS_guideXOS_DefaultApps_FirewallAlert__OnInput 00000000100a0d00     guideXOS.obj
 0004:00024d24       _unwind0guideXOS_guideXOS_DefaultApps_FirewallAlert__OnDraw 00000000100a0d24     guideXOS.obj
 0004:00024d64       _unwind0guideXOS_guideXOS_DefaultApps_FirewallWindow__OnInput 00000000100a0d64     guideXOS.obj
 0004:00024da0       _unwind0guideXOS_guideXOS_DefaultApps_FirewallWindow__OnDraw 00000000100a0da0     guideXOS.obj
 0004:00024df0       _unwind0guideXOS_guideXOS_DefaultApps_GUISamples__BuildSamples 00000000100a0df0     guideXOS.obj
 0004:00024e78       _unwind1guideXOS_guideXOS_DefaultApps_GUISamples__BuildSamples 00000000100a0e78     guideXOS.obj
 0004:00024e8c       _unwind0guideXOS_guideXOS_DefaultApps_GUISamples__OnInput 00000000100a0e8c     guideXOS.obj
 0004:00024eac       _unwind0guideXOS_guideXOS_DefaultApps_GUISamples__OnDraw 00000000100a0eac     guideXOS.obj
 0004:00024f1c       _unwind0guideXOS_guideXOS_DefaultApps_GUISamples__CreateNewDemo 00000000100a0f1c     guideXOS.obj
 0004:00024fa8       _unwind1guideXOS_guideXOS_DefaultApps_GUISamples__CreateNewDemo 00000000100a0fa8     guideXOS.obj
 0004:00024fbc       _unwind0guideXOS_guideXOS_DefaultApps_GUISamples__ReloadDemos 00000000100a0fbc     guideXOS.obj
 0004:00024fe4       _unwind1guideXOS_guideXOS_DefaultApps_GUISamples__ReloadDemos 00000000100a0fe4     guideXOS.obj
 0004:00024ff0       _unwind0guideXOS_guideXOS_DefaultApps_GUISamples__HideAllDemos 00000000100a0ff0     guideXOS.obj
 0004:00025010       _unwind0guideXOS_guideXOS_DefaultApps_GUISamples__ShowAllDemos 00000000100a1010     guideXOS.obj
 0004:00025028       _unwind0guideXOS_guideXOS_DefaultApps_HDInstaller___ctor 00000000100a1028     guideXOS.obj
 0004:00025044       _unwind0guideXOS_guideXOS_DefaultApps_HDInstaller__ScanDisks 00000000100a1044     guideXOS.obj
 0004:000250c8       _unwind0guideXOS_guideXOS_DefaultApps_HDInstaller__OnInput 00000000100a10c8     guideXOS.obj
 0004:00025120       _unwind0guideXOS_guideXOS_DefaultApps_HDInstaller__HandleNextButton 00000000100a1120     guideXOS.obj
 0004:00025130       _unwind0guideXOS_guideXOS_DefaultApps_HDInstaller__OnDraw 00000000100a1130     guideXOS.obj
 0004:00025154       _unwind0guideXOS_guideXOS_DefaultApps_HDInstaller__DrawStepIndicator 00000000100a1154     guideXOS.obj
 0004:0002517c       _unwind0guideXOS_guideXOS_DefaultApps_HDInstaller__DrawWelcomeStep 00000000100a117c     guideXOS.obj
 0004:000251a8       _unwind0guideXOS_guideXOS_DefaultApps_HDInstaller__DrawDiskSelectionStep 00000000100a11a8     guideXOS.obj
 0004:000251e8       _unwind0guideXOS_guideXOS_DefaultApps_HDInstaller__DrawPartitionSetupStep 00000000100a11e8     guideXOS.obj
 0004:0002524c       _unwind0guideXOS_guideXOS_DefaultApps_HDInstaller__DrawFormatWarningStep 00000000100a124c     guideXOS.obj
 0004:000252a4       _unwind0guideXOS_guideXOS_DefaultApps_HDInstaller__DrawInstallingStep 00000000100a12a4     guideXOS.obj
 0004:000253e8       _unwind1guideXOS_guideXOS_DefaultApps_HDInstaller__DrawInstallingStep 00000000100a13e8     guideXOS.obj
 0004:00025400       _unwind0guideXOS_guideXOS_DefaultApps_HDInstaller__DrawCompleteStep 00000000100a1400     guideXOS.obj
 0004:000255a4       _unwind1guideXOS_guideXOS_DefaultApps_HDInstaller__DrawCompleteStep 00000000100a15a4     guideXOS.obj
 0004:000255bc       _unwind0guideXOS_guideXOS_DefaultApps_HDInstaller__CheckUSBInstallMediaPresent 00000000100a15bc     guideXOS.obj
 0004:000255f0       _unwind1guideXOS_guideXOS_DefaultApps_HDInstaller__CheckUSBInstallMediaPresent 00000000100a15f0     guideXOS.obj
 0004:00025600       _unwind0guideXOS_guideXOS_DefaultApps_HDInstaller__DrawNavigationButtons 00000000100a1600     guideXOS.obj
 0004:00025618       _unwind0guideXOS_guideXOS_DefaultApps_HDInstaller__CreateBootConfiguration 00000000100a1618     guideXOS.obj
 0004:0002567c       _unwind1guideXOS_guideXOS_DefaultApps_HDInstaller__CreateBootConfiguration 00000000100a167c     guideXOS.obj
 0004:00025690       _unwind0guideXOS_guideXOS_DefaultApps_HDInstaller__PartitionDisk 00000000100a1690     guideXOS.obj
 0004:0002571c       _unwind0guideXOS_guideXOS_DefaultApps_HDInstaller__FormatPartitions 00000000100a171c     guideXOS.obj
 0004:0002573c       _unwind0guideXOS_guideXOS_DefaultApps_HDInstaller__FormatFAT32Partition 00000000100a173c     guideXOS.obj
 0004:000257f8       _unwind0guideXOS_guideXOS_DefaultApps_HDInstaller__CopySystemFiles 00000000100a17f8     guideXOS.obj
 0004:00025994       _unwind1guideXOS_guideXOS_DefaultApps_HDInstaller__CopySystemFiles 00000000100a1994     guideXOS.obj
 0004:000259ac       _unwind2guideXOS_guideXOS_DefaultApps_HDInstaller__CopySystemFiles 00000000100a19ac     guideXOS.obj
 0004:000259c4       _unwind3guideXOS_guideXOS_DefaultApps_HDInstaller__CopySystemFiles 00000000100a19c4     guideXOS.obj
 0004:000259dc       _unwind0guideXOS_guideXOS_DefaultApps_HDInstaller__CopyBootFiles 00000000100a19dc     guideXOS.obj
 0004:00025a88       _unwind1guideXOS_guideXOS_DefaultApps_HDInstaller__CopyBootFiles 00000000100a1a88     guideXOS.obj
 0004:00025aa0       _unwind2guideXOS_guideXOS_DefaultApps_HDInstaller__CopyBootFiles 00000000100a1aa0     guideXOS.obj
 0004:00025ab8       _unwind0guideXOS_guideXOS_DefaultApps_HDInstaller__GatherAllFiles 00000000100a1ab8     guideXOS.obj
 0004:00025bc0       _unwind1guideXOS_guideXOS_DefaultApps_HDInstaller__GatherAllFiles 00000000100a1bc0     guideXOS.obj
 0004:00025bd8       _unwind0guideXOS_guideXOS_DefaultApps_HDInstaller__EnsureDirectoryExists 00000000100a1bd8     guideXOS.obj
 0004:00025bf4       _unwind1guideXOS_guideXOS_DefaultApps_HDInstaller__EnsureDirectoryExists 00000000100a1bf4     guideXOS.obj
 0004:00025c00       _unwind0guideXOS_guideXOS_DefaultApps_HDInstaller__GetAsciiBytes 00000000100a1c00     guideXOS.obj
 0004:00025c30       _unwind0guideXOS_guideXOS_DefaultApps_HDInstaller__InstallBootloader 00000000100a1c30     guideXOS.obj
 0004:00025ca4       _unwind1guideXOS_guideXOS_DefaultApps_HDInstaller__InstallBootloader 00000000100a1ca4     guideXOS.obj
 0004:00025cb4       _unwind2guideXOS_guideXOS_DefaultApps_HDInstaller__InstallBootloader 00000000100a1cb4     guideXOS.obj
 0004:00025cc4       _unwind0guideXOS_guideXOS_DefaultApps_HDInstaller__GetGRUBStage1 00000000100a1cc4     guideXOS.obj
 0004:00025ce8       _unwind0guideXOS_guideXOS_DefaultApps_HDInstaller__DrawButton 00000000100a1ce8     guideXOS.obj
 0004:00025d0c       _unwind0guideXOS_guideXOS_DefaultApps_HDInstaller__FormatSize 00000000100a1d0c     guideXOS.obj
 0004:00025d20       _unwind0guideXOS_guideXOS_DefaultApps_HDInstaller___PartitionDisk_g__WriteLBA32_41_0 00000000100a1d20     guideXOS.obj
 0004:00025d2c       _unwind0guideXOS_guideXOS_DefaultApps_ImageViewer__UpdateDisplayImage 00000000100a1d2c     guideXOS.obj
 0004:00025d40       _unwind0guideXOS_guideXOS_DefaultApps_ImageViewer__SetImage 00000000100a1d40     guideXOS.obj
 0004:00025d64       _unwind0guideXOS_guideXOS_DefaultApps_IRCNetworks___ctor 00000000100a1d64     guideXOS.obj
 0004:00025d80       _unwind0guideXOS_guideXOS_DefaultApps_IRCNetworks__LoadDefaults 00000000100a1d80     guideXOS.obj
 0004:00025d98       _unwind0guideXOS_guideXOS_DefaultApps_IRCNetworks__OnInput 00000000100a1d98     guideXOS.obj
 0004:00025db8       _unwind0guideXOS_guideXOS_DefaultApps_IRCNetworks__AddEntry 00000000100a1db8     guideXOS.obj
 0004:00025dd0       _unwind0guideXOS_guideXOS_DefaultApps_IRCNetworks__AttemptConnect 00000000100a1dd0     guideXOS.obj
 0004:00025de8       _unwind0guideXOS_guideXOS_DefaultApps_IRCNetworks__OnDraw 00000000100a1de8     guideXOS.obj
 0004:00025e44       _unwind0guideXOS_guideXOS_DefaultApps_IRCNetworks__DrawField 00000000100a1e44     guideXOS.obj
 0004:00025e64       _unwind0guideXOS_guideXOS_DefaultApps_IRCNetworks__DrawButton 00000000100a1e64     guideXOS.obj
 0004:00025e7c       _unwind0guideXOS_guideXOS_DefaultApps_nexIRC___ctor 00000000100a1e7c     guideXOS.obj
 0004:00025ea0       _unwind0guideXOS_guideXOS_DefaultApps_nexIRC__NextEphemeralPort 00000000100a1ea0     guideXOS.obj
 0004:00025eac       _unwind0guideXOS_guideXOS_DefaultApps_nexIRC__TryAutoConnect 00000000100a1eac     guideXOS.obj
 0004:00025ecc       _unwind0guideXOS_guideXOS_DefaultApps_nexIRC__Keyboard_OnKeyChanged 00000000100a1ecc     guideXOS.obj
 0004:00025eec       _unwind0guideXOS_guideXOS_DefaultApps_nexIRC__MapChar 00000000100a1eec     guideXOS.obj
 0004:00025efc       _unwind0guideXOS_guideXOS_DefaultApps_nexIRC__TrimTrailing 00000000100a1efc     guideXOS.obj
 0004:00025f18       _unwind0guideXOS_guideXOS_DefaultApps_nexIRC__ToLowerFast 00000000100a1f18     guideXOS.obj
 0004:00025f4c       _unwind0guideXOS_guideXOS_DefaultApps_nexIRC__StartsWithFast 00000000100a1f4c     guideXOS.obj
 0004:00025f74       _unwind0guideXOS_guideXOS_DefaultApps_nexIRC__SubmitInput 00000000100a1f74     guideXOS.obj
 0004:00025f94       _unwind0guideXOS_guideXOS_DefaultApps_nexIRC__HandleCommand 00000000100a1f94     guideXOS.obj
 0004:00025fe0       _unwind0guideXOS_guideXOS_DefaultApps_nexIRC__Split 00000000100a1fe0     guideXOS.obj
 0004:00026038       _unwind0guideXOS_guideXOS_DefaultApps_nexIRC__Join 00000000100a2038     guideXOS.obj
 0004:00026050       _unwind0guideXOS_guideXOS_DefaultApps_nexIRC__SendIrc 00000000100a2050     guideXOS.obj
 0004:00026064       _unwind0guideXOS_guideXOS_DefaultApps_nexIRC__ToAscii 00000000100a2064     guideXOS.obj
 0004:00026088       _unwind0guideXOS_guideXOS_DefaultApps_nexIRC__AddLog 00000000100a2088     guideXOS.obj
 0004:000260a0       _unwind0guideXOS_guideXOS_DefaultApps_nexIRC__PollNetwork 00000000100a20a0     guideXOS.obj
 0004:000260c4       _unwind0guideXOS_guideXOS_DefaultApps_nexIRC__SendHandshake 00000000100a20c4     guideXOS.obj
 0004:000260dc       _unwind0guideXOS_guideXOS_DefaultApps_nexIRC__ProcessIncoming 00000000100a20dc     guideXOS.obj
 0004:00026114       _unwind0guideXOS_guideXOS_DefaultApps_nexIRC__HandleLine 00000000100a2114     guideXOS.obj
 0004:00026130       _unwind0guideXOS_guideXOS_DefaultApps_nexIRC__OnInput 00000000100a2130     guideXOS.obj
 0004:00026144       _unwind0guideXOS_guideXOS_DefaultApps_nexIRC__OnDraw 00000000100a2144     guideXOS.obj
 0004:0002617c       _unwind0guideXOS_guideXOS_DefaultApps_nexIRC__BuildChannelsText 00000000100a217c     guideXOS.obj
 0004:0002619c       _unwind0guideXOS_guideXOS_DefaultApps_nexIRC__DrawChatLines 00000000100a219c     guideXOS.obj
 0004:000261c4       _unwind0guideXOS_guideXOS_DefaultApps_Notepad___ctor 00000000100a21c4     guideXOS.obj
 0004:000261e0       _unwind0guideXOS_guideXOS_DefaultApps_Notepad__OnSetVisible 00000000100a21e0     guideXOS.obj
 0004:0002623c       _unwind0guideXOS_guideXOS_DefaultApps_Notepad__MapFromKey 00000000100a223c     guideXOS.obj
 0004:0002624c       _unwind0guideXOS_guideXOS_DefaultApps_Notepad__UpdateStatusKeys 00000000100a224c     guideXOS.obj
 0004:00026260       _unwind0guideXOS_guideXOS_DefaultApps_Notepad__Keyboard_OnKeyChanged 00000000100a2260     guideXOS.obj
 0004:00026280       _unwind0guideXOS_guideXOS_DefaultApps_Notepad__SaveTo 00000000100a2280     guideXOS.obj
 0004:0002630c       _unwind0guideXOS_guideXOS_DefaultApps_Notepad__OpenSaveAs 00000000100a230c     guideXOS.obj
 0004:00026338       _unwind0guideXOS_guideXOS_DefaultApps_Notepad__StartsWithFast 00000000100a2338     guideXOS.obj
 0004:00026360       _unwind0guideXOS_guideXOS_DefaultApps_Notepad__OpenFile 00000000100a2360     guideXOS.obj
 0004:00026414       _unwind0guideXOS_guideXOS_DefaultApps_Notepad__OnInput 00000000100a2414     guideXOS.obj
 0004:00026434       _unwind0guideXOS_guideXOS_DefaultApps_Notepad__OnDraw 00000000100a2434     guideXOS.obj
 0004:0002647c       _unwind0guideXOS_guideXOS_DefaultApps_Notepad__DrawStatusBar 00000000100a247c     guideXOS.obj
 0004:00026508       _unwind0guideXOS_guideXOS_DefaultApps_Notepad__DrawBadge 00000000100a2508     guideXOS.obj
 0004:00026528       _unwind0guideXOS_guideXOS_DefaultApps_Notepad__Dispose 00000000100a2528     guideXOS.obj
 0004:00026550       _unwind0guideXOS_guideXOS_DefaultApps_Notepad___OnSetVisible_b__19_0 00000000100a2550     guideXOS.obj
 0004:00026578       _unwind0guideXOS_guideXOS_DefaultApps_Notepad___OnSetVisible_b__19_3 00000000100a2578     guideXOS.obj
 0004:00026588       _unwind0guideXOS_guideXOS_DefaultApps_Notepad___OnSetVisible_b__19_1 00000000100a2588     guideXOS.obj
 0004:00026598       _unwind0guideXOS_guideXOS_DefaultApps_Notepad___OnSetVisible_b__19_2 00000000100a2598     guideXOS.obj
 0004:000265a8       _unwind0guideXOS_guideXOS_DefaultApps_Paint___ctor 00000000100a25a8     guideXOS.obj
 0004:000266ec       _unwind1guideXOS_guideXOS_DefaultApps_Paint___ctor 00000000100a26ec     guideXOS.obj
 0004:000266fc       _unwind2guideXOS_guideXOS_DefaultApps_Paint___ctor 00000000100a26fc     guideXOS.obj
 0004:0002670c       _unwind0guideXOS_guideXOS_DefaultApps_Paint__OnDraw 00000000100a270c     guideXOS.obj
 0004:00026860       _unwind1guideXOS_guideXOS_DefaultApps_Paint__OnDraw 00000000100a2860     guideXOS.obj
 0004:00026878       _unwind2guideXOS_guideXOS_DefaultApps_Paint__OnDraw 00000000100a2878     guideXOS.obj
 0004:00026890       _unwind3guideXOS_guideXOS_DefaultApps_Paint__OnDraw 00000000100a2890     guideXOS.obj
 0004:000268a8       _unwind4guideXOS_guideXOS_DefaultApps_Paint__OnDraw 00000000100a28a8     guideXOS.obj
 0004:000268c0       _unwind5guideXOS_guideXOS_DefaultApps_Paint__OnDraw 00000000100a28c0     guideXOS.obj
 0004:000268d8       _unwind0guideXOS_guideXOS_DefaultApps_Paint__OnInput 00000000100a28d8     guideXOS.obj
 0004:00026940       _unwind1guideXOS_guideXOS_DefaultApps_Paint__OnInput 00000000100a2940     guideXOS.obj
 0004:00026950       _unwind0guideXOS_guideXOS_DefaultApps_Paint__HandleToolbarClick 00000000100a2950     guideXOS.obj
 0004:000269ec       _unwind1guideXOS_guideXOS_DefaultApps_Paint__HandleToolbarClick 00000000100a29ec     guideXOS.obj
 0004:00026a04       _unwind2guideXOS_guideXOS_DefaultApps_Paint__HandleToolbarClick 00000000100a2a04     guideXOS.obj
 0004:00026a1c       _unwind3guideXOS_guideXOS_DefaultApps_Paint__HandleToolbarClick 00000000100a2a1c     guideXOS.obj
 0004:00026a34       _unwind4guideXOS_guideXOS_DefaultApps_Paint__HandleToolbarClick 00000000100a2a34     guideXOS.obj
 0004:00026a4c       _unwind0guideXOS_guideXOS_DefaultApps_Paint__HandleDrawing 00000000100a2a4c     guideXOS.obj
 0004:00026a8c       _unwind1guideXOS_guideXOS_DefaultApps_Paint__HandleDrawing 00000000100a2a8c     guideXOS.obj
 0004:00026a9c       _unwind0guideXOS_guideXOS_DefaultApps_Paint__FinishDrawing 00000000100a2a9c     guideXOS.obj
 0004:00026acc       _unwind1guideXOS_guideXOS_DefaultApps_Paint__FinishDrawing 00000000100a2acc     guideXOS.obj
 0004:00026ad8       _unwind0guideXOS_guideXOS_DefaultApps_Paint__DrawPixel 00000000100a2ad8     guideXOS.obj
 0004:00026af8       _unwind1guideXOS_guideXOS_DefaultApps_Paint__DrawPixel 00000000100a2af8     guideXOS.obj
 0004:00026b04       _unwind0guideXOS_guideXOS_DefaultApps_Paint__DrawBrush 00000000100a2b04     guideXOS.obj
 0004:00026b34       _unwind1guideXOS_guideXOS_DefaultApps_Paint__DrawBrush 00000000100a2b34     guideXOS.obj
 0004:00026b4c       _unwind0guideXOS_guideXOS_DefaultApps_Paint__DrawBrushLine 00000000100a2b4c     guideXOS.obj
 0004:00026b7c       _unwind1guideXOS_guideXOS_DefaultApps_Paint__DrawBrushLine 00000000100a2b7c     guideXOS.obj
 0004:00026b94       _unwind0guideXOS_guideXOS_DefaultApps_Paint__DrawThickLine 00000000100a2b94     guideXOS.obj
 0004:00026bb0       _unwind1guideXOS_guideXOS_DefaultApps_Paint__DrawThickLine 00000000100a2bb0     guideXOS.obj
 0004:00026bbc       _unwind0guideXOS_guideXOS_DefaultApps_Paint__DrawThickRectangle 00000000100a2bbc     guideXOS.obj
 0004:00026bf4       _unwind1guideXOS_guideXOS_DefaultApps_Paint__DrawThickRectangle 00000000100a2bf4     guideXOS.obj
 0004:00026c0c       _unwind0guideXOS_guideXOS_DefaultApps_Paint__DrawThickCircle 00000000100a2c0c     guideXOS.obj
 0004:00026c58       _unwind1guideXOS_guideXOS_DefaultApps_Paint__DrawThickCircle 00000000100a2c58     guideXOS.obj
 0004:00026c6c       _unwind2guideXOS_guideXOS_DefaultApps_Paint__DrawThickCircle 00000000100a2c6c     guideXOS.obj
 0004:00026c80       _unwind0guideXOS_guideXOS_DefaultApps_Paint__FloodFill 00000000100a2c80     guideXOS.obj
 0004:00026d0c       _unwind1guideXOS_guideXOS_DefaultApps_Paint__FloodFill 00000000100a2d0c     guideXOS.obj
 0004:00026d24       _unwind0guideXOS_guideXOS_DefaultApps_Paint__AddColorButton 00000000100a2d24     guideXOS.obj
 0004:00026d5c       _unwind1guideXOS_guideXOS_DefaultApps_Paint__AddColorButton 00000000100a2d5c     guideXOS.obj
 0004:00026d70       _unwind0guideXOS_guideXOS_DefaultApps_Paint__AddToolButton 00000000100a2d70     guideXOS.obj
 0004:00026dbc       _unwind1guideXOS_guideXOS_DefaultApps_Paint__AddToolButton 00000000100a2dbc     guideXOS.obj
 0004:00026dd4       _unwind0guideXOS_guideXOS_DefaultApps_Paint__AddSizeButton 00000000100a2dd4     guideXOS.obj
 0004:00026e20       _unwind1guideXOS_guideXOS_DefaultApps_Paint__AddSizeButton 00000000100a2e20     guideXOS.obj
 0004:00026e38       _unwind0guideXOS_guideXOS_DefaultApps_TaskManager___ctor 00000000100a2e38     guideXOS.obj
 0004:00026e64       _unwind0guideXOS_guideXOS_DefaultApps_TaskManager__OnSetVisible 00000000100a2e64     guideXOS.obj
 0004:00026e70       _unwind0guideXOS_guideXOS_DefaultApps_TaskManager__OnInput 00000000100a2e70     guideXOS.obj
 0004:00026edc       _unwind0guideXOS_guideXOS_DefaultApps_TaskManager__OnDraw 00000000100a2edc     guideXOS.obj
 0004:00026f0c       _unwind0guideXOS_guideXOS_DefaultApps_TaskManager__DrawTombstoned 00000000100a2f0c     guideXOS.obj
 0004:00026f48       _unwind0guideXOS_guideXOS_DefaultApps_TaskManager__CountTombstoned 00000000100a2f48     guideXOS.obj
 0004:00026f68       _unwind0guideXOS_guideXOS_DefaultApps_TaskManager__GetTombstonedAt 00000000100a2f68     guideXOS.obj
 0004:00026f88       _unwind0guideXOS_guideXOS_DefaultApps_TaskManager__RestoreTombstoned 00000000100a2f88     guideXOS.obj
 0004:00026f98       _unwind0guideXOS_guideXOS_DefaultApps_TaskManager__EndTombstoned 00000000100a2f98     guideXOS.obj
 0004:00026fac       _unwind0guideXOS_guideXOS_DefaultApps_TaskManager__DrawTab 00000000100a2fac     guideXOS.obj
 0004:00026fd4       _unwind0guideXOS_guideXOS_DefaultApps_TaskManager__DrawProcesses 00000000100a2fd4     guideXOS.obj
 0004:000270e8       _unwind1guideXOS_guideXOS_DefaultApps_TaskManager__DrawProcesses 00000000100a30e8     guideXOS.obj
 0004:00027100       _unwind2guideXOS_guideXOS_DefaultApps_TaskManager__DrawProcesses 00000000100a3100     guideXOS.obj
 0004:00027118       _unwind0guideXOS_guideXOS_DefaultApps_TaskManager__DrawHeaderCell 00000000100a3118     guideXOS.obj
 0004:00027138       _unwind0guideXOS_guideXOS_DefaultApps_TaskManager__DrawPerformance 00000000100a3138     guideXOS.obj
 0004:000271c0       _unwind0guideXOS_guideXOS_DefaultApps_TaskManager__GetChartForCategory 00000000100a31c0     guideXOS.obj
 0004:000271c8       _unwind0guideXOS_guideXOS_DefaultApps_TaskManager__DrawMiniGraph 00000000100a31c8     guideXOS.obj
 0004:00027220       _unwind0guideXOS_guideXOS_DefaultApps_TaskManager__DrawCpuDetail 00000000100a3220     guideXOS.obj
 0004:00027274       _unwind0guideXOS_guideXOS_DefaultApps_TaskManager__DrawMemDetail 00000000100a3274     guideXOS.obj
 0004:000274c0       _unwind0guideXOS_guideXOS_DefaultApps_TaskManager__DrawDiskDetail 00000000100a34c0     guideXOS.obj
 0004:00027528       _unwind0guideXOS_guideXOS_DefaultApps_TaskManager__DrawNetDetail 00000000100a3528     guideXOS.obj
 0004:00027574       _unwind0guideXOS_guideXOS_DefaultApps_TaskManager__UpdateChart 00000000100a3574     guideXOS.obj
 0004:00027594       _unwind0guideXOS_guideXOS_DefaultApps_TaskManager__OnEndTask 00000000100a3594     guideXOS.obj
 0004:000275ac       _unwind0guideXOS_guideXOS_DefaultApps_TaskManager__SampleOwnerBytes 00000000100a35ac     guideXOS.obj
 0004:00027614       _unwind0guideXOS_guideXOS_DefaultApps_TaskManager__Dispose 00000000100a3614     guideXOS.obj
 0004:00027648       _unwind0guideXOS_guideXOS_DefaultApps_TaskManager__DrawMemoryDetails 00000000100a3648     guideXOS.obj
 0004:00027754       _unwind0guideXOS_guideXOS_DefaultApps_TaskManager__UpdateMemoryDetailStats 00000000100a3754     guideXOS.obj
 0004:00027768       _unwind0guideXOS_guideXOS_DefaultApps_TaskManager___SampleOwnerBytes_g__FindOrAddOwner_95_0 00000000100a3768     guideXOS.obj
 0004:0002778c       _unwind0guideXOS_guideXOS_DefaultApps_TTFFontDemo__LoadTTFFonts 00000000100a378c     guideXOS.obj
 0004:000277fc       _unwind1guideXOS_guideXOS_DefaultApps_TTFFontDemo__LoadTTFFonts 00000000100a37fc     guideXOS.obj
 0004:0002780c       _unwind0guideXOS_guideXOS_DefaultApps_TTFFontDemo__OnDraw 00000000100a380c     guideXOS.obj
 0004:00027920       _unwind1guideXOS_guideXOS_DefaultApps_TTFFontDemo__OnDraw 00000000100a3920     guideXOS.obj
 0004:00027938       _unwind0guideXOS_guideXOS_DefaultApps_TTFFontDemo__OnInput 00000000100a3938     guideXOS.obj
 0004:00027940       _unwind0guideXOS_guideXOS_DefaultApps_USBDrives___ctor 00000000100a3940     guideXOS.obj
 0004:00027954       _unwind0guideXOS_guideXOS_DefaultApps_USBDrives__RefreshDrives 00000000100a3954     guideXOS.obj
 0004:00027984       _unwind0guideXOS_guideXOS_DefaultApps_USBDrives__OnDraw 00000000100a3984     guideXOS.obj
 0004:000279a8       _unwind0guideXOS_guideXOS_DefaultApps_USBDrives__OnInput 00000000100a39a8     guideXOS.obj
 0004:000279f4       _unwind0guideXOS_guideXOS_DefaultApps_WAVPlayer__Play 00000000100a39f4     guideXOS.obj
 0004:00027a24       _unwind0guideXOS_guideXOS_DefaultApps_WAVPlayer__DoPlay 00000000100a3a24     guideXOS.obj
 0004:00027a3c       _unwind0guideXOS_guideXOS_DefaultApps_WebBrowser___ctor 00000000100a3a3c     guideXOS.obj
 0004:00027a64       _unwind0guideXOS_guideXOS_DefaultApps_WebBrowser__OnKey 00000000100a3a64     guideXOS.obj
 0004:00027a90       _unwind0guideXOS_guideXOS_DefaultApps_WebBrowser__MapChar 00000000100a3a90     guideXOS.obj
 0004:00027aa0       _unwind0guideXOS_guideXOS_DefaultApps_WebBrowser__OnInput 00000000100a3aa0     guideXOS.obj
 0004:00027b08       _unwind0guideXOS_guideXOS_DefaultApps_WebBrowser__OnDraw 00000000100a3b08     guideXOS.obj
 0004:00027b44       _unwind0guideXOS_guideXOS_DefaultApps_WebBrowser__DrawTabBar 00000000100a3b44     guideXOS.obj
 0004:00027b80       _unwind0guideXOS_guideXOS_DefaultApps_WebBrowser__DrawRenderedContent 00000000100a3b80     guideXOS.obj
 0004:00027bec       _unwind0guideXOS_guideXOS_DefaultApps_WebBrowser__DrawScrollbar 00000000100a3bec     guideXOS.obj
 0004:00027c28       _unwind0guideXOS_guideXOS_DefaultApps_WebBrowser__AddNewTab 00000000100a3c28     guideXOS.obj
 0004:00027c40       _unwind0guideXOS_guideXOS_DefaultApps_WebBrowser__CloseTab 00000000100a3c40     guideXOS.obj
 0004:00027c58       _unwind0guideXOS_guideXOS_DefaultApps_WebBrowser__PollReceive 00000000100a3c58     guideXOS.obj
 0004:00027c6c       _unwind0guideXOS_guideXOS_DefaultApps_WebBrowser__StartRequest 00000000100a3c6c     guideXOS.obj
 0004:00027cb0       _unwind0guideXOS_guideXOS_DefaultApps_WebBrowser__AppendData 00000000100a3cb0     guideXOS.obj
 0004:00027d24       _unwind0guideXOS_guideXOS_DefaultApps_WebBrowser__ParseAndRenderHtml 00000000100a3d24     guideXOS.obj
 0004:00027e0c       _unwind0guideXOS_guideXOS_DefaultApps_WebBrowser__AddTextElement 00000000100a3e0c     guideXOS.obj
 0004:00027f14       _unwind0guideXOS_guideXOS_DefaultApps_WebBrowser__AddLine 00000000100a3f14     guideXOS.obj
 0004:00027f38       _unwind0guideXOS_guideXOS_DefaultApps_WebBrowser__SplitWords 00000000100a3f38     guideXOS.obj
 0004:00027f8c       _unwind0guideXOS_guideXOS_DefaultApps_WebBrowser__ExtractTitle 00000000100a3f8c     guideXOS.obj
 0004:00027ff0       _unwind0guideXOS_guideXOS_DefaultApps_WebBrowser__ToLowerCase 00000000100a3ff0     guideXOS.obj
 0004:00028024       _unwind0guideXOS_guideXOS_DefaultApps_WebBrowser__FindString 00000000100a4024     guideXOS.obj
 0004:0002805c       _unwind0guideXOS_guideXOS_DefaultApps_WebBrowser__NextEphemeral 00000000100a405c     guideXOS.obj
 0004:00028068       _unwind0guideXOS_guideXOS_DefaultApps_WebBrowser__ToAscii 00000000100a4068     guideXOS.obj
 0004:0002808c       _unwind0guideXOS_guideXOS_DefaultApps_WebBrowser__OnSetVisible 00000000100a408c     guideXOS.obj
 0004:000280a8       _unwind0guideXOS_guideXOS_DefaultApps_WebBrowser__IndexOf 00000000100a40a8     guideXOS.obj
 0004:000280c0       _unwind0guideXOS_guideXOS_DefaultApps_WebBrowser__StartsWithFast 00000000100a40c0     guideXOS.obj
 0004:000280e4       _unwind0guideXOS_guideXOS_DefaultApps_WebBrowser__Dispose 00000000100a40e4     guideXOS.obj
 0004:00028120       _unwind0guideXOS_guideXOS_DefaultApps_Welcome___ctor 00000000100a4120     guideXOS.obj
 0004:00028140       _unwind0guideXOS_guideXOS_DefaultApps_Welcome__OnDraw 00000000100a4140     guideXOS.obj
 0004:00028158       _unwind0guideXOS_guideXOS_Compat_Posix__EndsWithSlash 00000000100a4158     guideXOS.obj
 0004:00028160       _unwind0guideXOS_guideXOS_Compat_Posix__LastSlashBefore 00000000100a4160     guideXOS.obj
 0004:00028178       _unwind0guideXOS_guideXOS_Compat_Posix__StartsWithString 00000000100a4178     guideXOS.obj
 0004:000281a0       _unwind0guideXOS_guideXOS_Compat_Posix__NormalizePath 00000000100a41a0     guideXOS.obj
 0004:00028208       _unwind0guideXOS_guideXOS_Compat_Posix__EnsureDir 00000000100a4208     guideXOS.obj
 0004:00028218       _unwind0guideXOS_guideXOS_Compat_Posix__CombineRelative 00000000100a4218     guideXOS.obj
 0004:0002822c       _unwind0guideXOS_guideXOS_Compat_Posix__Split 00000000100a422c     guideXOS.obj
 0004:00028268       _unwind0guideXOS_guideXOS_Compat_Posix__List 00000000100a4268     guideXOS.obj
 0004:000282a8       _unwind0guideXOS_guideXOS_Compat_Posix__DirectoryExists 00000000100a42a8     guideXOS.obj
 0004:00028320       _unwind0guideXOS_guideXOS_Compat_Posix__DisposeAll 00000000100a4320     guideXOS.obj
 0004:00028348       _unwind0guideXOS_guideXOS_Compat_Posix__TryFuzzyResolve 00000000100a4348     guideXOS.obj
 0004:000283c0       _unwind0guideXOS_Program___c___ctor 00000000100a43c0     guideXOS.obj
 0004:000283c8       _unwind0guideXOS_Program___c___SMain_b__22_0 00000000100a43c8     guideXOS.obj
 0004:00028408       _unwind1guideXOS_Program___c___SMain_b__22_0 00000000100a4408     guideXOS.obj
 0004:00028418       _unwind0guideXOS_guideXOS_NETv4_MACAddress__op_Equality 00000000100a4418     guideXOS.obj
 0004:00028420       _unwind0guideXOS_guideXOS_NETv4_TCPClient___ctor 00000000100a4420     guideXOS.obj
 0004:00028438       _unwind0guideXOS_guideXOS_NETv4_TCPClient__CacheConcat 00000000100a4438     guideXOS.obj
 0004:0002848c       _unwind0guideXOS_guideXOS_NETv4_TCPClient__CacheFlush 00000000100a448c     guideXOS.obj
 0004:000284a0       _unwind0guideXOS_guideXOS_NETv4_IPAddress__IsInSameSubnet 00000000100a44a0     guideXOS.obj
 0004:000284a8       _unwind0guideXOS_guideXOS_Network_Http_Header___ctor 00000000100a44a8     guideXOS.obj
 0004:000284b0       _unwind0guideXOS_guideXOS_Network_Http_Request___ctor 00000000100a44b0     guideXOS.obj
 0004:000284c4       _unwind0guideXOS_guideXOS_Network_Http_Response___ctor 00000000100a44c4     guideXOS.obj
 0004:000284d8       _unwind0guideXOS_guideXOS_FS_FAT___c__DisplayClass50_0___ctor 00000000100a44d8     guideXOS.obj
 0004:000284e0       _unwind0guideXOS_guideXOS_FS_FAT___c__DisplayClass50_0___FindPath_b__0 00000000100a44e0     guideXOS.obj
 0004:000284f0       _unwind0guideXOS_guideXOS_FS_FAT___c__DisplayClass50_1___ctor 00000000100a44f0     guideXOS.obj
 0004:000284f8       _unwind0guideXOS_guideXOS_FS_FAT___c__DisplayClass50_1___FindPath_b__1 00000000100a44f8     guideXOS.obj
 0004:0002850c       _unwind0guideXOS_guideXOS_FS_FAT___c__DisplayClass60_0___ctor 00000000100a450c     guideXOS.obj
 0004:00028514       _unwind0guideXOS_guideXOS_FS_FAT___c__DisplayClass60_0___GetFiles_b__0 00000000100a4514     guideXOS.obj
 0004:00028530       _unwind0guideXOS_guideXOS_Kernel_Drivers_EHCI_TD__Clean 00000000100a4530     guideXOS.obj
 0004:00028550       _unwind0guideXOS_guideXOS_Kernel_Drivers_EHCI_QH__Clean 00000000100a4550     guideXOS.obj
 0004:00028570       _unwind0guideXOS_guideXOS_Kernel_Drivers_SATA_HBACommandHeader__set_CommandFISLength 00000000100a4570     guideXOS.obj
 0004:00028578       _unwind0guideXOS_guideXOS_Kernel_Drivers_SATA_HBACommandHeader__set_Write 00000000100a4578     guideXOS.obj
 0004:00028580       _unwind0guideXOS_guideXOS_Kernel_Drivers_SATA_SATADevice__Configure 00000000100a4580     guideXOS.obj
 0004:000285a8       _unwind0guideXOS_guideXOS_Kernel_Drivers_SATA_SATADevice__StartCMD 00000000100a45a8     guideXOS.obj
 0004:000285b8       _unwind0guideXOS_guideXOS_Kernel_Drivers_SATA_SATADevice__StopCMD 00000000100a45b8     guideXOS.obj
 0004:000285c8       _unwind0guideXOS_guideXOS_Kernel_Drivers_SATA_SATADevice__Read 00000000100a45c8     guideXOS.obj
 0004:000285d4       _unwind0guideXOS_guideXOS_Kernel_Drivers_SATA_SATADevice__Write 00000000100a45d4     guideXOS.obj
 0004:000285e0       _unwind0guideXOS_guideXOS_Kernel_Drivers_SATA_SATADevice__ReadOrWrite 00000000100a45e0     guideXOS.obj
 0004:0002862c       _unwind0guideXOS_guideXOS_Kernel_Drivers_SATA_SATADevice__FindSlot 00000000100a462c     guideXOS.obj
 0004:00028640       _unwind0guideXOS_guideXOS_Kernel_Drivers_SATA_SATADevice___ctor 00000000100a4640     guideXOS.obj
 0004:00028650       _unwind0guideXOS_guideXOS_Kernel_Drivers_USBMSCBot_USBDisk__Initialize 00000000100a4650     guideXOS.obj
 0004:00028684       _unwind0guideXOS_guideXOS_Kernel_Drivers_USBMSCBot_USBDisk__FillCBW 00000000100a4684     guideXOS.obj
 0004:00028694       _unwind0guideXOS_guideXOS_Kernel_Drivers_USBMSCBot_USBDisk__BotReset 00000000100a4694     guideXOS.obj
 0004:000286a0       _unwind0guideXOS_guideXOS_Kernel_Drivers_USBMSCBot_USBDisk__GetMaxLun 00000000100a46a0     guideXOS.obj
 0004:000286ac       _unwind0guideXOS_guideXOS_Kernel_Drivers_USBMSCBot_USBDisk__SendCBW 00000000100a46ac     guideXOS.obj
 0004:000286d8       _unwind0guideXOS_guideXOS_Kernel_Drivers_USBMSCBot_USBDisk__ReceiveCSW 00000000100a46d8     guideXOS.obj
 0004:000286f4       _unwind0guideXOS_guideXOS_Kernel_Drivers_USBMSCBot_USBDisk__SCSI_Inquiry 00000000100a46f4     guideXOS.obj
 0004:00028728       _unwind0guideXOS_guideXOS_Kernel_Drivers_USBMSCBot_USBDisk__TestUnitReady 00000000100a4728     guideXOS.obj
 0004:0002874c       _unwind0guideXOS_guideXOS_Kernel_Drivers_USBMSCBot_USBDisk__ReadCapacity 00000000100a474c     guideXOS.obj
 0004:000287a0       _unwind0guideXOS_guideXOS_Kernel_Drivers_USBMSCBot_USBDisk__Swap32 00000000100a47a0     guideXOS.obj
 0004:000287a8       _unwind0guideXOS_guideXOS_Kernel_Drivers_USBMSCBot_USBDisk__Read10 00000000100a47a8     guideXOS.obj
 0004:000287d8       _unwind0guideXOS_guideXOS_Kernel_Drivers_USBMSCBot_USBDisk__Read 00000000100a47d8     guideXOS.obj
 0004:000287f4       _unwind0guideXOS_guideXOS_Kernel_Drivers_USBMSCBot_USBDisk__Write 00000000100a47f4     guideXOS.obj
 0004:000287fc       _unwind0guideXOS_guideXOS_Modules_ModuleManager___c___ctor 00000000100a47fc     guideXOS.obj
 0004:00028804       _unwind0guideXOS_guideXOS_Modules_ModuleManager___c___InitializeBuiltins_b__7_0 00000000100a4804     guideXOS.obj
 0004:00028818       _unwind0guideXOS_guideXOS_Misc_TrueTypeFont_TableRecord___ctor 00000000100a4818     guideXOS.obj
 0004:00028820       _unwind0guideXOS_guideXOS_Misc_TrueTypeFont_GlyphOutline___ctor 00000000100a4820     guideXOS.obj
 0004:00028838       _unwind0guideXOS_guideXOS_Misc_Interrupts_INT___ctor 00000000100a4838     guideXOS.obj
 0004:00028840       _unwind0guideXOS_guideXOS_GUI_DisplayOptions___c___ctor 00000000100a4840     guideXOS.obj
 0004:00028848       _unwind0guideXOS_guideXOS_GUI_DisplayOptions___c___OnInput_b__40_0 00000000100a4848     guideXOS.obj
 0004:000288c0       _unwind1guideXOS_guideXOS_GUI_DisplayOptions___c___OnInput_b__40_0 00000000100a48c0     guideXOS.obj
 0004:000288d8       _unwind0guideXOS_guideXOS_GUI_DisplayOptions___c___OnInput_b__40_1 00000000100a48d8     guideXOS.obj
 0004:00028914       _unwind0guideXOS_guideXOS_GUI_GXMScriptWindow_TextBoxDef___ctor 00000000100a4914     guideXOS.obj
 0004:00028920       _unwind0guideXOS_guideXOS_GUI_GXMScriptWindow_ListViewDef___ctor 00000000100a4920     guideXOS.obj
 0004:00028934       _unwind0guideXOS_guideXOS_GUI_GXMScriptWindow_DropdownDef___ctor 00000000100a4934     guideXOS.obj
 0004:00028948       _unwind0guideXOS_guideXOS_GUI_GXMScriptWindow_Callback___ctor 00000000100a4948     guideXOS.obj
 0004:00028950       _unwind0guideXOS_guideXOS_GUI_WorkspaceSwitcher_WindowSnapshot___ctor 00000000100a4950     guideXOS.obj
 0004:00028958       _unwind0guideXOS_guideXOS_DockableWidgets_Monitor_Chart___ctor 00000000100a4958     guideXOS.obj
 0004:00028974       _unwind0guideXOS_guideXOS_DefaultApps_DiskManager_DiskEntry___ctor 00000000100a4974     guideXOS.obj
 0004:0002897c       _unwind0guideXOS_guideXOS_DefaultApps_DiskManager___c__DisplayClass38_0___ctor 00000000100a497c     guideXOS.obj
 0004:00028984       _unwind0guideXOS_guideXOS_DefaultApps_DiskManager___c__DisplayClass38_0___ReadMBRForEntry_b__0 00000000100a4984     guideXOS.obj
 0004:000289e4       _unwind1guideXOS_guideXOS_DefaultApps_DiskManager___c__DisplayClass38_0___ReadMBRForEntry_b__0 00000000100a49e4     guideXOS.obj
 0004:000289f8       _unwind2guideXOS_guideXOS_DefaultApps_DiskManager___c__DisplayClass38_0___ReadMBRForEntry_b__0 00000000100a49f8     guideXOS.obj
 0004:00028a0c       _unwind0guideXOS_guideXOS_DefaultApps_DiskManager___c__DisplayClass54_0___ctor 00000000100a4a0c     guideXOS.obj
 0004:00028a14       _unwind0guideXOS_guideXOS_DefaultApps_DiskManager___c__DisplayClass54_0___TryCreatePartitionLargestFree_b__0 00000000100a4a14     guideXOS.obj
 0004:00028a24       _unwind0guideXOS_guideXOS_DefaultApps_DiskManager___c__DisplayClass54_0___TryCreatePartitionLargestFree_b__1 00000000100a4a24     guideXOS.obj
 0004:00028a34       _unwind0guideXOS_guideXOS_DefaultApps_HDInstaller_DiskInfo___ctor 00000000100a4a34     guideXOS.obj
 0004:00028a3c       _unwind0guideXOS_guideXOS_DefaultApps_IRCNetworks_Entry___ctor 00000000100a4a3c     guideXOS.obj
 0004:00028a44       _unwind0guideXOS_guideXOS_DefaultApps_Notepad___c__DisplayClass24_0___ctor 00000000100a4a44     guideXOS.obj
 0004:00028a4c       _unwind0guideXOS_guideXOS_DefaultApps_Notepad___c__DisplayClass24_0___OpenSaveAs_b__0 00000000100a4a4c     guideXOS.obj
 0004:00028a5c       _unwind0guideXOS_guideXOS_DefaultApps_TaskManager_Chart___ctor 00000000100a4a5c     guideXOS.obj
 0004:00028a78       _unwind0guideXOS_guideXOS_DefaultApps_TaskManager_Chart__EnsureSize 00000000100a4a78     guideXOS.obj
 0004:00028a94       _unwind0guideXOS_guideXOS_DefaultApps_WebBrowser_BrowserTab___ctor 00000000100a4a94     guideXOS.obj
 0004:00028aa8       _unwind0guideXOS_guideXOS_DefaultApps_WebBrowser_RenderElement___ctor 00000000100a4aa8     guideXOS.obj
 0004:00028ab0       _unwind0guideXOS_System_Array_1<Bool>___ctor 00000000100a4ab0     guideXOS.obj
 0004:00028ab8       _unwind0guideXOS_System_Collections_Generic_List_1<Bool>__Dispose 00000000100a4ab8     guideXOS.obj
 0004:00028adc       _unwind0guideXOS_System_Array_1<UInt8>___ctor 00000000100a4adc     guideXOS.obj
 0004:00028ae4       _unwind0guideXOS_System_Collections_Generic_List_1<UInt8>__ToArray 00000000100a4ae4     guideXOS.obj
 0004:00028b04       _unwind0guideXOS_System_Collections_Generic_List_1<UInt8>__Dispose 00000000100a4b04     guideXOS.obj
 0004:00028b28       _unwind0guideXOS_System_Array_1<Char>___ctor 00000000100a4b28     guideXOS.obj
 0004:00028b30       _unwind0guideXOS_System_Collections_Generic_List_1<Char>__IndexOf 00000000100a4b30     guideXOS.obj
 0004:00028b3c       _unwind0guideXOS_System_Collections_Generic_List_1<Char>__Dispose 00000000100a4b3c     guideXOS.obj
 0004:00028b60       _unwind0guideXOS_System_Collections_Generic_Dictionary_2<Char__Int32>___ctor 00000000100a4b60     guideXOS.obj
 0004:00028b78       _unwind0guideXOS_System_Collections_Generic_Dictionary_2<Char__Int32>__Dispose 00000000100a4b78     guideXOS.obj
 0004:00028bb0       _unwind0guideXOS_System_Collections_Generic_Dictionary_2<Char__System___Canon>___ctor 00000000100a4bb0     guideXOS.obj
 0004:00028bcc       _unwind0guideXOS_System_Collections_Generic_Dictionary_2<Char__System___Canon>__Dispose 00000000100a4bcc     guideXOS.obj
 0004:00028c04       _unwind0guideXOS_System_Array_1<Int16>___ctor 00000000100a4c04     guideXOS.obj
 0004:00028c0c       _unwind0guideXOS_System_Array_1<Int32>___ctor 00000000100a4c0c     guideXOS.obj
 0004:00028c14       _unwind0guideXOS_System_Collections_Generic_List_1<Int32>__Dispose 00000000100a4c14     guideXOS.obj
 0004:00028c38       _unwind0guideXOS_System_Func_2<Int32__System___Canon>__InvokeOpenStaticThunk 00000000100a4c38     guideXOS.obj
 0004:00028c4c       _unwind0guideXOS_System_Array_1<Single>___ctor 00000000100a4c4c     guideXOS.obj
 0004:00028c54       _unwind0guideXOS_System_Array_1<UInt32>___ctor 00000000100a4c54     guideXOS.obj
 0004:00028c5c       _unwind0guideXOS_System_Collections_Generic_List_1<UInt32>__Dispose 00000000100a4c5c     guideXOS.obj
 0004:00028c80       _unwind0guideXOS_System_Array_1<UInt64>___ctor 00000000100a4c80     guideXOS.obj
 0004:00028c88       _unwind0guideXOS_System_Collections_Generic_List_1<UInt64>__RemoveAt 00000000100a4c88     guideXOS.obj
 0004:00028cac       _unwind0guideXOS_System_Collections_Generic_List_1<UInt64>__Dispose 00000000100a4cac     guideXOS.obj
 0004:00028cd0       _unwind0guideXOS_System_Array_1<guideXOS_System_Drawing_Point>___ctor 00000000100a4cd0     guideXOS.obj
 0004:00028cd8       _unwind0guideXOS_System_Collections_Generic_List_1<guideXOS_System_Drawing_Point>__RemoveAt 00000000100a4cd8     guideXOS.obj
 0004:00028d00       _unwind0guideXOS_System_Collections_Generic_List_1<guideXOS_System_Drawing_Point>__Dispose 00000000100a4d00     guideXOS.obj
 0004:00028d24       _unwind0guideXOS_System_Array_1<guideXOS_guideXOS_Kernel_Drivers_Resolution>___ctor 00000000100a4d24     guideXOS.obj
 0004:00028d2c       _unwind0guideXOS_System_Array_1<guideXOS_guideXOS_OS_FirewallMode>___ctor 00000000100a4d2c     guideXOS.obj
 0004:00028d34       _unwind0guideXOS_System_Array_1<guideXOS_guideXOS_GUI_RecentProgramEntry>___ctor 00000000100a4d34     guideXOS.obj
 0004:00028d3c       _unwind0guideXOS_System_Collections_Generic_List_1<guideXOS_guideXOS_GUI_RecentProgramEntry>__Insert 00000000100a4d3c     guideXOS.obj
 0004:00028db0       _unwind0guideXOS_System_Collections_Generic_List_1<guideXOS_guideXOS_GUI_RecentProgramEntry>__ToArray 00000000100a4db0     guideXOS.obj
 0004:00028df0       _unwind0guideXOS_System_Collections_Generic_List_1<guideXOS_guideXOS_GUI_RecentProgramEntry>__IndexOf 00000000100a4df0     guideXOS.obj
 0004:00028dfc       _unwind0guideXOS_System_Collections_Generic_List_1<guideXOS_guideXOS_GUI_RecentProgramEntry>__RemoveAt 00000000100a4dfc     guideXOS.obj
 0004:00028e40       _unwind0guideXOS_System_Collections_Generic_List_1<guideXOS_guideXOS_GUI_RecentProgramEntry>__Dispose 00000000100a4e40     guideXOS.obj
 0004:00028e64       _unwind0guideXOS_System_Array_1<guideXOS_guideXOS_GUI_RecentDocumentEntry>___ctor 00000000100a4e64     guideXOS.obj
 0004:00028e6c       _unwind0guideXOS_System_Collections_Generic_List_1<guideXOS_guideXOS_GUI_RecentDocumentEntry>__Insert 00000000100a4e6c     guideXOS.obj
 0004:00028ee0       _unwind0guideXOS_System_Collections_Generic_List_1<guideXOS_guideXOS_GUI_RecentDocumentEntry>__ToArray 00000000100a4ee0     guideXOS.obj
 0004:00028f20       _unwind0guideXOS_System_Collections_Generic_List_1<guideXOS_guideXOS_GUI_RecentDocumentEntry>__IndexOf 00000000100a4f20     guideXOS.obj
 0004:00028f2c       _unwind0guideXOS_System_Collections_Generic_List_1<guideXOS_guideXOS_GUI_RecentDocumentEntry>__RemoveAt 00000000100a4f2c     guideXOS.obj
 0004:00028f70       _unwind0guideXOS_System_Collections_Generic_List_1<guideXOS_guideXOS_GUI_RecentDocumentEntry>__Dispose 00000000100a4f70     guideXOS.obj
 0004:00028f94       _unwind0guideXOS_System_Array_1<guideXOS_guideXOS_GUI_WindowEffectType>___ctor 00000000100a4f94     guideXOS.obj
 0004:00028f9c       _unwind0guideXOS_System_Array_1<guideXOS_guideXOS_DefaultApps_PaintTool>___ctor 00000000100a4f9c     guideXOS.obj
 0004:00028fa4       _unwind0guideXOS_System_Collections_Generic_List_1<guideXOS_guideXOS_DefaultApps_PaintTool>__Dispose 00000000100a4fa4     guideXOS.obj
 0004:00028fc8       _unwind0guideXOS_System_Array_1<guideXOS_Allocator_OwnerSnapshot>___ctor 00000000100a4fc8     guideXOS.obj
 0004:00028fd0       _unwind0guideXOS_System_Array_1<guideXOS_IDT_IDTEntry>___ctor 00000000100a4fd0     guideXOS.obj
 0004:00028fd8       _unwind0guideXOS_System_Array_1<guideXOS_guideXOS_NETv4_ARPCache>___ctor 00000000100a4fd8     guideXOS.obj
 0004:00028fe0       _unwind0guideXOS_System_Collections_Generic_List_1<guideXOS_guideXOS_NETv4_ARPCache>__Dispose 00000000100a4fe0     guideXOS.obj
 0004:00029004       _unwind0guideXOS_System_Array_1<guideXOS_guideXOS_FS_EXT2_DirEnt>___ctor 00000000100a5004     guideXOS.obj
 0004:0002900c       _unwind0guideXOS_System_Collections_Generic_List_1<guideXOS_guideXOS_FS_EXT2_DirEnt>__Dispose 00000000100a500c     guideXOS.obj
 0004:00029030       _unwind0guideXOS_System_Array_1<guideXOS_guideXOS_Modules_ModuleManager_ModuleEntry>___ctor 00000000100a5030     guideXOS.obj
 0004:00029038       _unwind0guideXOS_System_Collections_Generic_List_1<guideXOS_guideXOS_Modules_ModuleManager_ModuleEntry>__Dispose 00000000100a5038     guideXOS.obj
 0004:0002905c       _unwind0guideXOS_System_Array_1<guideXOS_guideXOS_Misc_TrueTypeFont_Point>___ctor 00000000100a505c     guideXOS.obj
 0004:00029064       _unwind0guideXOS_System_Collections_Generic_List_1<guideXOS_guideXOS_Misc_TrueTypeFont_Point>__Dispose 00000000100a5064     guideXOS.obj
 0004:00029088       _unwind0guideXOS_System_Array_1<guideXOS_guideXOS_GUI_GXMScriptWindow_Btn>___ctor 00000000100a5088     guideXOS.obj
 0004:00029090       _unwind0guideXOS_System_Collections_Generic_List_1<guideXOS_guideXOS_GUI_GXMScriptWindow_Btn>__Dispose 00000000100a5090     guideXOS.obj
 0004:000290b4       _unwind0guideXOS_System_Array_1<guideXOS_guideXOS_GUI_GXMScriptWindow_Label>___ctor 00000000100a50b4     guideXOS.obj
 0004:000290bc       _unwind0guideXOS_System_Collections_Generic_List_1<guideXOS_guideXOS_GUI_GXMScriptWindow_Label>__Dispose 00000000100a50bc     guideXOS.obj
 0004:000290e0       _unwind0guideXOS_System_Array_1<guideXOS_guideXOS_GUI_PinnedManager_Pinned>___ctor 00000000100a50e0     guideXOS.obj
 0004:000290e8       _unwind0guideXOS_System_Collections_Generic_List_1<guideXOS_guideXOS_GUI_PinnedManager_Pinned>__Dispose 00000000100a50e8     guideXOS.obj
 0004:0002910c       _unwind0guideXOS_System_Array_1<guideXOS_guideXOS_GUI_StartMenu_AppEntry>___ctor 00000000100a510c     guideXOS.obj
 0004:00029114       _unwind0guideXOS_System_Array_1<guideXOS_guideXOS_GUI_USBDrives_Entry>___ctor 00000000100a5114     guideXOS.obj
 0004:0002911c       _unwind0guideXOS_System_Collections_Generic_List_1<guideXOS_guideXOS_GUI_WindowManager_PendingWindow>__get_Item 00000000100a511c     guideXOS.obj
 0004:00029128       _unwind0guideXOS_System_Collections_Generic_List_1<guideXOS_guideXOS_GUI_WindowManager_PendingWindow>__Add 00000000100a5128     guideXOS.obj
 0004:00029134       _unwind0guideXOS_System_Collections_Generic_List_1<guideXOS_guideXOS_GUI_WindowManager_PendingWindow>__Clear 00000000100a5134     guideXOS.obj
 0004:0002913c       _unwind0guideXOS_System_Array_1<guideXOS_guideXOS_DefaultApps_Devices_Row>___ctor 00000000100a513c     guideXOS.obj
 0004:00029144       _unwind0guideXOS_System_Array_1<guideXOS_guideXOS_DefaultApps_DiskManager_Part>___ctor 00000000100a5144     guideXOS.obj
 0004:0002914c       _unwind0guideXOS_System_Array_1<System___Canon>___ctor 00000000100a514c     guideXOS.obj
 0004:00029154       _unwind0guideXOS_System_Collections_Generic_List_1<System___Canon>___ctor 00000000100a5154     guideXOS.obj
 0004:00029168       _unwind0guideXOS_System_Collections_Generic_List_1<System___Canon>__ToArray 00000000100a5168     guideXOS.obj
 0004:00029194       _unwind0guideXOS_System_Collections_Generic_List_1<System___Canon>__IndexOf 00000000100a5194     guideXOS.obj
 0004:000291b4       _unwind0guideXOS_System_Collections_Generic_List_1<System___Canon>__Remove 00000000100a51b4     guideXOS.obj
 0004:000291c4       _unwind0guideXOS_System_Collections_Generic_List_1<System___Canon>__RemoveAt 00000000100a51c4     guideXOS.obj
 0004:000291ec       _unwind0guideXOS_System_Collections_Generic_List_1<System___Canon>__Dispose 00000000100a51ec     guideXOS.obj
 0004:00029210       _unwind0guideXOS_System_Collections_Generic_Queue_1<System___Canon>__Dequeue 00000000100a5210     guideXOS.obj
 0004:00029244       _unwind0guideXOS_System_Array_EmptyArray_1<System___Canon>___cctor 00000000100a5244     guideXOS.obj
 0004:00029258       _unwind0guideXOS_System_Collections_Generic_Dictionary_2<System___Canon__Int32>___ctor 00000000100a5258     guideXOS.obj
 0004:00029274       _unwind0guideXOS_System_Collections_Generic_Dictionary_2<System___Canon__Int32>__Dispose 00000000100a5274     guideXOS.obj
 0004:000292ac       _unwind0guideXOS_System_Collections_Generic_Dictionary_2<System___Canon__guideXOS_guideXOS_DefaultApps_PaintTool>___ctor 00000000100a52ac     guideXOS.obj
 0004:000292c8       _unwind0guideXOS_System_Collections_Generic_Dictionary_2<System___Canon__guideXOS_guideXOS_DefaultApps_PaintTool>__Dispose 00000000100a52c8     guideXOS.obj
 0004:00029300       _unwind0guideXOS_System_Collections_Generic_Dictionary_2<System___Canon__System___Canon>___ctor 00000000100a5300     guideXOS.obj
 0004:00029320       _unwind0guideXOS_System_Collections_Generic_Dictionary_2<System___Canon__System___Canon>__Dispose 00000000100a5320     guideXOS.obj
 0004:00029358       _unwind0guideXOS__Module___StartupCodeMain 00000000100a5358     guideXOS.obj
 0004:00029368       _unwind0guideXOS_Allocator__ClearAllocate<guideXOS_guideXOS_Intel825xx_RXDescriptor> 00000000100a5368     guideXOS.obj
 0004:00029374       _unwind0guideXOS_Allocator__ClearAllocate<guideXOS_guideXOS_Intel825xx_TXDescriptor> 00000000100a5374     guideXOS.obj
 0004:00029380       _unwind0guideXOS_Allocator__ClearAllocate<guideXOS_guideXOS_RTL8111_DMADescriptor> 00000000100a5380     guideXOS.obj
 0005:00000000       __FrozenSegmentRegionStart 00000000100a6000     guideXOS.obj
 0005:00000008       __Str_                     00000000100a6008     guideXOS.obj
 0005:00000020       __Str________________________________F9B74DCC2C30B833333DF39209DF1D350F28DAD78C0CCF4488DEC08673AE266D 00000000100a6020     guideXOS.obj
 0005:00002038       __Str___102B51B9765A56A3E899F7CF0EE38E5251F9C503B357B330A49183EB7B155604 00000000100a8038     guideXOS.obj
 0005:00002050       __Str_____Boot_partition__for_kernel_501F11574FFD765961E667DD73F53B2FFE9843AE0570BE6125D1AD85E7EFEEB2 00000000100a8050     guideXOS.obj
 0005:00002120       __Str__Detected_media___E6E76DA0E16EAF0D94B5773DC7FA1A5126330A41B340ECEE8128F2AB215381D1 00000000100a8120     guideXOS.obj
 0005:00002158       __Str__Lines___BBA1C5C4D7BAAA532A1BAC6A885580A298ADB6E552FCC1F7613560A9DDD4253A 00000000100a8158     guideXOS.obj
 0005:00002180       __Str__Location___902905F97F180F8CE9ED07D1D2D85480CE26369010AF6BE4BC9CF1DD8D460BAB 00000000100a8180     guideXOS.obj
 0005:000021b0       __Str____B7F560303EE2CCA55615B53FCFF87C6AB2C55F9E71A6CEA93C61B572213E7075 00000000100a81b0     guideXOS.obj
 0005:000021d0       __Str______8663F3A9812CA2DC91038557C63ADE57BB5F517C202ADFA5CA3D8F0CEDD07D5D 00000000100a81d0     guideXOS.obj
 0005:000021f0       __Str___User_Agent__guideXOS_0_2__Co_3BFF99A77A66626415E16FC71D0FF784808B6D42A53375A627D2BD03BEF34A0E 00000000100a81f0     guideXOS.obj
 0005:00002268       __Str___869F1DFB999A452F497A4CF7F44DB2D6EE661F74A9E7E05251BC1420E50672D4 00000000100a8268     guideXOS.obj
 0005:00002280       __Str____DF99A91EB92A56824B6697CDA1E8F32E20782291DE4C5509A167ABE1829793A9 00000000100a8280     guideXOS.obj
 0005:000022a0       __Str______FF9AD70A423572A66AED5041663913D4B85FAD296307647226E2ADEFDBCE1EDC 00000000100a82a0     guideXOS.obj
 0005:000022c0       __Str____CS__0x_2D0FE5C97505624D16CE3183E6CA2982E256F7CFB548D532DE374552D65D5B41 00000000100a82c0     guideXOS.obj
 0005:000022e8       __Str____SS__0x_88DD7A9FB15088D4F7B02F603DAF3A4FF593B1CB211B16F9CA3CB09B79F50493 00000000100a82e8     guideXOS.obj
 0005:00002310       __Str_____Backed_up_all_important_da_F07121CF48AF80B0EAFDADF7A942A0B1C714F9BAE8D830C348D1849AC1BE0811 00000000100a8310     guideXOS.obj
 0005:00002368       __Str_____Better_performance_76115BFC6AAB2E0D3D41219159325D4B2870DA6925676060049926D6FC0B6A08 00000000100a8368     guideXOS.obj
 0005:000023b0       __Str_____Faster_boot_times_F9C008D86FFA8C62224E0A604DFD7B5876C9D4557EBD804CE968049656ED1EB6 00000000100a83b0     guideXOS.obj
 0005:000023f0       __Str_____Full_system_access_ADCC38D04A19D6398C909263B7A0DE90095AD7A0321A9A95B04EF18AA6454D42 00000000100a83f0     guideXOS.obj
 0005:00002438       __Str_____Persistent_file_storage_4445EDCF81FC31A64EA460C0A6D4D2DBE898234546A533D3ECBD7FFB07922D1F 00000000100a8438     guideXOS.obj
 0005:00002488       __Str_____Saved_any_work_in_progress_DD11BAFE239A1C782A6025457E45CB8D1906768AFAF67E62C278BB2A04F5566B 00000000100a8488     guideXOS.obj
 0005:000024e0       __Str_____Selected_the_correct_disk_511BAEA249C14F18FD4D849CED5D8337F373ED2703F2778B351F5FA02A0611EF 00000000100a84e0     guideXOS.obj
 0005:00002530       __Str_____All_applications_and_progr_D9A69A5DA7F0E590B2BCD0B61AF420469A14DBCFFF970794ACF7B2DA1DD01663 00000000100a8530     guideXOS.obj
 0005:00002588       __Str_____All_files_and_folders_6FCAEB476D5F23C94A03EF7CF3B56D229D74493D6C58585E97DA96EF36AAB4E4 00000000100a8588     guideXOS.obj
 0005:000025d0       __Str_____All_personal_data_F45DF9BD5D275C12584FFD5F4626AF17A60F18DF6257C40111ABFD25BC74409C 00000000100a85d0     guideXOS.obj
 0005:00002610       __Str_____Any_existing_operating_sys_6840871CFA76B404F830CE22C2DD377DD5EC8A5F1B450EC0A667CF8EC2E55835 00000000100a8610     guideXOS.obj
 0005:00002670       __Str_____Applications_5131C96E8162D1DA287515B1EAC1422B91619023CC328F8DF56CF38E85B9ACB9 00000000100a8670     guideXOS.obj
 0005:000026a8       __Str_____Better_performance_1DDFD917F19DB6A801E7344BB3FD7C69F40C2B80D9B11B03B3144E6AC3F83041 00000000100a86a8     guideXOS.obj
 0005:000026f0       __Str_____Boot_Partition__FAT32______0CE8B5D181C40A833466121342C17887E867EABE89E3DC1C4BB584163B57C5E6 00000000100a86f0     guideXOS.obj
 0005:00002750       __Str_____Bootloader__GRUB__93F8EEE13D071F132C3AA73E4B366FCE073DC02D733C84118CE0FE8ED171F60E 00000000100a8750     guideXOS.obj
 0005:00002790       __Str_____Faster_boot_times_7543194CA75C227501D146FACA956FEE6FBC79A1FDF8BAEA6AD8A13A33389C4E 00000000100a8790     guideXOS.obj
 0005:000027d0       __Str_____Kernel_image_82C284B5CC1923917C79BD66B87CADCB846A5381E0D411E8C5C23D5FE1B22BDB 00000000100a87d0     guideXOS.obj
 0005:00002808       __Str_____No_need_for_the_USB_drive__4957A82882F9881AF42CBC51F5EE3512221825124D0BEA4F2BB8DC09218C8D00 00000000100a8808     guideXOS.obj
 0005:00002880       __Str_____Persistent_storage_for_fil_4CA878956312411372C0B2432F8DFAA38B5329197832C24E4300E1A805A7FE82 00000000100a8880     guideXOS.obj
 0005:000028f0       __Str_____System_Partition___2FC86F9286B6C1B035F888270B58E30D51E4B8B5165B62702901767404E0BB0C 00000000100a88f0     guideXOS.obj
 0005:00002938       __Str_____System_files_5CB8FEEA1523BBFBBA57E095CBFF3D424647A94FF76AAA28B8540F6FF0166880 00000000100a8938     guideXOS.obj
 0005:00002970       __Str_____User_data_7B7E926442616D8521F13D0B07B9F572804AFCA0347B7D18DAA992CBCF5A1183 00000000100a8970     guideXOS.obj
 0005:000029a0       __Str___1__Run__dns__hostname_____e__A3773AB9ABB68923727913D78ECFF64C4087AB79A16084DF95FA6DF442AAA6A5 00000000100a89a0     guideXOS.obj
 0005:00002a18       __Str___1__ipconfig__release_____Rel_2E68C52891594DE9358006055BD44F4983582B5917103C725AC10F8FF12B5FBB 00000000100a8a18     guideXOS.obj
 0005:00002a88       __Str___2__Then__ping__ip_________us_F3588FEA206EC312EA65EFB9DE5809898CD9DA8F6D8D2B57FE3D980DEBDE165F 00000000100a8a88     guideXOS.obj
 0005:00002b00       __Str___2__netinit_______________Re__A84B3727DC94A7237A4AF7FB7BB1AF6ADDEE6D1D6963EDD97D30F36A44689212 00000000100a8b00     guideXOS.obj
 0005:00002b78       __Str___Auto_Hide_Delay__BDA586C147DF81B77CB29B8766DA8C0DF6756848A380206A0F951E37C83C0A25 00000000100a8b78     guideXOS.obj
 0005:00002bb8       __Str___Configuring_system____69AA3E3F3116394FEC987AD1060F2202947679B5B9D2B5E35DAA580BF7765578 00000000100a8bb8     guideXOS.obj
 0005:00002c00       __Str___Copying_system_files____765A55D10F136372F490F03B5A1B085058912AFAAF2DB12F53B7E8386C283487 00000000100a8c00     guideXOS.obj
 0005:00002c48       __Str___Fade_In_Duration__FEC2B9836A6E5B8A0554F699785E31F9F95C34408465681CB1F2C198C013D75E 00000000100a8c48     guideXOS.obj
 0005:00002c88       __Str___Fade_Out_Duration__C7372A845BF8988C09176EDFA1806543A9E1A2F83FFA4053D782E965B882C43D 00000000100a8c88     guideXOS.obj
 0005:00002cc8       __Str___Finalizing_installation____ABE568E594E8D1C6C13E8D25BE36ADE4B48949F910E91C428D6D3FAFCF32C742 00000000100a8cc8     guideXOS.obj
 0005:00002d18       __Str___Formatting_partitions____4DA5D7214360AC50705EACB99983CCF64EA4E6B6733FE65869110007B9DC7A4C 00000000100a8d18     guideXOS.obj
 0005:00002d68       __Str___Installing_bootloader____71031C42307BCF3EC33B3A48592BB681BE501730D6EC6C4BF1A19F733864ED9E 00000000100a8d68     guideXOS.obj
 0005:00002db8       __Str___Limit_0x_656774D99FF62FD7E9777C941A0860C0936E119E52974981F46F19E76340FFBC 00000000100a8db8     guideXOS.obj
 0005:00002de8       __Str___Partitioning_disk____6E3F2C1E0136911C9E835D8EE684E7A1F633E03EE6763B5E43F762C2B062812D 00000000100a8de8     guideXOS.obj
 0005:00002e30       __Str___Rotation_Interval__9189D4368FF3BB482FC77F9D1AE2397DBCAFDD718BA2CFF79434388699B4AF96 00000000100a8e30     guideXOS.obj
 0005:00002e70       __Str___Size___0C27BDE6400A5C9CD67C4A3F242216F3F747E24A444E734E8C7D45A274B004A0 00000000100a8e70     guideXOS.obj
 0005:00002e98       __Str___Slide_Duration__EAB445511403D443183691BAF19EB4ED5776574FCE27082FACB31B17734F0A32 00000000100a8e98     guideXOS.obj
 0005:00002ed0       __Str___Transition_Duration__69979428EB4DA9E125D14D4D94872828CE0BA52ADB453F131D3C979C220ED5D9 00000000100a8ed0     guideXOS.obj
 0005:00002f18       __Str_________Increase_Decrease_boot_577A313F4C8826457C7F8E677073A450EA63F0870990BAB30AB3F043E96BC5C0 00000000100a8f18     guideXOS.obj
 0005:00002f98       __Str____Space__Toggle_system_filesy_98E11714D081081B9EF85DA983594FA4C3EF54160524E664010650ECF910E28D 00000000100a8f98     guideXOS.obj
 0005:00003018       __Str______Mode___4EE5E8806A3758E5D228836A421400649F265D7DBF83C3DA7AAFE9577B00E570 00000000100a9018     guideXOS.obj
 0005:00003048       __Str______Present___DDEC42D0533F074A4A91D798CCBAB61548F3A9FA434D48F637D4D8A3DA3DFB63 00000000100a9048     guideXOS.obj
 0005:00003080       __Str_________________0123456789_____D1D3E4C4807A6735F52C1CA76ABB625C11CD94208B0CD60185A95FA73A041AC3 00000000100a9080     guideXOS.obj
 0005:00003158       __Str____6B1CB7A90FA899AF521DBF2B7FC9EBAD061749633CB10FD63093877FDC3F29EF 00000000100a9158     guideXOS.obj
 0005:00003178       __Str___USB__7FA99D0616FD7DCE269DF86324BB34FE63DC6FE185549A9D95BCBF97697F2639 00000000100a9178     guideXOS.obj
 0005:000031a0       __Str____8EE1B2452B9F193162AB5B3FD65CD941A8CDA0655D18CB6FF8456BDD39B137C3 00000000100a91a0     guideXOS.obj
 0005:000031c0       __Str__0_____FAA079C02BC5D828775AE19A26E7126B5E64647D552C72F7DD7DFF2D7B651634 00000000100a91c0     guideXOS.obj
 0005:000031e8       __Str____5D6CAD0B38452B2AA55F82917EE0E9428139190674C51AB25D3F1B650D53CF04 00000000100a91e8     guideXOS.obj
 0005:00003208       __Str____DAC3E4F6F4BC4376454DAF19FAF2DFC1F1C39F23835BEB3A94AF7214620C3C17 00000000100a9208     guideXOS.obj
 0005:00003228       __Str__AM_73566812B0B3D62C1068A09EF4F2BF50EF26A64C3DE246F213753A07493A4E19 00000000100a9228     guideXOS.obj
 0005:00003248       __Str__B_782C7081DDE927C467ABBECDBB4FC47A96CDDA4AC6521499C62B7C9739B1F4A9 00000000100a9248     guideXOS.obj
 0005:00003268       __Str__Configured_5922E3C8AAB74D690AA4D06B9DF341DB60A4B1862FB622162AD4A4AE76E753FB 00000000100a9268     guideXOS.obj
 0005:00003298       __Str__DevID_0x_753BD4BCFBD614398F1C1428721D321574B9F8C48F40905C5F668558116FD0F1 00000000100a9298     guideXOS.obj
 0005:000032c0       __Str__Device_0x_B20DFF85FE651C3E65A386AF811D7BACA969009E25399B8354AB737052CDE5B4 00000000100a92c0     guideXOS.obj
 0005:000032f0       __Str__Devices_0322465C1468CE8CE770F0ACE2B2449E8651E47072B413F18D677D05E032903F 00000000100a92f0     guideXOS.obj
 0005:00003318       __Str__Func__6B642A99A14FA2263157B41CC664F793BD7F798C191231CF666359A42D59ECCB 00000000100a9318     guideXOS.obj
 0005:00003340       __Str__GB_4F8A3E5383DE2E72BED4B5DCAA3553070F7EC3FA59ED01A89918E420D05B95B4 00000000100a9340     guideXOS.obj
 0005:00003360       __Str__HTTP_1_0__Host___723261CB12C9F25228FA84CA4627CC3F53A0ADA17D4C14D9D4C04EE0AD0E118D 00000000100a9360     guideXOS.obj
 0005:00003398       __Str__HTTP_1_1___CC7A014AED348233E7A2B8E8C5FAA4439D8A60D3894C28DECDD167FAE288EE05 00000000100a9398     guideXOS.obj
 0005:000033c8       __Str__Has_Exited_3AF34E3D7FB3A925896A818FC98708DA45721EB45B5F1CC1D666570A2F96247D 00000000100a93c8     guideXOS.obj
 0005:000033f8       __Str__KB_C67FF38127055921185C4D10769DD7392249A142D284F368CDCF36888E188F29 00000000100a93f8     guideXOS.obj
 0005:00003418       __Str__KB_s_F1061009791A1F66AB0FA73DD93FCDB0A00D1471DE69576831BEFCF23D4FA313 00000000100a9418     guideXOS.obj
 0005:00003438       __Str__MB_3237212821C2FC6468D3678B8ED5498C3F5557F8E22F2FD390840F2725DAB7EF 00000000100a9438     guideXOS.obj
 0005:00003458       __Str__MB_s_58105D3CB8BECFC997F0E20F82F42BC177FA49D608F723389D9126D5FD133980 00000000100a9458     guideXOS.obj
 0005:00003478       __Str__PM_3B3FFA6E8D400FB02DFEA30065C034E72FD17B671142465D71A430401A0D04B1 00000000100a9478     guideXOS.obj
 0005:00003498       __Str__Slot__FA9F310952EAF46B214AC1E04CEC66B6BC88E9E1F8EC6DC935AF1CA1E0DAD449 00000000100a9498     guideXOS.obj
 0005:000034c0       __Str__TB_6EE428EE688581A92CD002B93D9AEF0DF3B05B0899B500A81553D582BA5C108E 00000000100a94c0     guideXOS.obj
 0005:000034e0       __Str__by__74094911964D78E62D232B70406D7B686597E2090825DBA80F9576D527E68EFC 00000000100a94e0     guideXOS.obj
 0005:00003500       __Str__device_s__9D456DAE03865F35209389858224DF7E5B619BEC3C886E8C64C153A08C31BFD0 00000000100a9500     guideXOS.obj
 0005:00003530       __Str__from__40F30B053D5BFFC199A827E6EC6711394A444E9616D570CD82C5406863FF727E 00000000100a9530     guideXOS.obj
 0005:00003558       __Str__is_empty_or_not_found_75D153C697446BC9FAF1C0BF11FFB9B94AC82B2F7C0ACB956C6967F07BF1103F 00000000100a9558     guideXOS.obj
 0005:000035a0       __Str__is_not_found__FD845D57E9E54361143D8F52AC79ED9257C55D6B55340B1C86C3DF14A2DEEFEC 00000000100a95a0     guideXOS.obj
 0005:000035d8       __Str__min_EB7CC1D00E939B745A39A2A9BBCB646CCE0EBA9BD4D68C4632B3FD557A6E813E 00000000100a95d8     guideXOS.obj
 0005:000035f8       __Str__ms_555EB25F921288D4A17968345D51E25F602D38D4D41835D90CA11213F1B91CE8 00000000100a95f8     guideXOS.obj
 0005:00003618       __Str__px_F719E239E78796471ACCD16D5359D0DF09546AC5E3D395B32E4B4DD531068C9B 00000000100a9618     guideXOS.obj
 0005:00003638       __Str__seconds____2CCFB6D32CAF23F17127FF9302F952FFF5172773A57030050273B756CE9177D1 00000000100a9638     guideXOS.obj
 0005:00003668       __Str__to__4704C585B23A1EE1197E71C7EF5316E957CC5665E6542823D4393ACBB2F2D737 00000000100a9668     guideXOS.obj
 0005:00003688       __Str__wants_to_communicate___777FD34FD958274977E3947D9B7B2005FCCED6C955CDB6B538C870AA8010163F 00000000100a9688     guideXOS.obj
 0005:000036d0       __Str__window_CB7D3308C9A88944FF4C160D58C44F828011CE595FF31F7B3C9AC781B9A6D3B5 00000000100a96d0     guideXOS.obj
 0005:000036f8       __Str__x__F47F07D6E43A458F94C79FC162F24431A2038AE77D2AF272D195DF10E8EC2D60 00000000100a96f8     guideXOS.obj
 0005:00003718       __Str________________0123456789______F7BF6D38F3A9D914233DDAFB3D4E6DC2429E6CDAD1083CA3CD14A08C2A885C7F 00000000100a9718     guideXOS.obj
 0005:000037f0       __Str___37AA3970B6801C9D286464F7D86E50BF41C88E54C7B4D08F3FF61935B3F59C3C 00000000100a97f0     guideXOS.obj
 0005:00003808       __Str___is_not_found_83939CD445D2BC021F4028A01FDE5517453ED4B51B26E4EB3BC9F2FEF568FD40 00000000100a9808     guideXOS.obj
 0005:00003840       __Str____6E586CBEE3390CE73582F487F39ED8139079194C26C5FED5F748EC2ADF236C4D 00000000100a9840     guideXOS.obj
 0005:00003860       __Str__LoginGuid__76B634541467C090D39864E86F001B81486E2E74F07A14A66DA3EFEF7C37A01C 00000000100a9860     guideXOS.obj
 0005:00003890       __Str__Success__true_C872BCBACDFE5EF4505895EB58386AB1E248C1A7B8D263EE88045CCDA5C38684 00000000100a9890     guideXOS.obj
 0005:000038c8       __Str__loginGuid__91DD2BF4063A67BF27B40EF1AFAF111DB82856360E3568D4BACCC6C92B9D1182 00000000100a98c8     guideXOS.obj
 0005:000038f8       __Str__success__true_F37328F9B5A843E8571F112A0E31D1517FA3952FFC8D4669F0FF7F95B4D9DCBD 00000000100a98f8     guideXOS.obj
 0005:00003930       __Str___9DEF996CB1EA87E596B6CADCCCA3839A352E99D9CE07E635CDB239F38CA294F8 00000000100a9930     guideXOS.obj
 0005:00003948       __Str___guideXOS_Boot_Configuration__38DB93C3E76CD8C77A8CE94EDCF0A11BFB8B04D3757DB575B7445B318210F8BB 00000000100a9948     guideXOS.obj
 0005:00003a68       __Str___guideXOS_Configuration__C1C54B40B3EB42C43B51636D2858E6BED92C03C4790986FA5DE7F17DD0C1991B 00000000100a9a68     guideXOS.obj
 0005:00003ab0       __Str__guideXOS_246B888B38E63335BAF9840504348CF7256C51C900C3333B5AF23CC8B2DA4160 00000000100a9ab0     guideXOS.obj
 0005:00003ad8       __Str__VALUE_DDC4C0F86C74227371E55543EA65E3D7076CF46EA80C0F5C65955A2FBE118A73 00000000100a9ad8     guideXOS.obj
 0005:00003b00       __Str___BBB3AFA31AF1ADF2DEB2CD3774F62DF5807ACF44963FC296E62DE13B00380A6B 00000000100a9b00     guideXOS.obj
 0005:00003b18       __Str___Free_D18097B175F1184C8EB9B6AF30DFF85C40CFEE2AED5A19064E10E7451EB62DBC 00000000100a9b18     guideXOS.obj
 0005:00003b40       __Str___8A76197204599702D0F07CA4BB29A6958D1C56121D2E7D652CA25E4663CB2F76 00000000100a9b40     guideXOS.obj
 0005:00003b58       __Str__Kernel__1EC5DCF4B86804D20EF28D56975AD2B1129740590752C7D796B96C3B17CBCF1D 00000000100a9b58     guideXOS.obj
 0005:00003b80       __Str__User__D87633777C42DF4B6863B75980A661989EDB12B7F9CD2B53312A0793133A4ACE 00000000100a9b80     guideXOS.obj
 0005:00003ba8       __Str__empty__90C960A19659A24E421A2E3AD65FC542D95BFA978F39B2171D9FF2F0D7FEE8A9 00000000100a9ba8     guideXOS.obj
 0005:00003bd0       __Str__new__2267A2BCD549CDDBE9CC46BF7556E28D0C2850E8870D0310E2C4CA1EEE68DF3F 00000000100a9bd0     guideXOS.obj
 0005:00003bf0       __Str__no_title__FE998FAFCE664AFE758A4366734315D3A5811933FC5DDE2A9917791CB2764827 00000000100a9bf0     guideXOS.obj
 0005:00003c20       __Str__null__CF3561AB36AA4693F6779F5A720F5306AB902E0DCAC6846B86B48155D4A82825 00000000100a9c20     guideXOS.obj
 0005:00003c48       __Str__select__14862B678AA4A16D424F49E30BD48075BBB46D94ABFC971736E99153AC6ACC5D 00000000100a9c48     guideXOS.obj
 0005:00003c70       __Str__too_small__89705DC80151EC93CF4B9D9A7B5C45C09C4E27A769312A21A0E2857BCDB1E6A3 00000000100a9c70     guideXOS.obj
 0005:00003ca0       __Str___7C186033295A11388EB388A21E6E25AD05E9B6C45CD3C403DC3FAE8A2D19516E 00000000100a9ca0     guideXOS.obj
 0005:00003cb8       __Str_____Remaining_space_4531E46E51F438C6CAB3FFC089178D76B3C6940C1E1030D2228003007A56EA9B 00000000100a9cb8     guideXOS.obj
 0005:00003cf8       __Str___17D5F5A33AB5F6AED0395D2BC0A4E5DF61D92441EA8D77B0952C01BC8AA8BDE0 00000000100a9cf8     guideXOS.obj
 0005:00003d10       __Str___Configuring_system____D0D48064B77DBBAF0730B0CA0162B16CB4AE14874E7775DC98C844E0AEAA98E6 00000000100a9d10     guideXOS.obj
 0005:00003d58       __Str___Copying_system_files____3CDD7B9E7887444380E0ABDE9B7C7BC2595CE347746037D1F9FABE45EE542108 00000000100a9d58     guideXOS.obj
 0005:00003da0       __Str___Formatting_partitions____C6518DBE3AAE84A1A0C2675A079336D8FEC179D2FC06185EA137233550090B1A 00000000100a9da0     guideXOS.obj
 0005:00003df0       __Str___Installation_complete__0FC6CCC7765DB5E1FC0160ADABBB97898D3C87F140FBD016F291D654475C3344 00000000100a9df0     guideXOS.obj
 0005:00003e38       __Str___Installing_bootloader____4A0CA6936B4F617E7CD5AB1ACF90AF3AC0D113C3F07B0C9383D264F358F0E2B6 00000000100a9e38     guideXOS.obj
 0005:00003e88       __Str___Partitioning_disk____8A14B2628FB6D993489FB90373C3B481D16043B9F14CAF0A1D8A65A3B015458F 00000000100a9e88     guideXOS.obj
 0005:00003ed0       __Str___206014A4266C2082B9433011FB2991059F972D570A8B3C976E5B2B8DFCFBFC8D 00000000100a9ed0     guideXOS.obj
 0005:00003ee8       __Str___D8FA32DD40B181D8250A4ECDE2F2F17BD7BFDF2793278D06EA5AFC647F3D5762 00000000100a9ee8     guideXOS.obj
 0005:00003f00       __Str____159F0875013DAD37050AD50DDFAF4061A6569D160655235D4311F0A1AC685FD2 00000000100a9f00     guideXOS.obj
 0005:00003f20       __Str___0x_A64C77123C2AB1347129725DA2ED015A4DFEACE837A7ABA2C1F8C089801A3BD6 00000000100a9f20     guideXOS.obj
 0005:00003f40       __Str___Partition__0BE4F53908808E561D397F6BA334F0CEA988967DC5A6E92B2110E4B3EDEABB22 00000000100a9f40     guideXOS.obj
 0005:00003f70       __Str___req__05549F28F32587410F26F014E61C50CEC1BEEA3BA46B86A341A913E46D133C9B 00000000100a9f70     guideXOS.obj
 0005:00003f98       __Str___total__1B3D8A1D3EE665A899F0C918FC9F9BA1AB1378206F3AE518ECF5AF84DC0E7754 00000000100a9f98     guideXOS.obj
 0005:00003fc0       __Str___password___8E71BE388166DAF1C1D62495A051C51BE829450FAF41DA90D0AD62B4951A8500 00000000100a9fc0     guideXOS.obj
 0005:00003ff0       __Str___24EA1EBD0BAFD39482DB46EC2D8959E61353A90EFC072719E1308F86C3A106BA 00000000100a9ff0     guideXOS.obj
 0005:00004008       __Str___Access_violation__privilege__806E2AE02856D62785BA919C284228114F872A35BE294B55EABCBC548F9769E8 00000000100aa008     guideXOS.obj
 0005:00004078       __Str___Allocator__Heap_corruption_f_601DF63C8D1070C0ACF069298AAA5D641341EBF48E8B1656E703161122AF4AF7 00000000100aa078     guideXOS.obj
 0005:000040e0       __Str___Background_rotation_PNG_load_2CF373980214238C828E7E65F74C40D7DDCCA7D670DDA06EC2D98382356D615C 00000000100aa0e0     guideXOS.obj
 0005:00004158       __Str___BackgroundRotationManager__P_37BF163B0BA29095ABC892E5B774B52DF0384363F9EBCD66B63229038E913761 00000000100aa158     guideXOS.obj
 0005:000041d8       __Str___Check_for_memory_corruption__F6ECF8775E264F409CAA4FF60934C06A7DF1824AD9F17B4C6EBB10DC94FEB603 00000000100aa1d8     guideXOS.obj
 0005:00004260       __Str___Desktop_icon_cache_refresh_c_466C73FC9D334642616ED75C223EF766CE28DA47E626B3B90EE5B60BC19BC5EA 00000000100aa260     guideXOS.obj
 0005:000042d0       __Str___Image_Dispose_not_freeing_me_F0E7D01FCD734AFE38E4258D635FA64BF2075CA8DEF5FA2BD272D7E32F330798 00000000100aa2d0     guideXOS.obj
 0005:00004340       __Str___Image_cs__Dispose___implemen_F1A8BF1BC3A167C8F43688B35D9FA5E255AB02C22F538AE9879DD105911B2DE9 00000000100aa340     guideXOS.obj
 0005:000043a0       __Str___Invalid_descriptor_type_for__A881233618B1B1F28A6499AD84A5A65A0A6874C12C3D9C64D72EE95400E654DB 00000000100aa3a0     guideXOS.obj
 0005:00004408       __Str___Invalid_segment_selector_in__21282133A693ED58567F73C74E1BA22759E484B5188CA139DA71C8DAD2EDE3EA 00000000100aa408     guideXOS.obj
 0005:00004470       __Str___Program_cs__Icon_cache_refre_ACCB834A2E92BD39332F6918CA80A82BCBE0516A32512C9DB02E4A462B895D69 00000000100aa470     guideXOS.obj
 0005:000044d8       __Str___Review_recent_code_changes_a_54789E62614A286E7A4E87A6FA4185B3F701D669704963D9437C4EC40CE33567 00000000100aa4d8     guideXOS.obj
 0005:00004560       __Str___Timer_overflow_issues__memor_E406C03E7EB1AA7B57DDAD8A44C76486EA68284156970FBE46B2CE6BD305D69F 00000000100aa560     guideXOS.obj
 0005:000045f0       __Str___Writing_to_read_only_segment_40C708E06BB71CC50AB08F64484C75C393862DC97B78EEB1FF0B18D69FB0B9FC 00000000100aa5f0     guideXOS.obj
 0005:00004648       __Str____vi_____6BD8B92680CFD2180BE452432DC0296865890E7D60E17E234181E78559EB7FCE 00000000100aa648     guideXOS.obj
 0005:00004670       __Str________________________A5F3EA75B9894116720F0DB04BF5BAA23E696495801C5EFD8D78CEFC8B1CD4E8 00000000100aa670     guideXOS.obj
 0005:000046b8       __Str____PONG__E0BAD541C2DA20B0114E4B5EABCBF1B1AF8AAAA65BC2B9FD90B176B40C99C31F 00000000100aa6b8     guideXOS.obj
 0005:000046e0       __Str___075D3DDF5A3A826E13A92288E853BC4B2CB17FB05367AE865F401A4BB11F05CE 00000000100aa6e0     guideXOS.obj
 0005:000046f8       __Str____C7D10CEAFB0974092160E3ED2F2C029A9B6EF35EF6149AA328E34F80F58D154E 00000000100aa6f8     guideXOS.obj
 0005:00004718       __Str_____5A6C76A5C5BFCA312641FD696079B328416AE5F1D47852E6B6303B507EA33374 00000000100aa718     guideXOS.obj
 0005:00004738       __Str__BMP_81DB78B626C81CDE580688833A34BBB57047B193936BA58C23AD4D527D08D1F1 00000000100aa738     guideXOS.obj
 0005:00004758       __Str__JPEG_5F85C283436D72DB0AFA87C24B3D21F22F3D27363C80D7FA5663347A18D6D36D 00000000100aa758     guideXOS.obj
 0005:00004778       __Str__JPG_BC772014878C962ED92CCD055FA92B8ABBF5292E75F9C7561124C2D2BEF95637 00000000100aa778     guideXOS.obj
 0005:00004798       __Str__PNG_BBA2DCB905D0E15B2E26222DA2D9013329438AF7B8E4092151E9949BBC5DD2F2 00000000100aa798     guideXOS.obj
 0005:000047b8       __Str__bmp_930DE8F09EEB7E0A6A097DA4298EC752B087A86AD7ED7509FC9147B1598D9417 00000000100aa7b8     guideXOS.obj
 0005:000047d8       __Str__gxm_0CC75A21EC73A5797142247FFAC9596C70E6B0F5E8A2F236F997CC547921F034 00000000100aa7d8     guideXOS.obj
 0005:000047f8       __Str__jpeg_503B22D5B674E896C3013F32E37123737BB6FF59675BEE9981BE67DC21D36390 00000000100aa7f8     guideXOS.obj
 0005:00004818       __Str__jpg_7ADF781468780D1AD3166264D705733F979013564F4D0A0F85EE263668A69327 00000000100aa818     guideXOS.obj
 0005:00004838       __Str__mue_6FCEE403DC96EE81AB870F9AEC397D00E7A92E617A61B1B4E554F6B0724DCCFA 00000000100aa838     guideXOS.obj
 0005:00004858       __Str__png_8553D5B341E1075AB39612DF6F9B58B0AC7D702D6088B5AF443D3DC513BB303B 00000000100aa858     guideXOS.obj
 0005:00004878       __Str__txt_0FF8D48BC8A97E63AF55826E6956AE01B3BDE08A92E11606D9B53F9B5954873F 00000000100aa878     guideXOS.obj
 0005:00004898       __Str__wav_0A4E88975981D40CD5B288B9344D3DB8FE84BBF5E282E714539B8AE747D5A8E4 00000000100aa898     guideXOS.obj
 0005:000048b8       __Str___ADE0274F84B828B0980112609BB51775D0A4E39BF4728F21DCDD04A627ABB92A 00000000100aa8b8     guideXOS.obj
 0005:000048d0       __Str__boot_4C3590B975CAF03D3FF9C703CD3F32F3145A991809F09E87EE96B153A132CD8D 00000000100aa8d0     guideXOS.obj
 0005:000048f0       __Str__boot_config_txt_6B0C5D88A56A05B6E27AF73304E33195EF4A11CE33E8D3B0CE74E18F573E70B7 00000000100aa8f0     guideXOS.obj
 0005:00004928       __Str__boot_grub_E0BE90987C7EB9A7906C701197F69402FBAC1011677E95C5A955E7460F5FC2F3 00000000100aa928     guideXOS.obj
 0005:00004958       __Str__boot_grub_grub_cfg_F6E1AF5EC0A0DD9CB334D9C4CDA5C914BAED3B9CCA6739A5702C6EBADA7C9D3F 00000000100aa958     guideXOS.obj
 0005:00004998       __Str__boot_kernel_bin_6097951F9F178B7553004763E9E490248FA5BB73E7E911DFBAD60857983BB074 00000000100aa998     guideXOS.obj
 0005:000049d0       __Str__clear_2D242605F9D30CBE958E938A1FA301ECB75A12CA0F050057779F12D3F79BDC97 00000000100aa9d0     guideXOS.obj
 0005:000049f8       __Str__connect_ADADDB8398BF11E55777372A8CF76946C8F6601D33533796F670617D48BB18C7 00000000100aa9f8     guideXOS.obj
 0005:00004a20       __Str__dev_sda2_7C570F240A7E099340940BBAF3D8AD254152BB1FC34953BB22BE82ED92866B24 00000000100aaa20     guideXOS.obj
 0005:00004a48       __Str__div_DDD868C2E1978F7C880EF65C24BAD2DEFED5BC79DA347BBAFCC1645D9CA33779 00000000100aaa48     guideXOS.obj
 0005:00004a68       __Str__etc__write_test_B50343CF1BD1ECD7F78A470640ACE90C673D09FBE02F652434EB9FC82ABE0AC1 00000000100aaa68     guideXOS.obj
 0005:00004aa0       __Str__etc_guidexos_config_ini_0C210FCC30447EAA5E27EA51622C23989739207FF8B11FE56AF1A1B728CC704E 00000000100aaaa0     guideXOS.obj
 0005:00004ae8       __Str__join_96C9C9D6AF93889F8EC3E5556CABF022261FDCB252B2428475B0CC3FEF197E7D 00000000100aaae8     guideXOS.obj
 0005:00004b08       __Str__nick_1CF55201F942D0F735170D90A522AEBEFC5D16A4DD60294831550EDFD7BD5112 00000000100aab08     guideXOS.obj
 0005:00004b28       __Str__p_48F7CD120778862B4BEC91D4E3AA7AE8107910E0146F76027B116087EFE49982 00000000100aab28     guideXOS.obj
 0005:00004b48       __Str__preferences_system_svg_C13685BF020814B1F73FE79B278172162E9ED8A58677574ED29FB192A0A5869E 00000000100aab48     guideXOS.obj
 0005:00004b90       __Str__quit_69065162860C3A0370B5DF5D02574C64CF89DAFF870BCE066B01BEEA92CE24CF 00000000100aab90     guideXOS.obj
 0005:00004bb0       __Str__system_file_manager_svg_C8F33BA210B7A18602996EDDA8DD872600F9BF660C5DF6454072E15DB82504D5 00000000100aabb0     guideXOS.obj
 0005:00004bf8       __Str__utilities_text_editor_svg_F8800F81E5924ACF23682F9F1B30DE3C6E6C0840084D51EBCA8C4BFBD07156AB 00000000100aabf8     guideXOS.obj
 0005:00004c48       __Str__v1_auth_login_53EBEA30A8891F7E3FF68CBA175A8E1112DF99FC85B6E8C253E6550764C4856E 00000000100aac48     guideXOS.obj
 0005:00004c80       __Str__v1_auth_register_5C151973C031D4725233EC0B274154F6ED0551FF303CC2D773E9C9AE69D29E49 00000000100aac80     guideXOS.obj
 0005:00004cb8       __Str__vlc_svg_B25797F76EEED19510ACA72EA6D4D36020B40CF14B0375275FAF5283C5A4C30D 00000000100aacb8     guideXOS.obj
 0005:00004ce0       __Str__0_E4F60D0AA6D7F3D3B6A6494B1C861B99F649C6F9EC51ABAF201B20F297327C95 00000000100aace0     guideXOS.obj
 0005:00004cf8       __Str__0__17DECE518A46ED315C292E481BD6518792B4B66D6668984E77D9839574FF7F3B 00000000100aacf8     guideXOS.obj
 0005:00004d18       __Str__0123456789____________________F1352815AF478847D188DFD65066BE24DEA705E56094B6F48D0A255F4BFBACDC 00000000100aad18     guideXOS.obj
 0005:00004d80       __Str__0x_FE28E49AFDC968306E74CA85C02CC9BB561359BFCB7774E8E2B7AC1B18E53B5F 00000000100aad80     guideXOS.obj
 0005:00004da0       __Str__1_E79E418E48623569D75E2A7B09AE88ED9B77B126A445B9FF9DC6989A08EFA079 00000000100aada0     guideXOS.obj
 0005:00004db8       __Str__1__BackgroundRotationManager__C7D3A15BCAF0DF69D05D0708372C493BB10BD22E737543FBBDFE1457A2EB7322 00000000100aadb8     guideXOS.obj
 0005:00004e40       __Str__10px_6BB327F8AEB2F6202C22790C12F0DD2AA0860B9E4D007287BE1A91C9A49926EE 00000000100aae40     guideXOS.obj
 0005:00004e60       __Str__127_0_0_1_A65017B383AFE1D4C5D31A1A299B19102BA29D57D8A1D13F96EF19D7A3A64B7C 00000000100aae60     guideXOS.obj
 0005:00004e88       __Str__12pt_Roboto__1BEC1E3B6FBC5524FD8E12D5868C8EEE93AD3928DE2BDE5BB181474E5318C738 00000000100aae88     guideXOS.obj
 0005:00004eb8       __Str__16pt_Roboto__8D9A4736928D9CC5958F7A76C0517C8FEF96FAF0BC6D773DFF638CFC2E02A07D 00000000100aaeb8     guideXOS.obj
 0005:00004ee8       __Str__1px_932907FDB61F4FC08AFE04C0EF7DD28B14AAB0559457209B7EE2C1CCA1005DA0 00000000100aaee8     guideXOS.obj
 0005:00004f08       __Str__2_913DA1F8DF6F8FD47593840D533BA0458CC9873996BF310460ABB495B34C232A 00000000100aaf08     guideXOS.obj
 0005:00004f20       __Str__2__Cached_icon_refresh__Progr_9FD9037A61A20CEE0F8F7751E44CB65034711611EC90446B0A5EAEF18FDF9789 00000000100aaf20     guideXOS.obj
 0005:00004fa0       __Str__20px_38FBCC92732C3F617893ED92A5B16F1E48F491FCA9DFFBB8180483B5485B1753 00000000100aafa0     guideXOS.obj
 0005:00004fc0       __Str__24pt_Roboto__173435A7BF1F7C53723C6DB1CF6336A5C7A429CDDC40612EA7237746075BEDD1 00000000100aafc0     guideXOS.obj
 0005:00004ff0       __Str__3_AC11339FFA8F270C4F781E0A3922BB1C80D9DEE6E4B6911CA34538ED9AE03CAA 00000000100aaff0     guideXOS.obj
 0005:00005008       __Str__3__Timer_tick_overflow_or_cou_5C892D9BE03EB0C87035D611B9918F92583F72050328264488ED48C0EFF92999 00000000100ab008     guideXOS.obj
 0005:00005078       __Str__3A_International_Inc_5315B88D11BA929A4204C30298F9569260789D622828A638FEE0586FBECC7B2C 00000000100ab078     guideXOS.obj
 0005:000050b8       __Str__3Com_Corporation_92A37FA265807647BE8AA185BFCE29B50C23B1417FBA500E40B477FEFE41861F 00000000100ab0b8     guideXOS.obj
 0005:000050f0       __Str__3Dlabs__Inc_Ltd_871288597BABC2D48EABB8F97CDB8ED41993DDCCFFD68300FB592FA1E21A0380 00000000100ab0f0     guideXOS.obj
 0005:00005128       __Str__3com_Corporation_8CA316728EBB2F7815FFB260D2C59D5E3B4BA0261AB8F2FB897260E8D91086FB 00000000100ab128     guideXOS.obj
 0005:00005160       __Str__3dfx_Interactive_Inc_01417CCEED199870B4E1CB6FA42C7042B39BEC1DE96207F27E2D70EC08C551B9 00000000100ab160     guideXOS.obj
 0005:000051a0       __Str__3dpower_B48782B3D819767FAD492A3EE96BAA04A8F186AF72711F5B9F9F369CD7460B4A 00000000100ab1a0     guideXOS.obj
 0005:000051c8       __Str__3pardata_Inc_14396FD3D74223653C3B0D0A82012B6B131273A2B03AE0737A513AF603DA4D78 00000000100ab1c8     guideXOS.obj
 0005:000051f8       __Str__3px_001136F61145BADFC06CE64FA303617F328640E42BF002454C4654E34A964A0F 00000000100ab1f8     guideXOS.obj
 0005:00005218       __Str__4_3089C464221340FED4229D6BA913A04224C91B44158C22163E8849EB7DCC4878 00000000100ab218     guideXOS.obj
 0005:00005230       __Str__4__Memory_leak_from_Image_dis_26713B4552EF47E0EBBD12FAF204A9A614F2E3807F819B3037093473ECF6DA70 00000000100ab230     guideXOS.obj
 0005:00005298       __Str__4links_377009DE7BD19117AE35BE35F1E4817C03186F1C89114F1986209BDC43080358 00000000100ab298     guideXOS.obj
 0005:000052c0       __Str__5_166F829E016F2315A8099E3A8D2DBEC6D91572379FF02C760BA4E0335789D47F 00000000100ab2c0     guideXOS.obj
 0005:000052d8       __Str__5__ThreadPool_stack_corruptio_4483FBD49464002E6B56B25A2C9E14BB7BE0B27A4F67EE13310E63FD49363CE2 00000000100ab2d8     guideXOS.obj
 0005:00005358       __Str__5px_EFBD4F60783228CE8CBD49DBB675CEA03BA4336A46EB441CC2E69EAC42923A6B 00000000100ab358     guideXOS.obj
 0005:00005378       __Str__6_AA4FB8A61CAB7DB73F42671F2BB987A7291A436929B3D5F17FFE05F96BE13371 00000000100ab378     guideXOS.obj
 0005:00005390       __Str__64_bit_F708CFF9C75DF7A18E6EB1D0DCC16A6030D72156E144BB3F6B0519663E4C6F36 00000000100ab390     guideXOS.obj
 0005:000053b8       __Str__7_BB153E97380F82AA57033ADD2C11B28A3AE640C8DAAA89D2BD5BD317456ECB03 00000000100ab3b8     guideXOS.obj
 0005:000053d0       __Str__8_0C59629D81806B2B169BCD633F8A9CB7DA43A8D692DBC95BC201D0F5CF5E08D5 00000000100ab3d0     guideXOS.obj
 0005:000053e8       __Str__8x8_Inc_D4049E13F1A632DF5A9863E7D05AE49BCDCCF93F79CAE798C76508A84B50FCE6 00000000100ab3e8     guideXOS.obj
 0005:00005410       __Str__9_B58D15E89A953322B7AC8FC0D6E37710C1EACD25D8304EFD002904CB18EF62C6 00000000100ab410     guideXOS.obj
 0005:00005428       __Str___7648EB81C4E9FEF7B51879C6FCD6FB4B8863EEA0CB2A978C508711DC52C80041 00000000100ab428     guideXOS.obj
 0005:00005440       __Str____48BDF9D888628DCD4A727A4603A290D1F437F30E627BF4CF9B157DDE4C1A240B 00000000100ab440     guideXOS.obj
 0005:00005460       __Str___0x_6EEF1FADC67CA63DE64D518930308BEDAC847FAB2A77A2898DF43E901552B3D4 00000000100ab460     guideXOS.obj
 0005:00005480       __Str___F19928677B2F51AD669B77D49DAFC34F42C5AE36C01D954E82BE31CCBC6B659F 00000000100ab480     guideXOS.obj
 0005:00005498       __Str___4A2A7B898F79E4E459B8BB00C50430A11D5936AD43EE9C14660A267789F7BE23 00000000100ab498     guideXOS.obj
 0005:000054b0       __Str___title__01A1634F3585DF52491333D21C3C6F62A748F23467886CB7EEF63D637D07CCBA 00000000100ab4b0     guideXOS.obj
 0005:000054d8       __Str__circle_53B6F215CB2B085E8A6F3EB7E1CEA6AA493199F8DFA4FEFF4F1BE9818CDC9DAD 00000000100ab4d8     guideXOS.obj
 0005:00005500       __Str__ellipse_6B459B9046A221EA6F9D854011967B15205705F488A606E1F619EDE44331E6C2 00000000100ab500     guideXOS.obj
 0005:00005528       __Str__empty__4C34EAAF5E38F440D9A3BA1930BC3C49C26ACD46496525A6224D51A8CD2D2357 00000000100ab528     guideXOS.obj
 0005:00005550       __Str__none__15B5532CCA429E96FF980BE550D28F5C11FB739847960C1D3BBD98D54F78251F 00000000100ab550     guideXOS.obj
 0005:00005578       __Str__path_4CDB81075F33F92F6469FB0A8F3A980C142646DD53545E7DCE22F557186F0C05 00000000100ab578     guideXOS.obj
 0005:00005598       __Str__polygon_CA26883A42652FF6FED538EAB5497FA3E66E40E863EB31FF372BCF9246AF11AA 00000000100ab598     guideXOS.obj
 0005:000055c0       __Str__polyline_12EEC24A9B1567129B73571B4DC1DA6254D58ABE2B9D38A9D408310880B27FF5 00000000100ab5c0     guideXOS.obj
 0005:000055e8       __Str__rect_C2BD3538A421710585DE8C9EA2119CC2FE018EC95A262BEAA37DCFDE7B71AE7D 00000000100ab5e8     guideXOS.obj
 0005:00005608       __Str__title__F9DB043E4AEAED581D35B1EE2C91C11E8291DDCF70129CF84E38BC6B96A42351 00000000100ab608     guideXOS.obj
 0005:00005630       __Str___E7DAC261E841E53EB65AC8C2A0E56544DF49C46D71E8002D7764F92C66C4C868 00000000100ab630     guideXOS.obj
 0005:00005648       __Str_____Architecture_Detection_____2B18F03F03FFA321ECBD43E610AB72AFF87DAE43746D317A8C7896F3A9A51A5D 00000000100ab648     guideXOS.obj
 0005:000056a0       __Str_____Architecture_Detection_Com_9A74ADE38B9D2FB45B3C69079BA743CA673E452BE8812C9C177FA57E3CAB1551 00000000100ab6a0     guideXOS.obj
 0005:00005708       __Str_____Free___Call_Statistics_____E931ECD18D0F4C754A3A31F5891292616BF11D8383713436E53FE3B641123508 00000000100ab708     guideXOS.obj
 0005:00005760       __Str_____Heap_Allocator_____E39977532E555BCDA4F8C2812BCE6AD60B12E53A5976C0703D56D923BCBCBF95 00000000100ab760     guideXOS.obj
 0005:000057a8       __Str_____Memory_Allocator_Details___6D7A4706287B6DA864EFC3AB9AC5F633B52375B234A9AFBB33D9D44B2356C390 00000000100ab7a8     guideXOS.obj
 0005:00005800       __Str___0D549A9E1389098A9E7C5D1E01E30A361DA49F46C8F166E55D8A7F18E063B3C3 00000000100ab800     guideXOS.obj
 0005:00005818       __Str____225F4F5C8CAAF8FF43018A2028532A19EA83AD486AA0FACB73EC2C0031B2097D 00000000100ab818     guideXOS.obj
 0005:00005838       __Str___B813D21BDB2AE744A65AD78D0695CBF15A7750CA8A4828B4518913A26849BD05 00000000100ab838     guideXOS.obj
 0005:00005850       __Str___as_Ltd_de_Phoenix_del____de__4292D2E78C087C167239AE35B024CEDB5173C6B129B8EFAF53B24E85A125EAA7 00000000100ab850     guideXOS.obj
 0005:000058b8       __Str_A_critical_error_has_occurred__076680406B094E512045A8C598AE8B7D5D3A9443DFB5F1BEB682DE43B3F8C4B1 00000000100ab8b8     guideXOS.obj
 0005:00005948       __Str_A_Max_Technology_Co_Ltd_A082B5684391625C8566FE551E3DEEBE55B81BC0B675A0FBED9F7C557A31F5EF 00000000100ab948     guideXOS.obj
 0005:00005990       __Str_A_Trend_Technology_E83601E314C813DF4C76644197752E5EF2C0D80B9651F7955F884CE906A1362D 00000000100ab990     guideXOS.obj
 0005:000059d0       __Str_A_Trend_Technology_Co_Ltd_245B4D947530E472E89093FFBC1D9B55A09A83D9A36F4E05BE159A49581C49C5 00000000100ab9d0     guideXOS.obj
 0005:00005a18       __Str_ABB_AB__Sweden__F1BCD1EAD2D36F852E35F1FAD338C3976021D881E34E69255CCFA916445697AE 00000000100aba18     guideXOS.obj
 0005:00005a50       __Str_ABB_Network_Partner_AB_EDB0641A0655DC11BB53FA52BF1B54D303E288911937DB6D15E35098C75E921F 00000000100aba50     guideXOS.obj
 0005:00005a98       __Str_ABB_Power_Systems_00FF0129BB9721C53FDA150FC4B573F4C14D91EADD159E6D66F86DCC1C3564B4 00000000100aba98     guideXOS.obj
 0005:00005ad0       __Str_ABB_Robotics_Products_AB_AAFADC6ECBA4848A80B4E5B6D93C6A015D3E6E8DF1021DC7BC2ACD3EE737EC7A 00000000100abad0     guideXOS.obj
 0005:00005b18       __Str_ABCDEFGHIJKLMNOPQRSTUVWXYZabcd_2399D164CF2E3A02746CA4EF93C546F83F354F616CD88230698A69040ED128C3 00000000100abb18     guideXOS.obj
 0005:00005b98       __Str_ACPI_Timer_is_not_present___44FECAE2C32EB6ABDC67FBDE2AC3B3ED8BE4DC95D40C9BF967B5E90A807C23F5 00000000100abb98     guideXOS.obj
 0005:00005be8       __Str_ACPI_VEN_INT_DEV_33A0_063E808A8B8BEE47F58BABCB07C0F47E52007117BEB8327FE5B296E16BD46329 00000000100abbe8     guideXOS.obj
 0005:00005c28       __Str_ADLINK_Technology_Inc_31E68A8C11868E35758D1C5B207BC82D397C1DEFAD324A9DFE092171908B87CA 00000000100abc28     guideXOS.obj
 0005:00005c68       __Str_ADMtek_Inc_D84B340B389F2F908A8182BE311F6AA76174D2BDFEBBE567B58CBB6AFA16D7AD 00000000100abc68     guideXOS.obj
 0005:00005c98       __Str_AEG_Electrocom_GmbH_000D3E8E3826C3D9C8C3502BCD19F0A4C606622C16D716E610A5A80B2FC40F11 00000000100abc98     guideXOS.obj
 0005:00005cd8       __Str_AG_Communications_EAE04245C54AD983942B32A6B269672EDDE6286B9429E61E588B3DB31C98E4B2 00000000100abcd8     guideXOS.obj
 0005:00005d10       __Str_AG_Electronics_Ltd_9425E60EE67DB6349C0C7D07C3749F5686FE65D6EB4F8FD8EE0DC59AD0D557FA 00000000100abd10     guideXOS.obj
 0005:00005d50       __Str_AGEIA_Technologies__Inc_47F5B368F0EDA400439613A4323843EDE0F045B9455E0D3DC4638380A5B14DBB 00000000100abd50     guideXOS.obj
 0005:00005d98       __Str_ALIGNMENT_CHECK_B1AC452023AEB493B9EFA3768F1C80EFB48674D4BE2CB18C437374863D128C11 00000000100abd98     guideXOS.obj
 0005:00005dd0       __Str_ALL_DATA_ON_THIS_DISK_WILL_BE__F87049E578179D6AF410D91419B7F3E99D2B4B3211C5B2C85FBE7F3419596CE9 00000000100abdd0     guideXOS.obj
 0005:00005e50       __Str_AMO_GmbH_FBB82CADD6EA439143F275CAF963ED60E51ECDF625E72D6C3C2795FED2605711 00000000100abe50     guideXOS.obj
 0005:00005e78       __Str_AMP_Incorporated_DDC23C6ED016AD955E0A12C9C4B65F4DC5D33F0F4A112A05B5BE7D90A89F7237 00000000100abe78     guideXOS.obj
 0005:00005eb0       __Str_APD_SA_2A3060A994CEEBEB898A26AFEF97A961842CE685D1E3AD2B74A8949225EF9806 00000000100abeb0     guideXOS.obj
 0005:00005ed8       __Str_ARCOM_Control_Systems_Ltd_2F10130C2368E093465927952BA26CB8B5954BE948840D5A29B33D276CF8FF07 00000000100abed8     guideXOS.obj
 0005:00005f20       __Str_ARK_Logic__Inc_C49DFD84EAD5539A7E746BD19A464775D8ACF9B3EC59EBA07338CE0419BEDF8B 00000000100abf20     guideXOS.obj
 0005:00005f58       __Str_ARK_Research_Corp_8CED1A5241F52107D66C1C1EC10493A10038C1CEC055D2B726AE5CDC35D68831 00000000100abf58     guideXOS.obj
 0005:00005f90       __Str_ARM_Ltd_415CA24C11C4C7FB4002D219E390693EE88C472D6B49790E23B9774ECD7F76C3 00000000100abf90     guideXOS.obj
 0005:00005fb8       __Str_ARN                  00000000100abfb8     guideXOS.obj
 0005:00005fd8       __Str_ARP_table_not_initialized_2525A5C24CB91A9C915F1CC2547C5A9807DD494A80FED0D27465B8FE70EC3CBF 00000000100abfd8     guideXOS.obj
 0005:00006020       __Str_ARVOO_Engineering_BV_3E7529247BCEA32308D1B8A4F031A2142C04A6ECE2C76DA3F373B0063CF4B455 00000000100ac020     guideXOS.obj
 0005:00006060       __Str_ASDFGHJKL___D9A99A84F09C6CE30161B77DFC3DDC0788CAD753D0ECF6DCA3DC4A09CA832D8D 00000000100ac060     guideXOS.obj
 0005:00006090       __Str_ASMedia_Technology_Inc_CE3B086AB8B04A6E76757B618B895E37B6592F4F7467B8E4DAC38818211FD065 00000000100ac090     guideXOS.obj
 0005:000060d8       __Str_AST_Research_A8F25840B6BA56318F774DE4775BCF2929E14A75CFEE89244A339C3FA80B27EE 00000000100ac0d8     guideXOS.obj
 0005:00006108       __Str_ASUS                 00000000100ac108     guideXOS.obj
 0005:00006128       __Str_AVC_Technology_Inc_0D86D1182F9DEF802647D3CC6F11CD701B6F05E2F6B7EDABAD466A03227D4857 00000000100ac128     guideXOS.obj
 0005:00006168       __Str_AVM_AUDIOVISUELLES_MKTG___Comp_230E0D99E5101A5CB5059DF3DC42DD916EC3E9B55C8852FF80442145869427EF 00000000100ac168     guideXOS.obj
 0005:000061d0       __Str_Aaeon_Electronics_Inc_E4F430BDE674107897CAE8FBA04F849D180B244BBD8C4BAF220D6CC75A84FFB6 00000000100ac1d0     guideXOS.obj
 0005:00006210       __Str_Aashima_Technology_BV_F6AC862FFF42626D6AF62139A9EBB87BB6497F19AA742057C8AA45A313FF9E1D 00000000100ac210     guideXOS.obj
 0005:00006250       __Str_Abekas__Inc_CB921FC7BEBC0BCBA44DA6FA6126A6E23F9590480F7D0E8166BE328F7587576A 00000000100ac250     guideXOS.obj
 0005:00006280       __Str_Abit_Computer_Corp_EB0C3BD0D2E2B09B4B31926D663159D9CBC3B92E8BC08E6DE17D5585003C1A11 00000000100ac280     guideXOS.obj
 0005:000062c0       __Str_AboCom_Systems__Inc_FCCF25FF3608191201B386A177A13AAAD5433445E3A6856626AAE95B697E9601 00000000100ac2c0     guideXOS.obj
 0005:00006300       __Str_Absolute_Analysis_85DF9BE3A8AF986BA65AAE9215D9340AE97500752EFB2DD158159403E1D71055 00000000100ac300     guideXOS.obj
 0005:00006338       __Str_Acard_Technology_Corp_8C3CAE73E61513F0863FCE76B409FE8DC8EC4A8FE8B05DB1B6E9238E8A89984C 00000000100ac338     guideXOS.obj
 0005:00006378       __Str_Access___61D70560FC13CBA9A9F8655ED99609EA627C0243C61F02BC43B214F52346A97B 00000000100ac378     guideXOS.obj
 0005:000063a0       __Str_Accton_Technology_Corporation_1186FDB73383269CBEF403E6321C99B9BD1AA486A510E0BF29E81E46EC376DA4 00000000100ac3a0     guideXOS.obj
 0005:000063f0       __Str_Accusys_Inc_CF4A597E330FFD3C0FDD2C1FE3C1C68B917997E3BE927FEB33E15AFC31CBAD92 00000000100ac3f0     guideXOS.obj
 0005:00006420       __Str_Acer_Incorporated_A36AF58C8BC59A1E694BBC139102A716ECA9913FE8860C4C20761410560E3EF8 00000000100ac420     guideXOS.obj
 0005:00006458       __Str_Acer_aspire_one_86D3DB2277665BAD455E2B3F17DE7344AF4C75306AA8F10AA9368B181CAA2B32 00000000100ac458     guideXOS.obj
 0005:00006490       __Str_Achme_Computer_Inc___GONE______17A425830FFFF0848E2B2EA593032ABB0A5CC8AC42C53E8DA8710DF1497D32EA 00000000100ac490     guideXOS.obj
 0005:000064e8       __Str_Acksys               00000000100ac4e8     guideXOS.obj
 0005:00006510       __Str_Acqiris              00000000100ac510     guideXOS.obj
 0005:00006538       __Str_Acresso_Software_Inc_D516599B0026A8566D65F33C899F7489ED6C0A0B8CD0BA970B0B9DC38608D67F 00000000100ac538     guideXOS.obj
 0005:00006578       __Str_Actel                00000000100ac578     guideXOS.obj
 0005:00006598       __Str_Actions              00000000100ac598     guideXOS.obj
 0005:000065c0       __Str_Actiontec_Electronics_Inc_6B683D7E397D07BFF7D09539BA550B8C3BEBBAEBA182107E71696403A3E1F427 00000000100ac5c0     guideXOS.obj
 0005:00006608       __Str_Active_time__BCDD5814671B8149EAAEB766D3135BD61C9D9164EF4900B08F8BD48D2D340483 00000000100ac608     guideXOS.obj
 0005:00006638       __Str_Aculab_Plc_0B0E001B3B8AB42BF9D24454C03341169E1F04DEDF30AF0907D6CB1660D888F8 00000000100ac638     guideXOS.obj
 0005:00006668       __Str_Acumen               00000000100ac668     guideXOS.obj
 0005:00006690       __Str_Adac_Corporation_C284073941731BA4FC4F8860FEB067B445829E8508814E6E9DAA5D44750C6969 00000000100ac690     guideXOS.obj
 0005:000066c8       __Str_Adaptec_Inc_5A629FDEDFEDCDDA1518E251E58EE9249D39588F51C194147B8727C084FA45AE 00000000100ac6c8     guideXOS.obj
 0005:000066f8       __Str_Adaptec_Cogent_Data_Technologi_48BE63829EC3B3E9572472B6710CB27E76513417BE075ABA17CAE3A7EB5EEEDA 00000000100ac6f8     guideXOS.obj
 0005:00006750       __Str_Adaptive_Solutions_E24314EF71B3B6C8DF7C49CCF10DAFEB5343B358BFD8EEC4B263D8039D88ADAC 00000000100ac750     guideXOS.obj
 0005:00006790       __Str_Adax_Inc_5A269ABDEE5F71A0DB813D1E5FB87BB9B6CA8CB45AE13AD8A8D18F7F1CA1B439 00000000100ac790     guideXOS.obj
 0005:000067b8       __Str_Add                  00000000100ac7b8     guideXOS.obj
 0005:000067d8       __Str_Add__392B1158288CD88AC451741A1FFFFDBE40E3C19EF12FF45C7F3AD4B448D77393 00000000100ac7d8     guideXOS.obj
 0005:000067f8       __Str_Added_exception___0B38EBC6328D7B522B98FEF5434779EE2A8B67AA610E521AA6E693578A188ED2 00000000100ac7f8     guideXOS.obj
 0005:00006830       __Str_Added_network_E201768AA1FECD0B75D4384F7C8E4E75394BCCEC359715B2324A7A87FC8A43F5 00000000100ac830     guideXOS.obj
 0005:00006860       __Str_Addi_Data_GMBH_68C49C825846F453278C50F647618E3F8E98F40BA9CCF110300ADDEF388C8058 00000000100ac860     guideXOS.obj
 0005:00006898       __Str_Additional___37EACDB66A52F54E65B280A447459D488537330C0134A595D16ECABEBBC1688B 00000000100ac898     guideXOS.obj
 0005:000068c8       __Str_Addonics             00000000100ac8c8     guideXOS.obj
 0005:000068f0       __Str_Adicti_Corp_AA60D3E9C15BB0152270B7BC8D6B11825D8EE76C7E640BABEB900F52C56BD5AD 00000000100ac8f0     guideXOS.obj
 0005:00006920       __Str_Adjustments__AB8B272119B99CADEED1295A841E839F52F622B333D45391CABB74057F376578 00000000100ac920     guideXOS.obj
 0005:00006950       __Str_Admore_Technology_Inc_BAD9ADE6FE66E54251F3570F9EBA0A5CF063742CCD3FAD105B5FDB9ADC9BADED 00000000100ac950     guideXOS.obj
 0005:00006990       __Str_Adobe_Systems_848E82D27920AC353B65A820D1262E25AA4B9FFD57274BA7816C14C5E3E0FCB5 00000000100ac990     guideXOS.obj
 0005:000069c0       __Str_Adtek_System_Science_Co_Ltd_DD12635BA840687B556A503F448174D693420E45922DADEC124F80B77D472488 00000000100ac9c0     guideXOS.obj
 0005:00006a10       __Str_Adtran               00000000100aca10     guideXOS.obj
 0005:00006a38       __Str_Advanced_Integration_Research_A28A2D48CA71348ADD18C1F8226BED078F117269F3B4434C27200BC20140B517 00000000100aca38     guideXOS.obj
 0005:00006a88       __Str_Advanced_Logic_Research_Inc_E33791A6B40CF657709F4998F4283BD43D8FDBD084BE8A41121738806D40C7EC 00000000100aca88     guideXOS.obj
 0005:00006ad8       __Str_Advanced_Micro_Devices_2C69C41EEBB6D75227D339C1364D2B07EFCEED3246559E004DB1C18D13BE4113 00000000100acad8     guideXOS.obj
 0005:00006b20       __Str_Advanced_Micro_Devices__Inc_593FFF61AFD70788E51763891C535D843CA868CACF7A20A244E300BFE108121C 00000000100acb20     guideXOS.obj
 0005:00006b70       __Str_Advanced_Peripherals_Labs_43F3195029E7DF37562DB49D3F930ED173DDAF72ED82BBD6290E8A1C0EA65CCE 00000000100acb70     guideXOS.obj
 0005:00006bb8       __Str_Advanced_Peripherals_Tech_B8B92DB1885EE4D4107D9A3E833397231416B3451FA3C9661AAD6E7C5F1C3C54 00000000100acbb8     guideXOS.obj
 0005:00006c00       __Str_Advanced_System_Products_6B1926E09847C43C6B3CBC1853333CE3C37864057F24E8AAFC676C6B6D388761 00000000100acc00     guideXOS.obj
 0005:00006c48       __Str_Advanced_Telecommunications_Mo_6295D638F68CB5231171F6802A20D8402A7DCEA552CE5244C873E3BBFF9D5800 00000000100acc48     guideXOS.obj
 0005:00006ca8       __Str_Advanet_Inc_B3CC521E9CA14095FCC465269EF939287E59F42A8271FD523F57DE8ED05702DD 00000000100acca8     guideXOS.obj
 0005:00006cd8       __Str_Advantech_Co__Ltd_69AFC9128633D0AC9D9A16BE060264ECB8EA5009FA785D27AB654B8AD660A82C 00000000100accd8     guideXOS.obj
 0005:00006d10       __Str_Agere_Inc_8C245A89510DD9B93FAEE7CE4F84FC4C4534EB83013DB96167F7D04773208F43 00000000100acd10     guideXOS.obj
 0005:00006d38       __Str_Agie_SA_32D49BC638BDDB0B6BB3C2496B0060AAE4603ADCB355CFDD5A8A7065E7CFCE11 00000000100acd38     guideXOS.obj
 0005:00006d60       __Str_Agilent_Technologies_26ABC5A14EF08CE65782A0A23F4C5923F992DE126779728203A3346C2F1EC291 00000000100acd60     guideXOS.obj
 0005:00006da0       __Str_Aim_GMBH_02CAD2EC3A14432F6D75F9FB6A920B05E233E8D84A3C7FCA4C313DF3F6E1D2CE 00000000100acda0     guideXOS.obj
 0005:00006dc8       __Str_Aims_Lab_D246B34E809D8EAFF44E1D2F4F899B96B2F653C6F83C27809A5C6462189B8B01 00000000100acdc8     guideXOS.obj
 0005:00006df0       __Str_Aiptek_USA_D484C95F1D8ECBD44BF9F6C32962536EE2E527284E5179E306883E5A8C58E5CF 00000000100acdf0     guideXOS.obj
 0005:00006e20       __Str_Air_Prime_Inc_7B049485B0B76B6DE1D052F5FAA616FD677E744D41A6D1F255C84875F8C3BBE8 00000000100ace20     guideXOS.obj
 0005:00006e50       __Str_Aironet_Wireless_Communication_EF7712506211208B95906BD29107651B4B991A273EC44852194CE5F785252098 00000000100ace50     guideXOS.obj
 0005:00006ea8       __Str_Aiwa_Co_Ltd_E416CF3BA67D9857940BACC7E09307D737C42D6D253B3FB783B3C29EC54050E1 00000000100acea8     guideXOS.obj
 0005:00006ed8       __Str_Alacritech_Inc_1AD6D9D4DF8FA4323EDAB708EB905287112ADE598DD91596A789712EC91A53E5 00000000100aced8     guideXOS.obj
 0005:00006f10       __Str_Alacron              00000000100acf10     guideXOS.obj
 0005:00006f38       __Str_Aladdin_E_Token_B08154EE5680DB3044C6F034BC17F71ABE3E183CAE2B79F03974FB18D29DC2E6 00000000100acf38     guideXOS.obj
 0005:00006f70       __Str_Aladdin_Knowledge_Systems_8C712A7A9524CAAE01BCDC5B69B144C68E7D63BB56C2547F02EB82A1F7DEACCE 00000000100acf70     guideXOS.obj
 0005:00006fb8       __Str_Alaris_Inc_FC77DC42860562DD27C2566DDFCC6F93288D7212ABEF0115FD003E5BFA7EBA6F 00000000100acfb8     guideXOS.obj
 0005:00006fe8       __Str_Alcatel_Cit_4A4DDC8227F58532D8276637B77B1544C2BE6884748BB940D1F36DE1AD58D2C5 00000000100acfe8     guideXOS.obj
 0005:00007018       __Str_Alchemy_Semiconductor_Inc_FEF5AE157365A6014F1FE55A085D3703184068D9D6A5E1C858F89BADBE406270 00000000100ad018     guideXOS.obj
 0005:00007060       __Str_Alcor_Micro_Corp_53DDA22582831B5627E67106B8E8052BD7349524C01CFB3F5633A705606208F9 00000000100ad060     guideXOS.obj
 0005:00007098       __Str_Alesis_Studio_7B297AC3460C76CDEF24BDD7B47CE4C5A43D8E488A159445C5FA48BA2B131C36 00000000100ad098     guideXOS.obj
 0005:000070c8       __Str_Alfa_Inc_52D872790A68C8AFFC05D38B4B6BF1AE893791D716250F34349ED2289D2E4E7F 00000000100ad0c8     guideXOS.obj
 0005:000070f0       __Str_Ali_Corporation_2CB9123EB88044AA08280FA6456DEF377F348030F7A74C71DCA932AEA3F4589C 00000000100ad0f0     guideXOS.obj
 0005:00007128       __Str_All_CPU_Halted_Now__75307B9727CB3F43D618ED4B269841D634DC23C3C6C9BA7E29F38D99D863D1E4 00000000100ad128     guideXOS.obj
 0005:00007168       __Str_All_Programs_A814984DE469DC4ADD7B3AB42F6295888187DD6FD49C7594B6DB7502517AC737 00000000100ad168     guideXOS.obj
 0005:00007198       __Str_Allen_Bradley_Co_1B84BA64726DDB6157D5AE45F20818AFCDADB121DB553FD8631332B0CFD325F8 00000000100ad198     guideXOS.obj
 0005:000071d0       __Str_Alliance_Semiconductor_E86223FEAD3F0CABF4634ED23CD1DB7B10B4FEEDA51A75880BF3E68CD3CDAA0F 00000000100ad1d0     guideXOS.obj
 0005:00007218       __Str_Allied_Data_Technologies_0219B74210568201F23EA2F9D8425A5AB77E0B92574E52EDB052851BAF3E66BE 00000000100ad218     guideXOS.obj
 0005:00007260       __Str_Allied_Telesyn_International_D7A5B280D758EC9E981FDE0EB85F9E1A742381D65193ED6D9887A3AA2D89A6A7 00000000100ad260     guideXOS.obj
 0005:000072b0       __Str_Allocate             00000000100ad2b0     guideXOS.obj
 0005:000072d8       __Str_Allocated_Pages__312EC262328B35184BE0316914096FD70CACD845EBF5A836B8898735942B64E4 00000000100ad2d8     guideXOS.obj
 0005:00007310       __Str_Allow                00000000100ad310     guideXOS.obj
 0005:00007330       __Str_Aloka_Co_Ltd_AD5D712D825B9BB50AA69C8BD716104B5D214C461C1AC840D43CCB7D9142D87D 00000000100ad330     guideXOS.obj
 0005:00007360       __Str_Alpha_Data_1142658E87A93521B67B5A3B72D843797A1C66E49D53AF9BD2510947EEDB7B53 00000000100ad360     guideXOS.obj
 0005:00007390       __Str_Alpha_Processor_Inc_1EC2DBB44F5B22B028C0DB76BAF28B1F25AEC8BBC405C717C0FFBDEB1C378E13 00000000100ad390     guideXOS.obj
 0005:000073d0       __Str_Alpha_Top_Corp_5B4787BA00151888A1360A071B191C8B4E97DB29B7ED9FE721A73F25B80D5584 00000000100ad3d0     guideXOS.obj
 0005:00007408       __Str_Alpine_Electronics_Inc_C51C3217C7512E5C8CC9C4D5DF9C99146A059902273A8451C2A74EC565EC78B1 00000000100ad408     guideXOS.obj
 0005:00007450       __Str_Alps_Electronic_Corp_Ltd_8D63F3878AE0B940BD5B9A828A6DFAE8B26CA16DF64E139A0383FBF2D67D3907 00000000100ad450     guideXOS.obj
 0005:00007498       __Str_Already_at_root_8FDD80C744E2E4B73E511FB4B7A43D4F92FA3ADDC91B45D0B893C224156D93DB 00000000100ad498     guideXOS.obj
 0005:000074d0       __Str_Alta_Technology_Corp_6C79F4AD8F65115B06AD56585B8C6BF556AF3C2107C33FB490B82C2659BA69EC 00000000100ad4d0     guideXOS.obj
 0005:00007510       __Str_Alteon_Networks_Inc_61CBE0FD3A197F8B675BD32FB264F2AAE3E83AC16C07EA1C3324981ADA4B7390 00000000100ad510     guideXOS.obj
 0005:00007550       __Str_Altera_Corporation_3A5F55C7CF0B2C5F58803476378A58B71793E04FDA5BA17DEA0E6499E631C7BB 00000000100ad550     guideXOS.obj
 0005:00007590       __Str_Alternate_DNS_server__A56E655058F63EB02DBF3004A5959B76AF0EAF5B88011101B2D53956AB8D00CC 00000000100ad590     guideXOS.obj
 0005:000075d0       __Str_Altima_Communications_Inc_68A0BF54A42D6EBAC006F19C799F7E3448F3D76CFE16DF9FE18E8443795EC5A7 00000000100ad5d0     guideXOS.obj
 0005:00007618       __Str_Altos_India_Ltd_4FA08F184C70CDFFC384805AC25460ADFE0C9E49AF23DB4C777C8DB2A9D00BF1 00000000100ad618     guideXOS.obj
 0005:00007650       __Str_Ambicom_Inc_300E67D8487BFBB8F2C24B2638BB1D3BD4F75DFAF698D55299525486A4EC1697 00000000100ad650     guideXOS.obj
 0005:00007680       __Str_Ambient_Technologies_Inc_800351612D9BA794DFA15CB16D24223CD4306417BA1B9C6AFDC071DF42401D47 00000000100ad680     guideXOS.obj
 0005:000076c8       __Str_Ambiguous__multiple_apps_match_CA9336D7CA353509421A950D762013E29DF66BA6F1F2639992810C49B845FDA3 00000000100ad6c8     guideXOS.obj
 0005:00007720       __Str_Ambit_Microsystems_Corp_15BD24AFF4AC0F37B8F5429A074FF6B750F0572ECC137A51FF79CE29859D0D54 00000000100ad720     guideXOS.obj
 0005:00007768       __Str_Amdahl_Corp_BDF81019C1E8C309B6275C7306A0C9EF7B49A33FD8631EEE92C63F8889F52CF2 00000000100ad768     guideXOS.obj
 0005:00007798       __Str_American_Megatrends_Inc_4139EFB9A8A8563D72A49C4846F3CFCA19E11874FFB9B6CB420F52D1E4DC273A 00000000100ad798     guideXOS.obj
 0005:000077e0       __Str_American_Microsystems_Inc_D098466E4B3443CB7D4378BF71DD86506BB7ECF0E351EE94ABAD0AD2B7B913ED 00000000100ad7e0     guideXOS.obj
 0005:00007828       __Str_Amersham_Pharmacia_Biotech_D6B62B16B2C0F5F820F2EDF508C355F60F36570E985C4607509035BE3571DF8E 00000000100ad828     guideXOS.obj
 0005:00007878       __Str_Amplicon_Liveline_Limited_EAD35D0F8E3D572FB87DACE04320499530B21A1501D343BD82BD59B14FCEFE80 00000000100ad878     guideXOS.obj
 0005:000078c0       __Str_Amtelco              00000000100ad8c0     guideXOS.obj
 0005:000078e8       __Str_Analog_Devices__Inc_03F97B9F9655DF5C54276D125128A8FF65F8A08CF05C7C48118AC586331C5A5D 00000000100ad8e8     guideXOS.obj
 0005:00007928       __Str_Analogic_Corp_B7D0224AE0CD2D084247C7C63BEF8A55F35D4507B28323B8B0CB4AD117352BD9 00000000100ad928     guideXOS.obj
 0005:00007958       __Str_Ancor_Communications_Inc_B1001CE3E1E0FBF3BE7917CA0C8DA085D9925B79785482867689D49E0C3D5ED9 00000000100ad958     guideXOS.obj
 0005:000079a0       __Str_Andor_Technology_Ltd_B2BA34D2FDB9166E03B798988C8B8A82D8A12C57BAA70E301ADFD2A073CDFD27 00000000100ad9a0     guideXOS.obj
 0005:000079e0       __Str_Andrew_Corp_73AD779363A4EA2A7D773E87487D3D02CFC3B438421A9F1AB07D06D615700ACE 00000000100ad9e0     guideXOS.obj
 0005:00007a10       __Str_Anigma_Corp_EFF09BD896DAE615845C03501710BFDD80475E629AA8E40DC569DA2D231B0943 00000000100ada10     guideXOS.obj
 0005:00007a40       __Str_Animations           00000000100ada40     guideXOS.obj
 0005:00007a70       __Str_Annabooks            00000000100ada70     guideXOS.obj
 0005:00007a98       __Str_Annapolis_Micro_Systems_Inc_B6D865880D0A8201354B6D4289AB482A54CECC48DD122F840069EB872933225A 00000000100ada98     guideXOS.obj
 0005:00007ae8       __Str_Antal_Electronic_73169586878BCD2CC9ACC6BA3514ABCB9CD2BC8285F68E56558767ED0D1853D3 00000000100adae8     guideXOS.obj
 0005:00007b20       __Str_Antara_LLC_96741F28BED32B86C13BC45F2ECA897593C4BBACD7064E0E1BF22D77D7FBC2D1 00000000100adb20     guideXOS.obj
 0005:00007b50       __Str_Antex_Electronics_Corp_0BAB5FD130085D4424E12C6F99DC7F59C26522D003E725F427EC7787550F7D41 00000000100adb50     guideXOS.obj
 0005:00007b98       __Str_Aopen_Inc_9E10D2579501BDE8DE09A5EC7C293A416AD638353923762B9DE0A1BFDF324C75 00000000100adb98     guideXOS.obj
 0005:00007bc0       __Str_Apex_Inc_A60B70AEA2352B70BB2E46F1FC790AB39C911A1C47EB10880674FD6CE27ACBB0 00000000100adbc0     guideXOS.obj
 0005:00007be8       __Str_Apostolos            00000000100adbe8     guideXOS.obj
 0005:00007c10       __Str_App_not_found___BD8CBA6E92FD402219B5F41BF8D0725987E2C30568CDF6CEB9B11A66A22FA2F6 00000000100adc10     guideXOS.obj
 0005:00007c48       __Str_App_system_not_initialized_9D98323D0DCB54A67B5E791D88F834DC4AD1F109D31F523F377271F5F951F3A4 00000000100adc48     guideXOS.obj
 0005:00007c98       __Str_Appian_Graphics_D583FD6101ED7BBFE2986ABBF746A40733EF431CB6F70F39443E19F6A819708D 00000000100adc98     guideXOS.obj
 0005:00007cd0       __Str_Apple_Inc_B057706865C085A98F6C3FE7EE52A20DBD3971DEFEFCA092A5BAE2E27B721E6C 00000000100adcd0     guideXOS.obj
 0005:00007cf8       __Str_Applicom_International_D4CF49CDA19D24AC340ABBD65A4D33D33B2C2C4A0F274AFA6592ADF855083DD4 00000000100adcf8     guideXOS.obj
 0005:00007d40       __Str_Applied_Computing_Systems_Inc_2F1389EC842656499D6BE3AEC4DD36FA17B36C29CBC17D88E6BC7B1F58ED84B3 00000000100add40     guideXOS.obj
 0005:00007d90       __Str_Applied_Integration_Corporatio_417307491D2933E2EECBB9A1796328D49A74EBE26D258B29DA3E3B3DE10630BF 00000000100add90     guideXOS.obj
 0005:00007de8       __Str_Applied_Intelligent_Systems_In_CC95329118057B1D10FCEC6BBECAE38A478CEFF180C867C5DD2B10A3A3F5F087 00000000100adde8     guideXOS.obj
 0005:00007e40       __Str_Applied_Micro_Circuits_Corp_9F3DD74B04D276AACBF6712786E1F403A520A54D45E561F8EDDACD79CBAA2D9E 00000000100ade40     guideXOS.obj
 0005:00007e90       __Str_Apply                00000000100ade90     guideXOS.obj
 0005:00007eb0       __Str_Apricot_Computers_C7997C71CD9191AD1C31ED2B06339FA94A3CB01FF293E7A78C8C763377CA1225 00000000100adeb0     guideXOS.obj
 0005:00007ee8       __Str_April                00000000100adee8     guideXOS.obj
 0005:00007f08       __Str_Aptix_Corporation_11721BA62F29F7299DE585518723667D2F52A3651BC5365E7C83749BA5D3ACF1 00000000100adf08     guideXOS.obj
 0005:00007f40       __Str_Aralion_Inc_09D18A35FDE2134725717C461B856499C956F638626601BAC00B26BF5AC17DB6 00000000100adf40     guideXOS.obj
 0005:00007f70       __Str_Archtek_Telecom_Corp_BB7A2DD45A6B5B85F9399AD928AA5957E763226787ACA515DC705A053571BD82 00000000100adf70     guideXOS.obj
 0005:00007fb0       __Str_Arcus_Technology_Inc_72085BCE48ADF199132054BAB112A7AF6F161C43691086717B2BCBA8DB70BE78 00000000100adfb0     guideXOS.obj
 0005:00007ff0       __Str_Ardent_Technologies_Inc_7EEBD02881C4CE7C96C2CA8A4B6926A8F21A84AF36ACD413B5783280109DC86D 00000000100adff0     guideXOS.obj
 0005:00008038       __Str_Are_you_sure_you_want_to_shut__C7460E8AB1C67907BC95073EDAA0C835336104139BFAA3DFDCDD99C91D2E98E3 00000000100ae038     guideXOS.obj
 0005:00008098       __Str_Ariel_Corporation_D3C7226AAD7B785837FC3F002EE0E435E9E7FB3D2F02E761085A6DDE9CA52F89 00000000100ae098     guideXOS.obj
 0005:000080d0       __Str_Arima_Computer_Corporation_F1F410756CE0A7CFD8641E25FF4778B434121697A2EC84F0FE22591CCD0D2F5D 00000000100ae0d0     guideXOS.obj
 0005:00008120       __Str_Array_Corp_6E16F95912D165FE1B57BBE1A54947DD565D57AA6C0C1A9FFAD515A75064BB96 00000000100ae120     guideXOS.obj
 0005:00008150       __Str_Array_Microsystems_2AFDE0F99510A6807C7F437C02B436913D80D743DB7370E31A72F43718C511ED 00000000100ae150     guideXOS.obj
 0005:00008190       __Str_ArtX_Inc_D0BE36D71586680DAB9E290A772B57C9E2CC1E0CE7129DD47B3EC2F5E5E8216B 00000000100ae190     guideXOS.obj
 0005:000081b8       __Str_Artesyn_Embedded_Technologies_A618E0BB6CB52D366BBD5D65C06A393A9AC99868074034C915055180693B0B78 00000000100ae1b8     guideXOS.obj
 0005:00008208       __Str_Artist_Graphics_44E4431FA498D43558A178ACFD8ACB4D4400119CEC82BFE62BFC18AD0D9FDB77 00000000100ae208     guideXOS.obj
 0005:00008240       __Str_Asante_Technologies_Inc_E730A1D0475070999B998055EA96229167A6C9BA111F71F936AB0761C7218845 00000000100ae240     guideXOS.obj
 0005:00008288       __Str_Ascii_Corporation_DA9FACB3453B5534CBCDB6A94C5F8AF5EE1356C53D302CE6391C5FECD61E2E5E 00000000100ae288     guideXOS.obj
 0005:000082c0       __Str_Asiliant__Chips_And_Technologi_50A4C35B585B60281FE2FD387A82D7CA627F91E099F446642116F58CF13957B5 00000000100ae2c0     guideXOS.obj
 0005:00008318       __Str_Asix_Electronics_Corp_DC51E8FED5B91B0659A04B71E42C781BB52D8D093BFAFB035CAC3429E5183BB5 00000000100ae318     guideXOS.obj
 0005:00008358       __Str_Astrodesign_Inc_4C11EAEA4CD8251AA994D8EA6AA46B4C81B044E943DB9FE2C627105BABEFD357 00000000100ae358     guideXOS.obj
 0005:00008390       __Str_Asustek___ASMedia_Technology_I_930F624AE66E213E78F21616CBB5418BD35AAC1FC003BC45B6806028EC699E4D 00000000100ae390     guideXOS.obj
 0005:000083e8       __Str_Asustek_Computer_Inc_5BC3CA6F54B11126D106D7786A0EB0CD68D02B01A1C76D965D965822178ECAAE 00000000100ae3e8     guideXOS.obj
 0005:00008428       __Str_Atan_Technology_Inc_4FCD11F8AC09A79DF616A15F1000D093868C3ABDA0E4E73D6AB13BB3B1674917 00000000100ae428     guideXOS.obj
 0005:00008468       __Str_Atelier_Informatiques_et_Elect_EADBB942CE472DFE3D2A4FF82624D5080D4C7CD417CFAC7A53ED8910E755E980 00000000100ae468     guideXOS.obj
 0005:000084d0       __Str_Aten_Research_Inc_1791B4E814D13ACE7FFEEF71247E0AFF0DDB1FC068C08CFC5403BC383DC6BDAD 00000000100ae4d0     guideXOS.obj
 0005:00008508       __Str_Atheros_Communications_09980DEC74ADC18FA7CF905DF41A4BF6BCA6890E58D81C338A8EC99B0A78A4AD 00000000100ae508     guideXOS.obj
 0005:00008550       __Str_Atheros_Communications_Inc_FF817C8A831BD3DBDF526CFB6110F522C01F5D59D38077FFEA481640FA49D7F2 00000000100ae550     guideXOS.obj
 0005:000085a0       __Str_Atlantek_Microsystems_Pty_Ltd_FE26D17AEEFFCF1460AFC0CF741CBFDF37FBB2B553A5797DD8CB4519EFECCABD 00000000100ae5a0     guideXOS.obj
 0005:000085f0       __Str_Atmel_Corp_0CA0621457E112B5B8920468A07CA56067B975F7B5A9D029C357EDFF7FE414A3 00000000100ae5f0     guideXOS.obj
 0005:00008620       __Str_Atmel_Dream_B131DA6506688572ED14F9CC48A639A6009B4BC7809F74C9B20A8AEFDAAA4819 00000000100ae620     guideXOS.obj
 0005:00008650       __Str_Attachmate_Corp_4B41CAA9D875E5835BF78AB5EF702A6E04D72DC034BBEAE8B99850C318EC05D5 00000000100ae650     guideXOS.obj
 0005:00008688       __Str_Atto_Technology_D90A517B570B8BE51CB1E6D6398AB24FC076CA5CF935948D9586813989A3071D 00000000100ae688     guideXOS.obj
 0005:000086c0       __Str_Audio_controller_is_unavailabl_9AA959F097FE666E97C812339008097A7E966AA2AD3B58577DC98E349F955029 00000000100ae6c0     guideXOS.obj
 0005:00008718       __Str_Audio__ES1371_64A47DDA0F96AE7945872CF94F05952BE8A319C18AF4373E95C501DB09548C76 00000000100ae718     guideXOS.obj
 0005:00008748       __Str_Audio__Intel_AC_97_44B1FD388E4E00CB15B7B410391E77B5C0D3066FDA354090BC45B66098D66623 00000000100ae748     guideXOS.obj
 0005:00008788       __Str_Audiocodes_Inc_735B282FAD332DF94A2C3A5A8AA69072C34B68A6D6F3D3D3A471206CFC7A1C84 00000000100ae788     guideXOS.obj
 0005:000087c0       __Str_Augest               00000000100ae7c0     guideXOS.obj
 0005:000087e8       __Str_AuraVision_Corporation_E9C3480DE7C32792511D149B4A10ED122DA4FC8D2B544FAD21009BD5200FC6D5 00000000100ae7e8     guideXOS.obj
 0005:00008830       __Str_Aureal_Semiconductor_7F085B7D913F901C504405F5999E02D74D3DB52D22427E2F5A074815DEFE0B92 00000000100ae830     guideXOS.obj
 0005:00008870       __Str_Aurora_Technologies_Inc_C0F6C28136D93848C87D154C7E0C9BF316D497A74183E1FC2489457001A7E317 00000000100ae870     guideXOS.obj
 0005:000088b8       __Str_Auspex_Systems_Inc_92CAAFDF72FFA0AF395EEA8C03963F70108989BAB92114CB2323A19CFC5F248C 00000000100ae8b8     guideXOS.obj
 0005:000088f8       __Str_Auto_FS_detect_failed__EBD11FD10D0E825A1DC7DEF7C90C893F2CABA8ABFE58C8C9CA20D46DDE6FFE9C 00000000100ae8f8     guideXOS.obj
 0005:00008940       __Str_Auto_Hide_Taskbar_DD89420D5FB7564A9B537DB3399978554D33B5604A0ADFBDA96FCE87E2CBFF56 00000000100ae940     guideXOS.obj
 0005:00008978       __Str_Auto_Rotate_Desktop_Background_989A9F67C366ECA7D74D88D2349B3D9F1C8CCEE6A7D9E0FB15D3E54D13DCA383 00000000100ae978     guideXOS.obj
 0005:000089d0       __Str_Auto_allow_and_add_to_exceptio_EBEC82937EE277321522FA06FE6593D4A705C9C01BE7640487978AC13853CEA2 00000000100ae9d0     guideXOS.obj
 0005:00008a28       __Str_Autolearn            00000000100aea28     guideXOS.obj
 0005:00008a50       __Str_Autologic_Inc_61601D4912DDEE2E4BBA62DAFB9DA56634E32B8FBB55E56BD087A11BC4BE28F2 00000000100aea50     guideXOS.obj
 0005:00008a80       __Str_Automated_Wagering_Internation_6CE40F508FDC4177BA3E85D168D83C9A483A4DD333DA347A479EBDCAD3EC2FA3 00000000100aea80     guideXOS.obj
 0005:00008ad8       __Str_Available_Applications__ABFF52BEBADE401F4125328647D7C02B6B5958F4A4350A20CC0B3C8771EEF23F 00000000100aead8     guideXOS.obj
 0005:00008b20       __Str_Available_resolutions__3D40D1AD77C357CFA141AA17FD801F0AACA80EDAAEC9D87D64B16DB7C58B20AB 00000000100aeb20     guideXOS.obj
 0005:00008b68       __Str_Available__5BB05495E449BF0D0E8C2E0D9AD1D28CCEDE4A7A9C7D85AF5605D3FE0089C579 00000000100aeb68     guideXOS.obj
 0005:00008b98       __Str_Aval_Nagasaki_Corp_2FA7B87351C6B70E7D56554AE3845608108510999784958F4E3B14CF627E2553 00000000100aeb98     guideXOS.obj
 0005:00008bd8       __Str_Avance_Logic_Inc_D6E0FC63C8F70481CE59EEB6ECD9E4448B3517F8ECEF31ED69404C1E6DEDEB16 00000000100aebd8     guideXOS.obj
 0005:00008c10       __Str_Averna               00000000100aec10     guideXOS.obj
 0005:00008c38       __Str_Avg_response_time__EFF5EC260266EDC95768C59A56EAD4FB718EA901125DEE9B4DD871E9AEEB2204 00000000100aec38     guideXOS.obj
 0005:00008c78       __Str_Avid_Technology__Inc_6328F8C81970AE7D9139D43EADB3D9CC72673F5A8918BD4251CD3E3A82C522ED 00000000100aec78     guideXOS.obj
 0005:00008cb8       __Str_Avlab_Technology_Inc_2E39392D297D62497A41ECB791B466FE18F7E324E4A69121E737F99261F444CF 00000000100aecb8     guideXOS.obj
 0005:00008cf8       __Str_Avocent              00000000100aecf8     guideXOS.obj
 0005:00008d20       __Str_Avsys_Corporation_D16AD7F6D5888DDEE160335D40D3F900ED49E27EEC4AC6A65537199ACCFF6878 00000000100aed20     guideXOS.obj
 0005:00008d58       __Str_Avtec_Systems_Inc_AA94FB54E136659340A03AC19D9919E3E6FFF59533BBFD8AF0920E73F67B7C83 00000000100aed58     guideXOS.obj
 0005:00008d90       __Str_Award_Software_Int_l_Inc_C998D27A54558122D3C8270031B63CEFB74B7CE705DBA9AB35D64EFC542A07FC 00000000100aed90     guideXOS.obj
 0005:00008dd8       __Str_Axil_Computer_Inc_390975726756A014A3CD9F0F16F62DEC89CE20580ACC1CCA30E45DFAF8B2C931 00000000100aedd8     guideXOS.obj
 0005:00008e10       __Str_Axzam_Corporation_C35DC7CDFC73D556C0088837D43EFBD48277B89C5A8940FF7AA2A51B021F8186 00000000100aee10     guideXOS.obj
 0005:00008e48       __Str_Aydin_Corp_86772007F9359756E7DD9795ECD675978F9E45A8157C81E71546D003F230DDA0 00000000100aee48     guideXOS.obj
 0005:00008e78       __Str_Aztech_System_Ltd_2C13180C130A80416CDAF552CBFFA061E346E5D0A7871A1D627B802584942E64 00000000100aee78     guideXOS.obj
 0005:00008eb0       __Str_B_Tree_Systems_Inc_C35FB4BC6F3D38F1FAE2EBE8682431D2C7E501722D9245883248B6A790B81C1F 00000000100aeeb0     guideXOS.obj
 0005:00008ef0       __Str_B2C2_Inc_3379DF9268AE5644D5BAE6E1E495CD495B28C33C703233D86BEF76DB919A87B2 00000000100aeef0     guideXOS.obj
 0005:00008f18       __Str_BAE_SYSTEMS___Manassas_810533FD2262C17CF196B827C8234B8B88B6A440A118637F9E7EE0FB4EB769B0 00000000100aef18     guideXOS.obj
 0005:00008f60       __Str_BCM_Advanced_Research_77117F1666C266E9657B562F96CE060F9A4B1AE5EDD34BD578E89DCDD95C8B35 00000000100aef60     guideXOS.obj
 0005:00008fa0       __Str_BCom_Electronics_Inc_145440EF8CB915D4D00B43B23988C73A814FBF9FBE84071BA6B6CFB309867061 00000000100aefa0     guideXOS.obj
 0005:00008fe0       __Str_BOUND_RANGE_EXCEEDED_EA2ED3FFA61E3D13C3DA713E014306C71A6459C9370CA56147370268FBDCFD9E 00000000100aefe0     guideXOS.obj
 0005:00009020       __Str_BREA_Technologies_Inc_EEF6C73FD4FCCCC5641AE771A03305433304627CC80C42BCED1DECEEA895ED66 00000000100af020     guideXOS.obj
 0005:00009060       __Str_BREAKPOINT           00000000100af060     guideXOS.obj
 0005:00009090       __Str_BUTTON               00000000100af090     guideXOS.obj
 0005:000090b8       __Str_BVM_Limited_97E8477E43E28F543375A343870F4DC0DE5D9398324996DC6D0ADD924EAA5D4E 00000000100af0b8     guideXOS.obj
 0005:000090e8       __Str_Back                 00000000100af0e8     guideXOS.obj
 0005:00009108       __Str_Background_Rotation_DACE3D659AE4077320ADF5C6589F89CC3DF7111F455B15DAD16A5FC7DE9174B2 00000000100af108     guideXOS.obj
 0005:00009148       __Str_Backgrounds          00000000100af148     guideXOS.obj
 0005:00009178       __Str_Backgrounds__8111683C6E0C396619DB585BBAC6F91A02EC49B34EB58CE85A06BB6C09A789A1 00000000100af178     guideXOS.obj
 0005:000091a8       __Str_Bad_signature_EDCEA81C0C2A9D7881EA931BD754BCF6C47AD2C9F6411C66D96882E6F2D9F673 00000000100af1a8     guideXOS.obj
 0005:000091d8       __Str_Baldor_Electric_Company_0C3AD20E22B040755E88B2D9267FD7ECA1D48457B0DF8086B081D271260EA08A 00000000100af1d8     guideXOS.obj
 0005:00009220       __Str_Baltimore            00000000100af220     guideXOS.obj
 0005:00009248       __Str_Banctec              00000000100af248     guideXOS.obj
 0005:00009270       __Str_Banksoft_Canada_Ltd_564B432EB7CD32812A1B9003016FB9E8FF0E824A640424B4938E370DC1885D26 00000000100af270     guideXOS.obj
 0005:000092b0       __Str_Barco                00000000100af2b0     guideXOS.obj
 0005:000092d0       __Str_Barr_Systems_Inc_D50F6ADC1DB65D1709A41B53FA3191C2D99CCF0A4EBF24031935F444B5EA7540 00000000100af2d0     guideXOS.obj
 0005:00009308       __Str_Basler_GMBH_9491185A5D8945C30E4171CFC45257CC5880B11C085E150D73077803C4B02F8E 00000000100af308     guideXOS.obj
 0005:00009338       __Str_Bayer_Corporation_Agfa_Div_D13D6CA244F7D11B2B09BB74766ED094C5530BB9535614B997CFE6C3F2B9263A 00000000100af338     guideXOS.obj
 0005:00009388       __Str_Beckhoff_Automation_GmbH_9E864163B9340143297B67C3919D1BF6B8468FF37E4F73A24A41DF513B095BFB 00000000100af388     guideXOS.obj
 0005:000093d0       __Str_Becton___Dickinson_E21A84E4DE43FFF4F792E810170CEE99A61F7CD8003CD04C0C49D23782ED4BEA 00000000100af3d0     guideXOS.obj
 0005:00009410       __Str_Before_rebooting__you_MUST_rem_9FEE90CC06C1504B678F2564DC28939FB9BD60DC0B066F5181ADD4DA44DA2514 00000000100af410     guideXOS.obj
 0005:00009490       __Str_Behavior_Tech_Computer_Corp_BBFD072C573656F9ACA56F9FBF792B22EB834C59184D01EFF62EEDD8B7C7ECDE 00000000100af490     guideXOS.obj
 0005:000094e0       __Str_Bel_Fuse_Inc_C74F5D115F0DABF7E59820771AB14891F2422A026C2C6CFB98686BC392335AC6 00000000100af4e0     guideXOS.obj
 0005:00009510       __Str_Bell_Corporation_02EC8FAA352D2EED4E0D55EE63A7266C4972077BCEE79461325FD6307B195F08 00000000100af510     guideXOS.obj
 0005:00009548       __Str_Berg_Electronics_89C2CD32BC07E904295C5D4F724A4359BEE5A0D90AB6B969847E43713FF892D6 00000000100af548     guideXOS.obj
 0005:00009580       __Str_Berkshire_Products_F60548076288C62446DA8661BF3048FF7AE065361C0E016DF6A99AAF03775612 00000000100af580     guideXOS.obj
 0005:000095c0       __Str_Bernecker___Rainer_0BB3B4474C07188E5711EAF0AA85D9B69E3AA7EDDC1709F20E7427069587925C 00000000100af5c0     guideXOS.obj
 0005:00009600       __Str_Billionton_Systems_Inc_Cadmus__1FDC6DAFE79FCF214DB7AB37F990C71D29590FB76C725E3983B44F03745F21C2 00000000100af600     guideXOS.obj
 0005:00009668       __Str_Biostar_Microtech_Intl_Corp_606032B572546228A538ED9C3EDCF00289DCFFE4E8AEE9A330FBAC6C585F53E7 00000000100af668     guideXOS.obj
 0005:000096b8       __Str_Biotronic_SRL_585EFBED77D6FFEB903DD7790E969B3240E95D45732E4BFB4166DB244C521D95 00000000100af6b8     guideXOS.obj
 0005:000096e8       __Str_BitFlow_Inc_FD8C397A36577D2A1A939EE721DC909D81C844515FA0878E5D6A92C143AA17CE 00000000100af6e8     guideXOS.obj
 0005:00009718       __Str_Bitboys_OY_F8F09114D7FB88016E563B9FD4F295F647B398E69C7376A463F8E33257179072 00000000100af718     guideXOS.obj
 0005:00009748       __Str_Bitland              00000000100af748     guideXOS.obj
 0005:00009770       __Str_Bittware__Inc_CA35CDC43E311E71FFF61E2B3077DFD485D0D799CD16DD778C0C1992BEA4066C 00000000100af770     guideXOS.obj
 0005:000097a0       __Str_Block_All_87D28070CB7A1669BB0230C6F86F757EE358E26839478E69BD8CF6CF776220E6 00000000100af7a0     guideXOS.obj
 0005:000097c8       __Str_Blocked_by_firewall_5DB9C821AC03EBEBBC901BF38B2F8254F6A032FC524AB4B5028C63D7E75751B0 00000000100af7c8     guideXOS.obj
 0005:00009808       __Str_Blue_Chip_Technology_Ltd_0521FB17E4F8DD330C3B9F4AAE8A2B58CC6F271272CF4A80992F61D7382CB707 00000000100af808     guideXOS.obj
 0005:00009850       __Str_Bluesteel_Networks_Inc_A3A10652B5CC3FB33DEBDFD86EB54B18B80AC6F0C834EAC5A46D7E882FF57A97 00000000100af850     guideXOS.obj
 0005:00009898       __Str_Blur_Cache_Settings_8638F9FF7B1E262D88EE7066D9637DAB9BCAB9F87B17A83C8E2571CCED949975 00000000100af898     guideXOS.obj
 0005:000098d8       __Str_Boca_Research_Inc_5D4E5270B43816F71AF295D1A77A332B218FED49979C0389FD9D41E3A740709B 00000000100af8d8     guideXOS.obj
 0005:00009910       __Str_Boeing___Sunnyvale_12F4179E4AE96112F05756B6EA5862B8A0C6F0E6A762ED36D415789302829D60 00000000100af910     guideXOS.obj
 0005:00009950       __Str_Bootloader_installed_successfu_B59D8CCDDF19565E52B589C8AB684FA841C11F033288CE3B363A8493FE7D00A4 00000000100af950     guideXOS.obj
 0005:000099a8       __Str_Bops_Inc_305AD16260FDDBDC3F743334FE8CBB946695E7D04CCD7DBBD3AC8ED433ADA32F 00000000100af9a8     guideXOS.obj
 0005:000099d0       __Str_Brain_Boxes_Limited_6CE3122D1D1288EAC2E90E3EE230568BF1AACC3B09EF5E3CA5742EB1637B3E3F 00000000100af9d0     guideXOS.obj
 0005:00009a10       __Str_Brains_Co_Ltd_59831DFC6258FFE7599460C2E2646A33A2F05B2FEDB2915B2C7AB51BF18BF277 00000000100afa10     guideXOS.obj
 0005:00009a40       __Str_Braintech_Inc_6BB7A9C49CBFE578D1241018FD00ECE96CBFB8A93A2FBC800D4899072463934F 00000000100afa40     guideXOS.obj
 0005:00009a70       __Str_Bridge               00000000100afa70     guideXOS.obj
 0005:00009a98       __Str_Bridgeport_Machines_992C48F4CD8580326AF93B3F66E5774FC5C8BC46057EAADC0333C6161C5BF7C9 00000000100afa98     guideXOS.obj
 0005:00009ad8       __Str_Broadcom             00000000100afad8     guideXOS.obj
 0005:00009b00       __Str_Broadcom___ServerWorks_3332002CCE2E6387FE87612DEA6620A52894A2553B3C9960D77B70A3506764E3 00000000100afb00     guideXOS.obj
 0005:00009b48       __Str_Broadcom_Corporation_028D00C1E1306498CB4297A1A53BFF96267D60507DDD53F1B4878B864CE4469B 00000000100afb48     guideXOS.obj
 0005:00009b88       __Str_Brocade_Communications_Systems_4D5A77BF14CFCE7DCAEAD6F89EFA2FA655450EC964856BEF2AB7E987963387A1 00000000100afb88     guideXOS.obj
 0005:00009be0       __Str_Brooktree_Corporation_6116EFA032EADEB1F2776E744B3221C2529D4515A17806FD6C75CD49094BDCDF 00000000100afbe0     guideXOS.obj
 0005:00009c20       __Str_Brooktrout_Technology_Inc_6C845C7ADB393A9B65D2C8B032AE2CEF72C65B2EDB50BCED7B4E0CAD2BA5A3FA 00000000100afc20     guideXOS.obj
 0005:00009c68       __Str_Brown___Sharpe_Mfg_Co_D55C38F42A66C51E6BFE93420C4C0CADF57E99A1F13E46F21DFC7505DD7C422C 00000000100afc68     guideXOS.obj
 0005:00009ca8       __Str_Brush                00000000100afca8     guideXOS.obj
 0005:00009cc8       __Str_Bug_Sapporo_Japan_8A1A2AC862473A3057C99B654DAA82BB9552EFFF440F5A1F1F14D308B0A35AEF 00000000100afcc8     guideXOS.obj
 0005:00009d00       __Str_Bull_Hn_Information_Systems_E40AD3C0B1DA4B7E216FD283DE390B64AB9B412B69930157660752A72FF07104 00000000100afd00     guideXOS.obj
 0005:00009d50       __Str_Burn_In_F463C5C3149AEF362A38AFF4DFC10FBC06C0278C47E70BE456AAC0BACE06954F 00000000100afd50     guideXOS.obj
 0005:00009d78       __Str_Burn_Out_4B5C326F0E4E35208DE4137629D1B55D82817E18A81E643FBE0198019FE2C5BB 00000000100afd78     guideXOS.obj
 0005:00009da0       __Str_Burn_Particles__D5C415FCE6AF1097437907A96B38C4B532718523EE24150857DE9967011B0B22 00000000100afda0     guideXOS.obj
 0005:00009dd8       __Str_Burndy_Corporation_25D77770D4D4F6925B3DA471286CDEEB1CA88666536750C565787F6284EB8D9F 00000000100afdd8     guideXOS.obj
 0005:00009e18       __Str_Bus_Tech_Inc_181A3AA962EC3077E5D5039554AA9AB0DD073630295EFCDA671EEFA7735380B3 00000000100afe18     guideXOS.obj
 0005:00009e48       __Str_Bus__C9511BF72058CC11D82AF4993F2C93714ECD6E1AEC2BA34EDA0A07D3A925E213 00000000100afe48     guideXOS.obj
 0005:00009e68       __Str_Button               00000000100afe68     guideXOS.obj
 0005:00009e90       __Str_Button_Demo_F443651B695EFA4C236E903E583AEB19F3D6D5C643395009F3700D1BED5FB19B 00000000100afe90     guideXOS.obj
 0005:00009ec0       __Str_Button_Size_Offset__B2B773A1445148658F657CFCC61233B7E2B0E03BFAE19342F64D0089EA621F67 00000000100afec0     guideXOS.obj
 0005:00009f00       __Str_Button_Spacing__CFC26EAF13F12DE094F1116CEFBFDC37D4B838585D59063E1E45489800AE1C2D 00000000100aff00     guideXOS.obj
 0005:00009f38       __Str_Bye                  00000000100aff38     guideXOS.obj
 0005:00009f58       __Str_C                    00000000100aff58     guideXOS.obj
 0005:00009f70       __Str_C_H_Technologies_Inc_00D8D65422089EAF32F6F03A99AE5AA4E9173ABF07C810DEA6E3DF9BB16D085C 00000000100aff70     guideXOS.obj
 0005:00009fb0       __Str_C_Cube_Microsystems_D1837AEF9A81AC093E55FAA4ECDBDD952736FDC0EDDA5969830304A5A0E3A72A 00000000100affb0     guideXOS.obj
 0005:00009ff0       __Str_C_Media_Electronics_Inc_A6A03E367486EC08BA97F444EE6A0D6DB1664E24D0AF2754CFDD479656C49AAE 00000000100afff0     guideXOS.obj
 0005:0000a038       __Str_C_Media_Electronics__Inc_16E576F9C7657AA3BEC0DBDD136A2AC3C92A2CA0F8EA3730B6983FD37FF766D6 00000000100b0038     guideXOS.obj
 0005:0000a080       __Str_C_Port_Corporation_2D45C3ADCDF439132DFD1D436DFB5877156DCD3CBC6457039ECCAC53FCF7909F 00000000100b0080     guideXOS.obj
 0005:0000a0c0       __Str_CAPS                 00000000100b00c0     guideXOS.obj
 0005:0000a0e0       __Str_CCI_Triad_2E397E444E9C59FFDD4412BD5E14F0122F013372E1451C38AF75C75F51248780 00000000100b00e0     guideXOS.obj
 0005:0000a108       __Str_CE_Infosys_GMBH_E3A9C7568AC692D1E90D31039309F22631E1D0D796B32561109B817BDF86CE94 00000000100b0108     guideXOS.obj
 0005:0000a140       __Str_CERN_European_Lab_for_Particle_4A8F5E90F11371EB379CAD26BA80A92ECD67964945D2BC052BEB42EADFEE9A41 00000000100b0140     guideXOS.obj
 0005:0000a1a8       __Str_CF__0__PF__1__AF__2__ZF__3___80BA88F80A0D1824FA778955625B42C0EA1EF752064DE1492C56B0491AF33B94 00000000100b01a8     guideXOS.obj
 0005:0000a1f8       __Str_CIFELLI_SYSTEMS_CORPORATION_12339E99447D22181F2359F2DBDB5C4682EFBA3950CD096AE972D1F52ECCFE21 00000000100b01f8     guideXOS.obj
 0005:0000a248       __Str_CIS_Technology_Inc_129632CA5A5B2B68F8E8F5323FECDE9F9E8616AEFCE06833FAC0FD9A7A6297C3 00000000100b0248     guideXOS.obj
 0005:0000a288       __Str_CLEAR                00000000100b0288     guideXOS.obj
 0005:0000a2a8       __Str_CLOSE                00000000100b02a8     guideXOS.obj
 0005:0000a2c8       __Str_CMD                  00000000100b02c8     guideXOS.obj
 0005:0000a2e8       __Str_CML_Emergency_Services_73D904FD93C2B26400340756FF8240BFF674D971ADAACC0EFC18A597344392D6 00000000100b02e8     guideXOS.obj
 0005:0000a330       __Str_CNF_Mobile_Solutions_C6B1F5C3F5917561391DEF352A79A6D243D7ABB2AD7449FE1731B7B6955EC0F9 00000000100b0330     guideXOS.obj
 0005:0000a370       __Str_CONTROL_PROTECTION_EXCEPTION_2EA3D21D1591E57C8463760983F310B1EA1546F08A1C5967A02FC6B39ED21209 00000000100b0370     guideXOS.obj
 0005:0000a3c0       __Str_CONTROL_REGISTERS___MEMORY_STA_A6CBAE4E7CA2AF321E084050E52D1FD6D13AAB6E78CCC1DDA8298B446574D4BF 00000000100b03c0     guideXOS.obj
 0005:0000a418       __Str_COPROCESSOR_SEGMENT_OVERRUN_6E3E5BC4603FB761B1A38451292119C21EFD3A7AB6A09CB92A951FA9A0099588 00000000100b0418     guideXOS.obj
 0005:0000a468       __Str_CP_Technology_Co_Ltd_8D8CECD9E91CAD657863C66EF84CE2470F61AF8C74B5112DCD58D42EEE33C055 00000000100b0468     guideXOS.obj
 0005:0000a4a8       __Str_CPU                  00000000100b04a8     guideXOS.obj
 0005:0000a4c8       __Str_CPU_Technology_37051B1D7E41D1F9A4541C719CAF2219E2E07FE7A9EC36F394E28D6A06F4DC6C 00000000100b04c8     guideXOS.obj
 0005:0000a500       __Str_CPU__57673287A7048BE47F0FD37AD8662494C4A6E4B2714C2145C01001E0378F9E45 00000000100b0500     guideXOS.obj
 0005:0000a520       __Str_CPU___0______Time___1__ticks___911D413B8599A65DEDD7D1153350910A71604FCAD24FB1338B5000484F3E8B50 00000000100b0520     guideXOS.obj
 0005:0000a598       __Str_CPU___0___SMP______Ticks___1___2A7EB8089754F3CF48D5E59B2F21B9152D10CA02F7FDDD4EC770E4F64D328986 00000000100b0598     guideXOS.obj
 0005:0000a618       __Str_CR2__Page_Fault_Address___0x_4D2BDF72DFA966619CCA8CA304C76E7BDC988B127145FBF24B83E70204030A3A 00000000100b0618     guideXOS.obj
 0005:0000a668       __Str_CRISC_Corp_335D2375F33257EA5908712E9277B3D520F4E4840892F63B4CBDBA8F28E9DBA4 00000000100b0668     guideXOS.obj
 0005:0000a698       __Str_CSPI                 00000000100b0698     guideXOS.obj
 0005:0000a6b8       __Str_CSS_Corp_A7B5142706924D5AE2E431C6AA66274F495DB8F643B105B5B4A00E93FFC0CF6D 00000000100b06b8     guideXOS.obj
 0005:0000a6e0       __Str_Cabletron_Systems_Inc_6E8313C2799DF5845607844E846636E19B983B82869EB5A5AB3F470B8D356D4F 00000000100b06e0     guideXOS.obj
 0005:0000a720       __Str_Cache_Computer_7726AAC1B4D90A03E25626D353ACFF6BAB1AA96DBD0308C52F2DBCCE2E56EF56 00000000100b0720     guideXOS.obj
 0005:0000a758       __Str_Cacheflow_Inc_893FF8AB4AD8AC7B28540543ED099917AB49173B9242D1ADF1FD7C8F532ED0A8 00000000100b0758     guideXOS.obj
 0005:0000a788       __Str_Cadence_Design_Systems_D75852540155661EFADCB8913ED9CAD32FF8BD6129C1F6F086ECD3D212171F5B 00000000100b0788     guideXOS.obj
 0005:0000a7d0       __Str_Calculator           00000000100b07d0     guideXOS.obj
 0005:0000a800       __Str_Calculex_Inc_ED3FECDF457FA1BB858DA415B000B751E9DDDDA7378965A77A983C009EA34FBB 00000000100b0800     guideXOS.obj
 0005:0000a830       __Str_Calloc               00000000100b0830     guideXOS.obj
 0005:0000a858       __Str_Cancel               00000000100b0858     guideXOS.obj
 0005:0000a880       __Str_Canon                00000000100b0880     guideXOS.obj
 0005:0000a8a0       __Str_Canon_Information_Systems_5BCAB568D01331FC81A8642E31A355A11C2ABBEC49978155C04C9CFE9ABC9B1F 00000000100b08a0     guideXOS.obj
 0005:0000a8e8       __Str_Canopus_corporation_7B6A6ABA4D5FE552F90E34C8FE81B7E88B5B4722A7C06764F201B04697245A76 00000000100b08e8     guideXOS.obj
 0005:0000a928       __Str_Capacity             00000000100b0928     guideXOS.obj
 0005:0000a950       __Str_Capital_Equipment_Corp_859D57F3310220BE58A4DE64401E65655A1AAB3F607564443265FCB5E731B94F 00000000100b0950     guideXOS.obj
 0005:0000a998       __Str_Caps                 00000000100b0998     guideXOS.obj
 0005:0000a9b8       __Str_Carry_Computer_Eng_Co_Ltd_296A7BE57F697885EB0157D3EF1B9B9E66657655E69BAA30AD50AC1B37A920BF 00000000100b09b8     guideXOS.obj
 0005:0000aa00       __Str_Casio_Computer_Co_Ltd_31FA68182BEF840884B859F18538210A9B28A3B98E11D6508800D69034231462 00000000100b0a00     guideXOS.obj
 0005:0000aa40       __Str_CastleNet_Technology_Inc_24E6D986C1D3BDABD064CB62CE3679E67574D2EC6A1D70295BD72E112D990415 00000000100b0a40     guideXOS.obj
 0005:0000aa88       __Str_Catalyst_Enterprises_Inc_2573609F60D811CD390EF4716080E324B7CF818A42E0BF6E04241F12C428A121 00000000100b0a88     guideXOS.obj
 0005:0000aad0       __Str_Catapult_Communications_10C3A886906B40B2DFB060A0CC25C0BD59781F41FE475DAABA3E761B1CF6F64F 00000000100b0ad0     guideXOS.obj
 0005:0000ab18       __Str_Cenatek_Inc_7EF1EE45C955AAC1A79D201A63C27FB3CF06256E7E97D52F67B27F4D071C621C 00000000100b0b18     guideXOS.obj
 0005:0000ab48       __Str_Centillium_Technology_Corp_BB15EB77DB1DFCAE10CDDF4BA4EEADBC5FB08FB479CDA72E07F85E532F0E766F 00000000100b0b48     guideXOS.obj
 0005:0000ab98       __Str_Central_Data_Corp_B36EB9CAEF49B652D2C36196B24A04B9323E83DBADB614687EA68B8D73115C9E 00000000100b0b98     guideXOS.obj
 0005:0000abd0       __Str_Central_System_Research_Co_Ltd_07640EDFA7F46CB2E61AD501CDB3315F4F85E9A5141917F4456A093E9DB5F0AA 00000000100b0bd0     guideXOS.obj
 0005:0000ac28       __Str_Centre_f_Dev_of_Adv_Computing_349F6B6651E166B7126060AD15BFD352A1214D14FF725C870A4781C7EBC634AE 00000000100b0c28     guideXOS.obj
 0005:0000ac78       __Str_Century_Systems_Inc_0CB2F70AF8986EBC870F2B5C73B655ED73F09E67CE5A81848860FA5B8000B06E 00000000100b0c78     guideXOS.obj
 0005:0000acb8       __Str_ChainTek_Computer_Co_Ltd_B7D5D0DA4DE7BA50521CE10AD3B3B74BE14EF46CF27E055E5710F8616B19B5BF 00000000100b0cb8     guideXOS.obj
 0005:0000ad00       __Str_Chameleon_Systems_Inc_C7B80E1CBC4E1F56E43DA864B424EB4CAB27C0605BF633338693A54344813C4B 00000000100b0d00     guideXOS.obj
 0005:0000ad40       __Str_Changed_directory_to___39AFD6E4A83CE842B47313377992954F7C4C4A89A78CF3688CAF41B7BEB51E85 00000000100b0d40     guideXOS.obj
 0005:0000ad88       __Str_Channels__DB7D39B6765E72A1C652E837588E50BFFF4D19227A7DED04AAFE96E626A6E3AD 00000000100b0d88     guideXOS.obj
 0005:0000adb0       __Str_Chaparral_Network_Storage_54FC70A9C28ED1AC0C157CAEAD1D6F0C92807C98672853E2B8D4FB9F18A31A24 00000000100b0db0     guideXOS.obj
 0005:0000adf8       __Str_Chaplet_System_Inc_EB758C5BA788D9F85478712AC5FF0D4250686733E841118D82A371554D5AE9DE 00000000100b0df8     guideXOS.obj
 0005:0000ae38       __Str_Character_samples__CA38BA93994E8F764D2D0F5A69413998194DE2BCA007F942563AF31B1331669A 00000000100b0e38     guideXOS.obj
 0005:0000ae78       __Str_Chase_Research_PLC_1A9C9287F1DB7228FBDC6B6E6C22EA49ADEE73B07A823A5B7CFA76F153030E98 00000000100b0e78     guideXOS.obj
 0005:0000aeb8       __Str_Check_Font_Before_Render_ADEA57B2A883E1AE3F2161582834D08B145551CCAC5585B682C10CA8832735FA 00000000100b0eb8     guideXOS.obj
 0005:0000af00       __Str_Check_Framebuffer_Before_Rende_92712E72985482CE8089E16F6D8F422B441BA9624EFAEEFCD5693508B4CC8E9E 00000000100b0f00     guideXOS.obj
 0005:0000af58       __Str_Chelsio_Communications_B21580930ADF6FE0183A93803FA59E419865B129B2A1EFA596EE9E28A1ECC6EC 00000000100b0f58     guideXOS.obj
 0005:0000afa0       __Str_Chicony_Electronics_Co_113BDCCDAEFD2BA841E4F090062A3063C68DDB251094BDF61C490959BA41B30E 00000000100b0fa0     guideXOS.obj
 0005:0000afe8       __Str_Chicony_Electronics_Co_Ltd_F7E6DF03605A4DA166456D944C71E294696D960480B250FA3208A64E16FE779B 00000000100b0fe8     guideXOS.obj
 0005:0000b038       __Str_Choose_Color_226D556CEDC6D26103C66576EC0B3C0B1407F632E7B08C5D699CC098E05ABDA6 00000000100b1038     guideXOS.obj
 0005:0000b068       __Str_Choose_the_disk_where_guideXOS_0C321BC6B1769951F2D84919650B35C2AA44FAC98F37C061E8F6AD0C02BBDC50 00000000100b1068     guideXOS.obj
 0005:0000b0e0       __Str_Chori_Joho_System_Co_Ltd_2C550385A9240A01B09CF799F10BB5D33F5C12090DA8983A58A116F7689A5BD3 00000000100b10e0     guideXOS.obj
 0005:0000b128       __Str_Chromatic_Research_Inc_5CD36F3E9D33F1C686FE08E8C75770E1A7F1456DF628487A2170B6E13E1B11A8 00000000100b1128     guideXOS.obj
 0005:0000b170       __Str_Chrysalis_ITS_4045CC5D648CBC7F4957E36B037728708B42017DFF6D0E9CA319B29B2C2D1034 00000000100b1170     guideXOS.obj
 0005:0000b1a0       __Str_Cimetrics_Inc_CFDEA821CF7755B68285056361B5FFAA899F3CF21F0488B15B6452BD86B8A137 00000000100b11a0     guideXOS.obj
 0005:0000b1d0       __Str_Cincinnati_Milacron_619211338F2E72D7BACDE8B141D07A5D69F2F96E212F911372B2FA0051A66E80 00000000100b11d0     guideXOS.obj
 0005:0000b210       __Str_Cipher_Systems_Inc_65BA90BB09D90D0611F31C5ED6F07619495CF3E6079145719487C3A9DAE71F74 00000000100b1210     guideXOS.obj
 0005:0000b250       __Str_Circle               00000000100b1250     guideXOS.obj
 0005:0000b278       __Str_Circut_Assembly_Corp_259DDB791AF93F2C893A3863387BFCD0E72042FB46D69E6B89BFAF19E97BCD69 00000000100b1278     guideXOS.obj
 0005:0000b2b8       __Str_Cirel_Systems_1573608F9028E81DB10A9FCF4F25251975B4738ED4B6F79C3AC93C60AE9E6C0E 00000000100b12b8     guideXOS.obj
 0005:0000b2e8       __Str_Cirrus_Logic_88842AEAC46B4F71259EDBB3AD6D5565B334C78C068C6DF53ED47625FD221B63 00000000100b12e8     guideXOS.obj
 0005:0000b318       __Str_Cisco_Systems_Inc_559B0E59B454DB3D287B7CB0233E41DF20C6388EE0587E3BB24D2611AEBAE550 00000000100b1318     guideXOS.obj
 0005:0000b350       __Str_Citrix_Systems__Inc_6528285C8AD078281D6EB300FDCAD9E14609F2B40150FF4B0BE9C5A0E1AFD6B1 00000000100b1350     guideXOS.obj
 0005:0000b390       __Str_City_Gate_Development_LTD_6C3639585A7F68125C6C120873635512D5ECA7E4F6FAF3B77CA2E8F4291619BF 00000000100b1390     guideXOS.obj
 0005:0000b3d8       __Str_Clarion_Co_Ltd_B7C009FD7AAC79D4C4D4F24B62705444EA42F83F2253527FB997E1B4F186FB7F 00000000100b13d8     guideXOS.obj
 0005:0000b410       __Str_Class___211313BA466E26CCC613A2948D17D09F1598AF8EF7C72A5E7B5645977A073861 00000000100b1410     guideXOS.obj
 0005:0000b438       __Str_Clear                00000000100b1438     guideXOS.obj
 0005:0000b458       __Str_Clearwater_Networks_12E37D07748FD2624BAC57D8EA8BD888DA627BB0BB8AE807B5D192A76B28EA83 00000000100b1458     guideXOS.obj
 0005:0000b498       __Str_Cleveland_Motion_Controls_08C4D4CEAA6CE4AFD320AADBD9A57FBEAA0BCFBC09A158BB03B5D38EA28EA36A 00000000100b1498     guideXOS.obj
 0005:0000b4e0       __Str_Clevo_Kapok_Computer_D65A58D2C260E5BAD5A332DB59966511AE9792E7B83F1E1C5742D19F7A0ACDE6 00000000100b14e0     guideXOS.obj
 0005:0000b520       __Str_Click_Next_to_begin_installati_B233103A06DB510535738C3A98F765CFD51C5373E3B4B1AD0BE94D3E03AFE77F 00000000100b1520     guideXOS.obj
 0005:0000b5b0       __Str_Click_Next_to_continue__E0EC6FFEC8FBF9269BD73DA06FAB8913818932CE1C4E5145F740BE6F3E062A21 00000000100b15b0     guideXOS.obj
 0005:0000b5f8       __Str_Click_or_Enter_to_switch___ESC_91568C18A4AAA5CAFCE02A204D1A612A2EE628F7D8A639F9281F62A3C6D35042 00000000100b15f8     guideXOS.obj
 0005:0000b6b8       __Str_Click_the_Reboot_button_below__FA8CC98F5F8DDB1B67A5EE25AE63B51D5523ACE61E9C62795B7A7D410FDCB5D6 00000000100b16b8     guideXOS.obj
 0005:0000b738       __Str_Click_the_buttons_below__A69975FFBA97EF626EFE714BB4CA9784AB17D2812AA53838E6D07D7CB6EDAAB5 00000000100b1738     guideXOS.obj
 0005:0000b780       __Str_Client_accepted___DD1667D30A9532E81F62F156969FE73E77C3027B4F909B450F85F225A50584F1 00000000100b1780     guideXOS.obj
 0005:0000b7b8       __Str_Clock                00000000100b17b8     guideXOS.obj
 0005:0000b7d8       __Str_Close                00000000100b17d8     guideXOS.obj
 0005:0000b7f8       __Str_Close_Window_6B0EF05FC2DF831692075C1CD9315AC2D89280CE952588112DD0898454A2E1B0 00000000100b17f8     guideXOS.obj
 0005:0000b828       __Str_Cloud                00000000100b1828     guideXOS.obj
 0005:0000b848       __Str_Co_Time_Computer_Ltd_CDA455C0ED4694F13A334B81B77ADA95C18A718B222B960DC26CA358B832CD45 00000000100b1848     guideXOS.obj
 0005:0000b888       __Str_CoSystems_Inc_236E105E5E48D1E6FAA533100BEA66B4A9D1F9B9DE504C8C3A4B387F13B241B6 00000000100b1888     guideXOS.obj
 0005:0000b8b8       __Str_Cogency_Semiconductor_Inc_0C5BAEAB4D1B59563F4C6F08FE83D08212F88134EEFA6E242DFA05C9E74083C8 00000000100b18b8     guideXOS.obj
 0005:0000b900       __Str_Cognex               00000000100b1900     guideXOS.obj
 0005:0000b928       __Str_Cologne_Chip_Designs_GmbH_023F69251752EE7B32FC6B4C0AE441F29911598B865C0C88B1A189F6E1972722 00000000100b1928     guideXOS.obj
 0005:0000b970       __Str_Colorgraphic_Communications_Co_84E26AC6434B831CC211BD918490D3C2B78B43115F69C4F9B107EEE117F3F2FE 00000000100b1970     guideXOS.obj
 0005:0000b9c8       __Str_Comartsystem_Korea_907E818EFB50DC3E8240EFE7CF0E63A272B1AC078EE211AA014A58E518D72C4B 00000000100b19c8     guideXOS.obj
 0005:0000ba08       __Str_Combox_Ltd_D2DA7FEC223F3FB42A17F56712F3BE07E62F2E95C24B02E69E0F957D02BFF049 00000000100b1a08     guideXOS.obj
 0005:0000ba38       __Str_Commands__help__pwd__ls__ll__c_9A286687EA6E4FEB0FED2CAC0CC9D5D5DD6B43693AC1CB645A0D15C901079610 00000000100b1a38     guideXOS.obj
 0005:0000bd28       __Str_Common_Causes__DBC1A374FF497670A27DE6000C9D29F2CBE362B79429489CB87756A59A2D837D 00000000100b1d28     guideXOS.obj
 0005:0000bd60       __Str_Commtech__Inc_6A946A9D609DD530E452CABA40028B4000440B9A7B2C8D1C7CEA88BAE7BEBED2 00000000100b1d60     guideXOS.obj
 0005:0000bd90       __Str_Communication_controller_5F60BEE8F6D6D54F479E11E5535BBB24AB8AF9BD14F5227E8861FD2C3AE048B9 00000000100b1d90     guideXOS.obj
 0005:0000bdd8       __Str_CompCore_Multimedia_Inc_DD63F55C50ABD8A6D6AC112F209D8F381274B19837C1C4E1E700812BE28282C6 00000000100b1dd8     guideXOS.obj
 0005:0000be20       __Str_Compal_Electronics__Inc_1A7953F2EFD813AE66502FE2563FB8573AEE6FD6D8CAD8FFCEB028FAAD3226E1 00000000100b1e20     guideXOS.obj
 0005:0000be68       __Str_Compaq_Computer_Corp_CB09C8BB9A6F37E04F0FD60A4CE0B4E7C36270D9A47E4F911C78A9EDAE8BDF9F 00000000100b1e68     guideXOS.obj
 0005:0000bea8       __Str_Compression_Labs_Inc_02337C0018900CE28F9EDA463470E5EC35E7727BEA95A5908B362870A576C203 00000000100b1ea8     guideXOS.obj
 0005:0000bee8       __Str_Compumaster_SRL_CE1847802402D672634062CABE723751B132C2752415CCE391360411CF33A7AF 00000000100b1ee8     guideXOS.obj
 0005:0000bf20       __Str_Computer_Files_96AD91D90D4A75A126DA80D87617150BC295005D6FD5B36242E1D929E793AA70 00000000100b1f20     guideXOS.obj
 0005:0000bf58       __Str_Computer_Files____F515072A7EB021F07FF4E774B53C3980DE01F9508195448205C7E4799716722D 00000000100b1f58     guideXOS.obj
 0005:0000bf90       __Str_ComputerBoards       00000000100b1f90     guideXOS.obj
 0005:0000bfc8       __Str_ComputerFiles        00000000100b1fc8     guideXOS.obj
 0005:0000bff8       __Str_Computerm_Corp_76F24DE9587ED5B8A989EC6006A703F807CE3CA4AE9657716E5B9F532E06EBF8 00000000100b1ff8     guideXOS.obj
 0005:0000c030       __Str_Computervision       00000000100b2030     guideXOS.obj
 0005:0000c068       __Str_Computex_Co_Ltd_55358C8D83655556401657E4E257BC39D8D37256F530E5CB45C84F3AD6AE6975 00000000100b2068     guideXOS.obj
 0005:0000c0a0       __Str_Computing_Devices_Intl_DAE16844DD24E27825FB3ADBA1D92572296A1526A324282399215F7ECA2BD167 00000000100b20a0     guideXOS.obj
 0005:0000c0e8       __Str_Computone_Corporation_5157206532DFB01507F8B0E61374601A80429BDA76067387AEF70F9261ED487F 00000000100b20e8     guideXOS.obj
 0005:0000c128       __Str_Computrend           00000000100b2128     guideXOS.obj
 0005:0000c158       __Str_Comstream            00000000100b2158     guideXOS.obj
 0005:0000c180       __Str_Comtrol_Corp_9B1B16F385D86E7B8CE641D4E7FE3AE3B410E0D40CB72306697C1C55A2971F0C 00000000100b2180     guideXOS.obj
 0005:0000c1b0       __Str_Concept_Development_Inc_924B7D6B1DCBD02B85B1790C8700FC7E6FEED9126799CB02F1B0968565A8929B 00000000100b21b0     guideXOS.obj
 0005:0000c1f8       __Str_Concurrent_Technologies_Inc_3F9B2915BA66056AFE01B91769460381BA3EA73D4FA854AC842AACF2CC380AF2 00000000100b21f8     guideXOS.obj
 0005:0000c248       __Str_Conexant             00000000100b2248     guideXOS.obj
 0005:0000c270       __Str_Configure            00000000100b2270     guideXOS.obj
 0005:0000c298       __Str_Confirm_Shutdown_07361814253028D7D6E1D7940A09234C82CC107B185BE3D8B28D8237B9A749D8 00000000100b2298     guideXOS.obj
 0005:0000c2d0       __Str_Connect              00000000100b22d0     guideXOS.obj
 0005:0000c2f8       __Str_Connect_Components__Ltd_605F9302D2593C478820926A7BD04E1A67F1CD2330E74226ACD2CFB61A3282DD 00000000100b22f8     guideXOS.obj
 0005:0000c340       __Str_Connect_Tech_Inc_2B28BA21625F918E7A14B76AE2A9FF761F61AE84387B5919D6CBA3D3ED9C1398 00000000100b2340     guideXOS.obj
 0005:0000c378       __Str_Connect_timeout_116D254546AC515A94E70A9109992035A954E4FB289787BF926EB770406791AC 00000000100b2378     guideXOS.obj
 0005:0000c3b0       __Str_Connected            00000000100b23b0     guideXOS.obj
 0005:0000c3d8       __Str_Connected_USB_Mass_Storage__464989A24D33FBD6AAD8CC164234BD716881A6241F50D1BB5475B1EA10B68535 00000000100b23d8     guideXOS.obj
 0005:0000c428       __Str_Connecting____C4D13E342C7E1383B154B56FE6583AE8191D3A826E2F3B5407632C33CC4345CF 00000000100b2428     guideXOS.obj
 0005:0000c458       __Str_Connection           00000000100b2458     guideXOS.obj
 0005:0000c488       __Str_Connection_Established__0252720322F1A3315F0A67428AE8A68DF6EAF2794810E5C0A4FC2C75A08D09A5 00000000100b2488     guideXOS.obj
 0005:0000c4d0       __Str_Connectware_Inc_39920F70A20830A9925D912A53DF12231FD172599C3F5AE91949DAC154172E31 00000000100b24d0     guideXOS.obj
 0005:0000c508       __Str_Console              00000000100b2508     guideXOS.obj
 0005:0000c530       __Str_Console_____D375A68CF90FDC4D85C84171C233E5A1EE02496531BFB15A34257DF0FD1868AF 00000000100b2530     guideXOS.obj
 0005:0000c560       __Str_Contec_Microelectronics_Europe_D7FDC0268B12245593970B296D61D29502C5F42CA4D1E476356E1F129117C44D 00000000100b2560     guideXOS.obj
 0005:0000c5b8       __Str_Contemporary_Controls_6BB8FE3B732C4DE81521FA518412D990E474E54459784B1CA479AE7E1F6691FF 00000000100b25b8     guideXOS.obj
 0005:0000c5f8       __Str_Content_Length_10627CCBE77120E4DD1354CF079BE3CFC961A373BA32033A1DF0A1A87D7D9D76 00000000100b25f8     guideXOS.obj
 0005:0000c630       __Str_Content_Length__5D2CC77D1E4D13F2C3C7F62CCB071163F3B3D6FEB032C15A41C4F6297BD55BB7 00000000100b2630     guideXOS.obj
 0005:0000c668       __Str_Content_Type_C546411CDE4BBCFCA1AA6EB8D9F74E18FED14EEF1FCCC98A688E9A9F1DCE31CB 00000000100b2668     guideXOS.obj
 0005:0000c698       __Str_Control_register_info_unavaila_4105FAC182A91746E5D648D0307C522B22F71A1CE47F9410E4C2F7EA1CEF62C3 00000000100b2698     guideXOS.obj
 0005:0000c6f0       __Str_Coprocessor          00000000100b26f0     guideXOS.obj
 0005:0000c720       __Str_Copying_boot_files____736C2885BBA685AB742DC5BDBE1EC570C278D86E5DF310C337403EC6E1BE335B 00000000100b2720     guideXOS.obj
 0005:0000c760       __Str_Copying_system_files____CDA80CA481B25895DFADA89AA0E7BBF519677EA2EBD79E0B587852D4C84C2817 00000000100b2760     guideXOS.obj
 0005:0000c7a8       __Str_Copying_system_files_____this__B0F44210235E7C04152F06369078E01AC4F4991D6A9FA0925C4C698A590438D7 00000000100b27a8     guideXOS.obj
 0005:0000c820       __Str_Copying_system_partition____65DB4B6B8CF0F36421A05023FDE04E5C0BA62FBB98B167130B6CB880ADF59265 00000000100b2820     guideXOS.obj
 0005:0000c870       __Str_Copying__0__files____A5B526F8590AD79B7C6F1BA96CC19A585FC58C05134013B7A0CF7B957B3CC20F 00000000100b2870     guideXOS.obj
 0005:0000c8b0       __Str_Coreco_Inc_D58E64C22831FE459B051E17F4FCC8C93EE6F2914450A2C23641AEEC43690098 00000000100b28b0     guideXOS.obj
 0005:0000c8e0       __Str_Cornerstone_Technology_16FCE7B884C8C5CDD567D4B278B49977CF3F36F66F62030D0120B39AC628B9BC 00000000100b28e0     guideXOS.obj
 0005:0000c928       __Str_Corollary_Inc_55EAFFD8070E4C7906E790E7F4C71C12B282621BA678351A9645DB78F731DCF6 00000000100b2928     guideXOS.obj
 0005:0000c958       __Str_Could_not_read_Roboto_Regular__6B39C0521FC2E402AA55A28F7F7E56BE620AD030832E71FA144A93C5047555C6 00000000100b2958     guideXOS.obj
 0005:0000c9b0       __Str_Coyote_Technologies_LLC_FAACA481485942666FEF82A74F1DEBEFF7442577C9C7EC153D28D24A1A976A5F 00000000100b29b0     guideXOS.obj
 0005:0000c9f8       __Str_Crash_at__75707F61ED40F4E9E9B22B895DF650B06A2B21B9B31E2A0CE6988B413C61512A 00000000100b29f8     guideXOS.obj
 0005:0000ca20       __Str_Cray__Inc_D4135B9D59C2CFC44D7D8F99177FE420B247C8E7CF94B3E7C4884D879FBA8607 00000000100b2a20     guideXOS.obj
 0005:0000ca48       __Str_Creamware_GmbH_D7235B2CEB02F974FBA18A580EB0BD27BBC306F9F1FA279483CC8E091D3E26C2 00000000100b2a48     guideXOS.obj
 0005:0000ca80       __Str_Create_Test_Window_749D983460D046DE8BCD70E3108CAE5EF9C529C4B080A98A7067C7E1571D7DDF 00000000100b2a80     guideXOS.obj
 0005:0000cac0       __Str_Create_partition__largest_free_D9116158AA9DDE3A539303B3549A3375B7DFE5877F62BE9C3834435743BE3FC4 00000000100b2ac0     guideXOS.obj
 0005:0000cb18       __Str_Creative_Electronic_Systems_SA_647745EDE8816DCDAB3907068ACFA8663FDD58300EE0D857D4C90C5C600DE7CE 00000000100b2b18     guideXOS.obj
 0005:0000cb70       __Str_Creative_Technology_LTD_338937889A086827E9BAB453E6F2A6DABB288315B49D569DC346927B7AEBAC4D 00000000100b2b70     guideXOS.obj
 0005:0000cbb8       __Str_Crest_Microsystem_Inc_8D65DC2C3C2692684E00C6F221C4B8DFE74E95C926BB84BF08CCF401AA956C71 00000000100b2bb8     guideXOS.obj
 0005:0000cbf8       __Str_Critical_error_in_main_loop_9740B725EFF8876D2CA77ED960A9AF2DEF2CAD6CA39BC1E81D9378C4F08976F8 00000000100b2bf8     guideXOS.obj
 0005:0000cc48       __Str_Crosfield_Electronics_Ltd_918C9D72C2F137727379BFB0A94A9018BDA7CCF60F62ED911BF746321DAEB3F8 00000000100b2c48     guideXOS.obj
 0005:0000cc90       __Str_Crosspoint_Solutions_Inc_49FD00031F5B20EEE67D8B475442B014F7437EA4676A8858EA404905BFCF96A2 00000000100b2c90     guideXOS.obj
 0005:0000ccd8       __Str_Cryptek              00000000100b2cd8     guideXOS.obj
 0005:0000cd00       __Str_Crystal_Group_Inc_C83F407304DA54211C8C852302898C41E0683C6403372EB7D0E08F763AC0ED0E 00000000100b2d00     guideXOS.obj
 0005:0000cd38       __Str_Current_Pages_in_Use__1949B19DF9507E912AA48383423DCC73C09F250AC8008A988BC4A3E301F6EAD9 00000000100b2d38     guideXOS.obj
 0005:0000cd78       __Str_Current___65757E90C99230DA2577C948EF17EFB0FB014052105E135C34CC251761153687 00000000100b2d78     guideXOS.obj
 0005:0000cda0       __Str_Curtiss_Wright_Controls_Electr_DB890332E26A3683CEBB5293F9B6FCF8EB1B7FDC9196175A13A50F69BD302B23 00000000100b2da0     guideXOS.obj
 0005:0000ce10       __Str_Curtiss_Wright_Controls_Electr_BFD39866ACB6D65C79474DB293C0AA4E026E5268A98A2F88D877514B21B35D2A 00000000100b2e10     guideXOS.obj
 0005:0000ce80       __Str_Curtiss_Wright_Controls_Embedd_DF77DDCBDC595D916AB21BE69396C676BFAC221609E2FBAC454796CC34B39F74 00000000100b2e80     guideXOS.obj
 0005:0000cef0       __Str_Cyberdyne_Inc_3FCE5670C9B95B9442C2EFBB0F072B39D4C2C8013DB5F59414F835D28534ABC2 00000000100b2ef0     guideXOS.obj
 0005:0000cf20       __Str_Cyberfirm_Inc_5F5235C29179423863E34A3CF3EEE7CE02639762AFC81CE417E379F5C8361852 00000000100b2f20     guideXOS.obj
 0005:0000cf50       __Str_Cybernetics_Technology_Co_Ltd_282D6C38DCE3B47C64186087D53F199B78D64142FA00E2E1C4D50FEB08D4CC80 00000000100b2f50     guideXOS.obj
 0005:0000cfa0       __Str_Cyclades_Corporation_A93BDFCD8002D8E59A393EBF8B9B854DF9D2F7A1AE82509D42C8CE0408C16BF6 00000000100b2fa0     guideXOS.obj
 0005:0000cfe0       __Str_Cyclone_Microsystems_Inc_6132F632416B7256FEE0E65D93B56D4A83C9D68EB200CCC1B80C8826276D651A 00000000100b2fe0     guideXOS.obj
 0005:0000d028       __Str_Cylink               00000000100b3028     guideXOS.obj
 0005:0000d050       __Str_Cypress_Semiconductor_98603700CF5C10ECB46D0CF96B5A8FEB1347B0558512D16B9B53B81C2ED37CD3 00000000100b3050     guideXOS.obj
 0005:0000d090       __Str_Cyrix_Corporation_75E1C9F377A9E29158F1207CDE83D3B47200E51E4D84A1C93E4B291046E5A39F 00000000100b3090     guideXOS.obj
 0005:0000d0c8       __Str_Cytec_Corporation_74AE665D9EF1E2C2E666BAC9936B30CD0CD7BF8D039FC3B8D08C91814D0B16B4 00000000100b30c8     guideXOS.obj
 0005:0000d100       __Str_D_Link_Corporation_205FF0AE30CDC4D4E0C55DB05406713A7A0FCFED450AF241644856641471ED04 00000000100b3100     guideXOS.obj
 0005:0000d140       __Str_D_Link_System_Inc_8D9666101E033E4A5FD9289A5F2011B51B62BDD86C96190A66708CFC7BEFF3B2 00000000100b3140     guideXOS.obj
 0005:0000d178       __Str_D_MAX_6E213982A44681D862A76BBB755140B591CD50650F07F0EA4D72E68552C660B1 00000000100b3178     guideXOS.obj
 0005:0000d198       __Str_DAQDATA_GmbH_BA24ED6288C5166D17757777D08E52C29602146CC01053086F8B46F956891D8F 00000000100b3198     guideXOS.obj
 0005:0000d1c8       __Str_DCM_Data_Systems_B4E78F6C4DE17B209FAA1020E5AC7AB426C0BF122476686865EB76F0C7CDCB88 00000000100b31c8     guideXOS.obj
 0005:0000d200       __Str_DCM_Technologies_Ltd_AD173249DCEB0E02EA6D83D4C68B1B2870A5624EF6FC292641933AF5AB63D3A9 00000000100b3200     guideXOS.obj
 0005:0000d240       __Str_DDK_Electronics_Inc_A2A9EEB330ABEA8EEE23838241D8D5F7224A4FC30D536B7F6AB466AC97C3AF28 00000000100b3240     guideXOS.obj
 0005:0000d280       __Str_DDRdrive_LLC_6A779D815A7CAFC435862D4B83338A1D4B1F9CD0F77A6E715FBE17ABBCA190B7 00000000100b3280     guideXOS.obj
 0005:0000d2b0       __Str_DEBUG___SINGLE_STEP_A82273842CF6A0917CF4C1A2B78D5DDB4468F37E944C7A6B8D07C885106845CE 00000000100b32b0     guideXOS.obj
 0005:0000d2f0       __Str_DEVICE_NOT_AVAILABLE_CFED29FA53A1ABE7839AE9918E03034B92B8C8159C724119CF1848B20D83AA11 00000000100b32f0     guideXOS.obj
 0005:0000d330       __Str_DFI_Inc_E7A961C05113CDE59260224B2643DB2DC8B39C010FE3BC42DD08BE24093A8109 00000000100b3330     guideXOS.obj
 0005:0000d358       __Str_DH_electronics_GmbH___Sabrent_89A6D130F547F69ADD307FCA7242610F0BFA4D30CD953B10B71421556565AE3F 00000000100b3358     guideXOS.obj
 0005:0000d3a8       __Str_DIVIDE_BY_ZERO_35A15510F680DC765661E0D29DFAD7145E1665F9617FC031C21ECB78DB53A063 00000000100b33a8     guideXOS.obj
 0005:0000d3e0       __Str_DLoG_Gesellschaft_f_r_elektron_FB167874471EE01087CE3394AF93B8B506E221239B9E9D44F49DDB578DC301C9 00000000100b33e0     guideXOS.obj
 0005:0000d460       __Str_DNS_error_E3D239F440820F397C09E130A101C45B9449F6328B935C72E5A9B38B56B53FA2 00000000100b3460     guideXOS.obj
 0005:0000d488       __Str_DNS_failed_38133480EA56DE6C629E456BAC2C3AE4584D9DF48CE51EC6161E688EBD2937B2 00000000100b3488     guideXOS.obj
 0005:0000d4b8       __Str_DOUBLE_FAULT_D7745D19D21BED4FCAE5949B361E7C3770F0F6F00771FC35E0C922926FC4F820 00000000100b34b8     guideXOS.obj
 0005:0000d4e8       __Str_DROPDOWN             00000000100b34e8     guideXOS.obj
 0005:0000d510       __Str_DSC_Communications_FB98387705ED8240B1B2D706FD4017D3F6A6ABB94BA02E5D58C70DD917D85C00 00000000100b3510     guideXOS.obj
 0005:0000d550       __Str_DSP_Research_Inc_01DF1921B156ECF68093AFA42E6B6BE5E355D8FE6ACC68943F65AFCE6AA831CD 00000000100b3550     guideXOS.obj
 0005:0000d588       __Str_DTC_Technology_Corp_D0C115E6DE03EEF15832BD4D47161C2AA42E11719CD6644B0D4A6C0E35B08894 00000000100b3588     guideXOS.obj
 0005:0000d5c8       __Str_DTK_Computer_B16E0809556F88B648C2855C0BBCEF9A8E397891F1507E4368F23CCBC7794AE6 00000000100b35c8     guideXOS.obj
 0005:0000d5f8       __Str_Daewoo_Telecom_Ltd_BCADCF17418474AEF764DEF1EE650A6E149E7CF12A1007091783D0201DE91A5E 00000000100b35f8     guideXOS.obj
 0005:0000d638       __Str_Dainippon_Screen_Mfg_Co_0D172685807961C3A663D4BB8A44B936BF834F5F04FD34F2BF4499B12EA8353A 00000000100b3638     guideXOS.obj
 0005:0000d680       __Str_Dallas_Semiconductor_E1BBDA5B471FAE147CAD36462175E0FE95981BE6FFEE07CF44CE5AA8B62110E3 00000000100b3680     guideXOS.obj
 0005:0000d6c0       __Str_Dapha_Electronics_Corporation_F6568CB494C025942D96E63ED7133212586AE50CBAA8E316E54C6BAD961FB5BD 00000000100b36c0     guideXOS.obj
 0005:0000d710       __Str_Data_General_Corporation_B05357BB42C658D2DDC7B258ACF020A6D7BF0545686DE30776B6225FB4C0FC05 00000000100b3710     guideXOS.obj
 0005:0000d758       __Str_Data_Kinesis_Inc_0EB8781ACAA6C7E35BC1CDF578978F252EC812D3C166B3AF634413DBC8CDB5F2 00000000100b3758     guideXOS.obj
 0005:0000d790       __Str_Data_Race_Inc_CF3DFC7EF6F6A0D22DBFC7A46107385323C371F03F52EBDC6789A9DA526C3E2F 00000000100b3790     guideXOS.obj
 0005:0000d7c0       __Str_Data_Technology_Corporation_C5629D40BC5457B98BA0FE4DF936B8D6904AB1AF81885654459F2FD44839C86D 00000000100b37c0     guideXOS.obj
 0005:0000d810       __Str_Data_Translation__Inc_D6764C1B6811EC294EB69ACA6D2B5D9121F46451BA3DBB4D3D743592A379AFAC 00000000100b3810     guideXOS.obj
 0005:0000d850       __Str_Databook_Inc_5F3C0E31CFCCF6E69958D69BB35153C6F592F6A16DA0CD089C247C37992A9E07 00000000100b3850     guideXOS.obj
 0005:0000d880       __Str_Datacube_Inc_BCE46DDBA07361263390F5DAC4AEAC2F5AEACFFF4DE726FFCBD1F31F8888B546 00000000100b3880     guideXOS.obj
 0005:0000d8b0       __Str_Dataexpert_Corporation_DEE4F76463189DBC0F5A823E36013C8A5D59AA26001FA8319F181C97F965A475 00000000100b38b0     guideXOS.obj
 0005:0000d8f8       __Str_Datakinetics_Ltd_0EE5ADDDB3842AC474C7CF514283469F1DA58CE8BA84AFEF9F0BC6240EB19388 00000000100b38f8     guideXOS.obj
 0005:0000d930       __Str_Datalex_Communcations_38D4CAD5D5AB7E88A56B0951E48E27F12076D1845D38D2F2F5E694E9DAC7FC83 00000000100b3930     guideXOS.obj
 0005:0000d970       __Str_Datavoice__Pty__Ltd_E07C1BA3FE3CCCE4CD8C6511FE2B8B8D5BA9D8A2B76ADB2D78FA7A67BCDACF06 00000000100b3970     guideXOS.obj
 0005:0000d9b0       __Str_Dataworld            00000000100b39b0     guideXOS.obj
 0005:0000d9d8       __Str_Datel_Inc_CBBC6ED21BA5FF2CEDD5326DDA8CD97606D250D7715B2593FFA0AA36F8E98565 00000000100b39d8     guideXOS.obj
 0005:0000da00       __Str_Datum_Inc_Bancomm_Timing_Divis_3A4F80CE9D44917BCD020D931F26C48010D7F419C478FD8B5AC54E2A53ED5874 00000000100b3a00     guideXOS.obj
 0005:0000da58       __Str_Davicom_Semiconductor_Inc_DF9DDCBCD1F5E29062C025AB0A74B757CE612879774E3C46A7DB1D6D96A2A2DC 00000000100b3a58     guideXOS.obj
 0005:0000daa0       __Str_Dawicontrol          00000000100b3aa0     guideXOS.obj
 0005:0000dad0       __Str_Dazzle_Multimedia_Inc_91F1F7EC8AC67383E8AB13E34476FAE00BF5B7BA7BF1EEC4A2320FEE097FD635 00000000100b3ad0     guideXOS.obj
 0005:0000db10       __Str_De_rezz__Tron__C90310CE569DE31770F5EFB51462B6DBCED4FFEDC06D7821CC2A7EE26685B4C0 00000000100b3b10     guideXOS.obj
 0005:0000db48       __Str_DebugWrite           00000000100b3b48     guideXOS.obj
 0005:0000db78       __Str_DebugWriteLine       00000000100b3b78     guideXOS.obj
 0005:0000dbb0       __Str_December             00000000100b3bb0     guideXOS.obj
 0005:0000dbd8       __Str_Decision_Computer_Internationa_B1CFBB100B7B0871C487C645DB166195990F2910DFEFDA9037D6159303580128 00000000100b3bd8     guideXOS.obj
 0005:0000dc38       __Str_Decros___SICZ_as_0BF4B9911B45299A9682EB2D41B22322D3354F7431CF038F4009B5071DBA980E 00000000100b3c38     guideXOS.obj
 0005:0000dc70       __Str_Default_Refresh_Rate__0D48A784C0CF7EAABF53DA361D8A87ED3D40FE1ED24B86436FF4D51BBC7ED2DF 00000000100b3c70     guideXOS.obj
 0005:0000dcb0       __Str_Default_gateway__A51C0B57D910422CDCCA47A68A68708ABFEBB6D192A5D6FE0AD728FDF60E5E57 00000000100b3cb0     guideXOS.obj
 0005:0000dce8       __Str_Dell_Inc_85EC5932B450212AB21DB0422EC8A083142A404AC81C2B44E224992E9555829D 00000000100b3ce8     guideXOS.obj
 0005:0000dd10       __Str_Delphax              00000000100b3d10     guideXOS.obj
 0005:0000dd38       __Str_Delta_Electronics_Inc_7E7BFFF4AF025E98B2523074FEFD4103E6A347D56B16DAB000BA419AE568034A 00000000100b3d38     guideXOS.obj
 0005:0000dd78       __Str_Demo_window_will_appear__1_sec_BB2F40FBA11458CA7A66C9B12D371BD4C99B508CB7942AD410EAC995B67B3942 00000000100b3d78     guideXOS.obj
 0005:0000ddf0       __Str_Densan_Co_Ltd_3B3CB13BC388D6AE5E7E6500D6084E517E7D97C1DD82E8A824F3CEDA72ABA10F 00000000100b3df0     guideXOS.obj
 0005:0000de20       __Str_Deny                 00000000100b3e20     guideXOS.obj
 0005:0000de40       __Str_Department_Of_Defense_253D3258A03C17AF91A30106664B813F350C4C3C1F7FFC690587D62070AE9E78 00000000100b3e40     guideXOS.obj
 0005:0000de80       __Str_Desana_Systems_8AA8FC5D1C58EA1CC71AA8DA3674E7858CFA98D5340E8E00D437D8F1065467D2 00000000100b3e80     guideXOS.obj
 0005:0000deb8       __Str_Desktop              00000000100b3eb8     guideXOS.obj
 0005:0000dee0       __Str_Desktop_background_changed_to__9186A9E4EE1EAB1AA916AC06834291160A6C6853BF48553EBA69CFD1E7B4E858 00000000100b3ee0     guideXOS.obj
 0005:0000df38       __Str_Detect_media_F9D623D3AE3853710018272CDCEDEC6CE4251ABA0A94D596BB4BDD251D42DC73 00000000100b3f38     guideXOS.obj
 0005:0000df68       __Str_Detected             00000000100b3f68     guideXOS.obj
 0005:0000df90       __Str_Detected_PCI_Devices_06434AC855370B4FA4202B00F2B9279FD418DE3273534CE968724A9B5DD167B3 00000000100b3f90     guideXOS.obj
 0005:0000dfd0       __Str_Deuretzbacher_GmbH___Co_Eng_KG_D7365ADE4E122B220EF627DC6C9535F2317FC7DFC3C17E7847722E2A6FAFA7D9 00000000100b3fd0     guideXOS.obj
 0005:0000e028       __Str_Devices              00000000100b4028     guideXOS.obj
 0005:0000e050       __Str_Dialogic_Corp_67DB692BA8169288EF4E2C1D96F0737366809A2FDF15A4A164AF1B1B521ECF08 00000000100b4050     guideXOS.obj
 0005:0000e080       __Str_Diamond_Computer_Systems_82F07403D10CBB8D9CC69D488CBE31CC3A1D9F1049FF7FE88EB3C953A0B30D26 00000000100b4080     guideXOS.obj
 0005:0000e0c8       __Str_Diatrend_Corporation_F48A7F4E86E947496CFEBFC2F60184714ADC6AA200F9BF4E1032FAEDC6A1AC08 00000000100b40c8     guideXOS.obj
 0005:0000e108       __Str_Digalog_Systems_Inc_CC6783A63E1231FF01ED7BF3A516B0B090E1CBC403D9D8E4914C564F43552E54 00000000100b4108     guideXOS.obj
 0005:0000e148       __Str_Digi_International_FA9069972F8673745CCB3E5086F63A2FD361B185B618D2C3CC1AE660CA21730F 00000000100b4148     guideXOS.obj
 0005:0000e188       __Str_Digicom              00000000100b4188     guideXOS.obj
 0005:0000e1b0       __Str_Digicom_Systems_Inc_E73CB270FFD5A7793DD30E6076276E6BC50C860B72FE62382559B35F092718B7 00000000100b41b0     guideXOS.obj
 0005:0000e1f0       __Str_Digigram             00000000100b41f0     guideXOS.obj
 0005:0000e218       __Str_Digital_Audio_Labs_Inc_46E6D1243AEDCBBDC1594B575D14CDC62E1F5B971A844D7E9B32E44FD6B11833 00000000100b4218     guideXOS.obj
 0005:0000e260       __Str_Digital_Equipment_Corporation_AB2A9681069DD0F78A691A38336C38C35638C988850B9B01D9DB9D9FF238FE00 00000000100b4260     guideXOS.obj
 0005:0000e2b0       __Str_Digital_First_3DB4F831DFB1368305EB6B049F218E266690E55F5DD343CFE21BA63096EC7D7C 00000000100b42b0     guideXOS.obj
 0005:0000e2e0       __Str_Digital_Processing_Systems_Inc_243B878D874CF31198547DD31D40ED74450CD6819B2C26E662A2F9A8EBA0C5AB 00000000100b42e0     guideXOS.obj
 0005:0000e338       __Str_Digital_Receiver_Technology_In_2E566517E9CBE41F9AF1A93C4B2F064159242F5AB523852A528984E51D560262 00000000100b4338     guideXOS.obj
 0005:0000e390       __Str_Digitize__Tron__741897A16C6C44DF00A47D54CDD0475C87CE427EAC9D56A2CB0860B23D735FF8 00000000100b4390     guideXOS.obj
 0005:0000e3c8       __Str_Digitize_Scanlines__A44D2B3563FD99E2FCDE4D438BF6A61C1273D0B85E02C8378628DCFB8ADF0B5C 00000000100b43c8     guideXOS.obj
 0005:0000e408       __Str_Digitmedia_Corp_08ECA5B0AE961D01622540BB5320D268267A7A2E2297B23CC7DBE03850CF3967 00000000100b4408     guideXOS.obj
 0005:0000e440       __Str_Dipix_Technologies_Inc_2566DF1AB1B111869180C0B38B8AD04B906C84A7AAF6F4E584B7B5464CFB45C6 00000000100b4440     guideXOS.obj
 0005:0000e488       __Str_Disabled             00000000100b4488     guideXOS.obj
 0005:0000e4b0       __Str_Disconnected         00000000100b44b0     guideXOS.obj
 0005:0000e4e0       __Str_Disconnected__017AC0EC4906320F386161DB00E04C883510DFEA1AED5C0407B05F9E7AC155A7 00000000100b44e0     guideXOS.obj
 0005:0000e510       __Str_Disk                 00000000100b4510     guideXOS.obj
 0005:0000e530       __Str_Disk__51EE25875FA444C3F502E5548754A4603BE2A03F73778665D4BEC16C3E2D220F 00000000100b4530     guideXOS.obj
 0005:0000e550       __Str_Disk_0__System__FBDAA7E442F94DEDDF644A5BE12CFC39EEF072AAD1AE3439023F9C5C27978D7A 00000000100b4550     guideXOS.obj
 0005:0000e588       __Str_Disk_Management_B7BE43EAAC3C98CAB89CB2F10D9F682A4E3B546C7A4CB0846303B6507B3EFF9E 00000000100b4588     guideXOS.obj
 0005:0000e5c0       __Str_Disk_Manager_A3214D99D360BF9D7822ABC04208AF3EEFA8BA91BB6E9190D6A39D4CF99CC57A 00000000100b45c0     guideXOS.obj
 0005:0000e5f0       __Str_Disk_info_unavailable_01166D84B67A3D91B0CF8318E36B1662246BBCDFCB9BC04B5E70D115F6B2D1CF 00000000100b45f0     guideXOS.obj
 0005:0000e630       __Str_Disk_size_unavailable_8BA925D385A793337B56C597E94E4C5D76ECFEDD0BB835CCDCA0B0239212F914 00000000100b4630     guideXOS.obj
 0005:0000e670       __Str_Disk_too_small_DB24D9FF2CFAE1029A1DE0B53D25903FC073E120A3EBE6EA83DB70F9890E6D2C 00000000100b4670     guideXOS.obj
 0005:0000e6a8       __Str_Disk__73C429ECB1568D63AF7310CE1841476E68F73BE679CE470926C5F2767B07C443 00000000100b46a8     guideXOS.obj
 0005:0000e6c8       __Str_Disk___7BACE0E61F3CB2D302360E1B23AB612CF2DC845862752F00075D0A6969AFDB1A 00000000100b46c8     guideXOS.obj
 0005:0000e6f0       __Str_DiskManager          00000000100b46f0     guideXOS.obj
 0005:0000e720       __Str_Disks                00000000100b4720     guideXOS.obj
 0005:0000e740       __Str_Display_Options_37E3B462F05BD34F6B1B9CA0367D05A1B4041E3CD36E9E26CEBF292AB300A10C 00000000100b4740     guideXOS.obj
 0005:0000e778       __Str_Display_controller_2AB0112D09C2DF772BE7424FC0DEA80D8FF45FC0E01AE94843BB1ECC2A1554E3 00000000100b4778     guideXOS.obj
 0005:0000e7b8       __Str_DisplayOptions       00000000100b47b8     guideXOS.obj
 0005:0000e7f0       __Str_Dispose_Cache_When_Hiding_Wind_940F090BB5BC1F38FE422545240901D50CD9D3C215D56B310A21FC2D37D3981B 00000000100b47f0     guideXOS.obj
 0005:0000e848       __Str_Distributed_Processing_Tech_83CD494490DD6B839D56120B86BC4B360DF6A76AA2C91C197A219A01DCD3612E 00000000100b4848     guideXOS.obj
 0005:0000e898       __Str_Ditect_Coop_3C916798932A48E3CA451B558AB38052AC355E4C5A8B0DB5EB7649ABAD108CB3 00000000100b4898     guideXOS.obj
 0005:0000e8c8       __Str_Diva_Systems_Corp_BAACD83FCAB7E8A94A950613FA64337CEBF62ED1AC64D601F89582B6EACB2188 00000000100b48c8     guideXOS.obj
 0005:0000e900       __Str_Diversified_Technology_EC84F2AB1070D3D27F45A66B629DC9B878988520326410C742A0A7338D47F61D 00000000100b4900     guideXOS.obj
 0005:0000e948       __Str_Do_you_want_to_save_changes__4567F4941B7DBA568C5593934B38F9EB8D3215E437EE52F4E7A05420A819B971 00000000100b4948     guideXOS.obj
 0005:0000e998       __Str_Dock                 00000000100b4998     guideXOS.obj
 0005:0000e9b8       __Str_Docking_station_AFC491B5DBBBB1DB7A195B3F75F3A7438D68F11E2AD6B44F1FEB286BF3B1FCB3 00000000100b49b8     guideXOS.obj
 0005:0000e9f0       __Str_Document_Technologies_Ind_42F8EB62BFFEBAEFA33AFF9560D83A4EE9F6510582C43A59E0535F3BEF53DDE4 00000000100b49f0     guideXOS.obj
 0005:0000ea38       __Str_Dolphin_Interconnect_Solutions_85F05B94E5FD0E7E0A7238237D4715AF5A55C7C0A5A136150DD99F7AF4F67277 00000000100b4a38     guideXOS.obj
 0005:0000ea90       __Str_Dome_Imaging_Systems_Inc_64EEDBDD5A3231B99C1358468496D89C670D449006A732DFFEC79DFA847E3EB5 00000000100b4a90     guideXOS.obj
 0005:0000ead8       __Str_Don_t_Save_9EB66F3D31EAEC7F84F0747CAAEDBCF664B7BFF395D8CD7E74A3EAEF08D91875 00000000100b4ad8     guideXOS.obj
 0005:0000eb08       __Str_Doug_Carson___Associates_9F20DC8368786AAEF062E9896798AE70E39E8D8EDC6BA43FA9973E8DE1281148 00000000100b4b08     guideXOS.obj
 0005:0000eb50       __Str_DrawImage            00000000100b4b50     guideXOS.obj
 0005:0000eb78       __Str_DrawPoint            00000000100b4b78     guideXOS.obj
 0005:0000eba0       __Str_Drawing_error_occurred_1BEFB100F65ED8213F415232755F589351E111A3E560B515478A4ACEF7561923 00000000100b4ba0     guideXOS.obj
 0005:0000ebe8       __Str_Drawing_operation_failed_E1A602F58F118D2ED402BDE7EBA4EE5D0430D9F4326BE86692C7F5FE6EB6F8B9 00000000100b4be8     guideXOS.obj
 0005:0000ec30       __Str_Dreamtech_Co_Ltd_513CD4C225EA12DA5408E1BD1F1ADDE1170EA8DA91B6C69697C826C52CF25169 00000000100b4c30     guideXOS.obj
 0005:0000ec68       __Str_Drive__3D73D64573ACD9DB4D257A9672FB0A1E937FDF678CCB3D4E1C5932ADCE0F1420 00000000100b4c68     guideXOS.obj
 0005:0000ec90       __Str_Driver___F214C895A705518A8685FF8AC32635088BE5556EBE195FDA87FB8267ABDFEB7D 00000000100b4c90     guideXOS.obj
 0005:0000ecb8       __Str_Drsearch_GMBH_1A2B1272BE0D42526EAF41E57288D259F9EAEDF6110FD63D6CBC4DA056F11755 00000000100b4cb8     guideXOS.obj
 0005:0000ece8       __Str_Dual_Technology_Corporation_C985D2FA1B445991FF51A0658577FFC9FEE42328453F2E147716024BB2EE0D4F 00000000100b4ce8     guideXOS.obj
 0005:0000ed38       __Str_Dunti_Corp_995C2CDA28FEBA228EAD0A463B2A41A602E56474FC36D44B59A198FA4F2F9989 00000000100b4d38     guideXOS.obj
 0005:0000ed68       __Str_Dynachip_Corporation_E68360CF40A48FA1721869DEF4FD1FDBC8225936ADAF833DC186217E133EA1DD 00000000100b4d68     guideXOS.obj
 0005:0000eda8       __Str_Dynamic_Pictures_Inc_71D6B75882A99095DF9F79E58850111710CC02EE62007A11DFF304E0A0B345C1 00000000100b4da8     guideXOS.obj
 0005:0000ede8       __Str_Dynarc_Inc_B210AA24FD8D4959E073DDF1134FF45121310D5315EB23557D6FB96CF055BD10 00000000100b4de8     guideXOS.obj
 0005:0000ee18       __Str_E_Tech_Inc_328D7157CD1FE70DCA5D802B152680E365A4A142E4AED463DBD9C5527FD748DD 00000000100b4e18     guideXOS.obj
 0005:0000ee48       __Str_EFA_Corporation_Of_America_E73FC03DB0BF7789667E2AF0B50BFAAC6AA55533F1A6B2662CBC79B83237152A 00000000100b4e48     guideXOS.obj
 0005:0000ee98       __Str_EKF_Elektronik_GMBH_268F1EC416635B2D62863DF60BF27170953D17CED09FBDF24F9DA3A23D0C5F17 00000000100b4e98     guideXOS.obj
 0005:0000eed8       __Str_ELSA_GmbH_9A0FF92A9FD4AE526A6F6498F9EDED89E2275B4AAAB1BA88620C7DA77FF44727 00000000100b4ed8     guideXOS.obj
 0005:0000ef00       __Str_EMC_Corp_660742B8E749C319EE0C4063356AFB632F3A77DEFE0ECAB21056EA625BC78D24 00000000100b4f00     guideXOS.obj
 0005:0000ef28       __Str_ENE_Technology_Inc_11134AD7CD3A028BD1503FFE661AF20C918EF0BD2FDEF1CD646D87917B7C4110 00000000100b4f28     guideXOS.obj
 0005:0000ef68       __Str_EPoX_Computer_Co__Ltd_3C71B0AA8F5EDF137284BF798E58F630B6B05A69DE910983587E90B0A020541B 00000000100b4f68     guideXOS.obj
 0005:0000efa8       __Str_ES_Computer_Co_Ltd_20F6E5C5803CABAE6AC41088675CB1DC9427D9D1D319831EAD8BF2293DAC72C5 00000000100b4fa8     guideXOS.obj
 0005:0000efe8       __Str_ESS_Technology_E6EA65F0FC606E7F78610B87AAB50E32FA1A8A66056A3B14937D7A1229A28D18 00000000100b4fe8     guideXOS.obj
 0005:0000f020       __Str_EVSX_Inc_D2E4EF7683EAE974699B5B643645537DF28BF00A826327C04E27814D41A43D0D 00000000100b5020     guideXOS.obj
 0005:0000f048       __Str_EXCEPTION_DETAILS_4B3168C0C53BCD7E6DAB68E1F06097D62A4798E5B5FFE6AFA36D81B4BB450783 00000000100b5048     guideXOS.obj
 0005:0000f080       __Str_EXCEPTION___0___Vector_0x_1_X2_13470FF63F5CBC8532B506B9D8BBEB899D2C8402690BC2B70330FA6EC4DB899F 00000000100b5080     guideXOS.obj
 0005:0000f0d8       __Str_EXT2                 00000000100b50d8     guideXOS.obj
 0005:0000f0f8       __Str_EXT2__Creating_new_files_is_no_4694C5E47AFFA9C97FC602CFF116DF73402EC2FA43C58E0570C0AA911E3A661E 00000000100b50f8     guideXOS.obj
 0005:0000f168       __Str_EXT2__Format_not_supported_0039D2B61E4BA6AE2B0432B801BA8D31FACE5220633E5A0638B7ACC5119648FE 00000000100b5168     guideXOS.obj
 0005:0000f1b8       __Str_EXT2__Invalid_superblock_magic_1B89D75611C775B596950653C6A0D01149A488B6B9478F0356ADA94BC67EB224 00000000100b51b8     guideXOS.obj
 0005:0000f210       __Str_EXT2__Not_a_regular_file_8EECA109FC30F1B94807ED47642DA952712494F3A31EFE7A9E6986310BC0A08F 00000000100b5210     guideXOS.obj
 0005:0000f258       __Str_EXT2__Not_enough_allocated_spa_3532ACDB0E39AF628595494678A84C37F425351FF8947BC024182F3B8BCA1975 00000000100b5258     guideXOS.obj
 0005:0000f2c8       __Str_EXT3                 00000000100b52c8     guideXOS.obj
 0005:0000f2e8       __Str_EXT4                 00000000100b52e8     guideXOS.obj
 0005:0000f308       __Str_Each_demo_window_shows_differe_ED516D0A1BCC864CAE62A668558B503683106B87251EA62A6881E7856FF3F7EC 00000000100b5308     guideXOS.obj
 0005:0000f380       __Str_Eagle_Technology_23C664804169DA5266A41BFE30880D00B27189D8F232BB83F774186B08B34036 00000000100b5380     guideXOS.obj
 0005:0000f3b8       __Str_Early_crash____1_min____likely_4B5C009DC7BC8A6DA286D66DBCC95FFE700436A23B0FE270DA3FCDA3A607F04F 00000000100b53b8     guideXOS.obj
 0005:0000f438       __Str_Eastman_Kodak_52019B0BD62C01A43E6B8FCA7669F6D0C9F061D00077F5D556336BFDDC0B7CAB 00000000100b5438     guideXOS.obj
 0005:0000f468       __Str_Echelon_Corporation_C6800493C53F9995383CE2403D785F376D553D1461296FDD77A0D8F9EAA34E6E 00000000100b5468     guideXOS.obj
 0005:0000f4a8       __Str_Echo_Digital_Audio_Corporation_061F0AA7B89D9571532060C792B03BAA842DE4C87765855AD31F53692D1F6CF1 00000000100b54a8     guideXOS.obj
 0005:0000f500       __Str_Echostar_Data_Networks_37A818FDA95A65D9B6E5066D6F45C3B29A76376412099FC6E0FFFF7D1473152A 00000000100b5500     guideXOS.obj
 0005:0000f548       __Str_Echotek_Corporation_01C47E273E728CC9C37FD52438625A53766ABB78F447D04B52E088AC1FCA9A71 00000000100b5548     guideXOS.obj
 0005:0000f588       __Str_Edax_Inc_72757C4945811675C26C862ADCCA5A60B00C567F87FA5B77F7BA11AFC4283FE9 00000000100b5588     guideXOS.obj
 0005:0000f5b0       __Str_Edec_Co_Ltd_58450C46C6222ED89BFB44F051A0E1E9E0980236CAE548D7F4A1156EFDC3A13F 00000000100b55b0     guideXOS.obj
 0005:0000f5e0       __Str_Effect_Duration__F7D72F13A161ED673F73384FCC474F2B3E2AA396A313281EA412BA644586ED31 00000000100b55e0     guideXOS.obj
 0005:0000f618       __Str_Efficent_Networks_BB1167D187F2A748F7CD0C44BD67B949B009B6940377E0D2B38E9FD422A7890B 00000000100b5618     guideXOS.obj
 0005:0000f650       __Str_Egenera__Inc_EAAE0BF33F1DE441F07661100824BBB940CFB79BCDD5066FAA043A4E00160E2E 00000000100b5650     guideXOS.obj
 0005:0000f680       __Str_Egosys__Inc_1A5F1AC6D489BDEC234C994AE9D19209EB45EA98D7F7D66CEBD362810E51423A 00000000100b5680     guideXOS.obj
 0005:0000f6b0       __Str_Eicon_Networks_Corporation_347370B846A7BF957F4BE810598A31793D1505962B1D1CDBCEEF33357D781284 00000000100b56b0     guideXOS.obj
 0005:0000f700       __Str_Elan_Digital_Systems_Ltd_98012FF4573393B79B1B993C11AA37E4FE8D73B5840747ABF2BAAD119CC2D979 00000000100b5700     guideXOS.obj
 0005:0000f748       __Str_Electronic_Design_GmbH_956224E25F47EA7DED98A40C88F59B945230009A24D865C4B7E68897A15F8274 00000000100b5748     guideXOS.obj
 0005:0000f790       __Str_Electronics___Telecommunicatio_3ED60D7921E6F8DFC6AFAAE4BDFD04B28D51B6AAB54D05DE448BE9B28D9CC1C0 00000000100b5790     guideXOS.obj
 0005:0000f7f0       __Str_Electronics_for_Imaging_E4543C86C3F560E5D89AB1D1D87AADE487A9A1A75228B8C73A429A5BF348465E 00000000100b57f0     guideXOS.obj
 0005:0000f838       __Str_Elitegroup_Computer_System_79B4CF695BCA1C87CCA4075B927E9004C46D843AC1A2CA8AFB347EAE1B75D009 00000000100b5838     guideXOS.obj
 0005:0000f888       __Str_Elmec_Inc_Ltd_10EFC0F92D8BB6BA3D2C1A2CA34CD983E06204E8318E2581398D2DF8829E31F2 00000000100b5888     guideXOS.obj
 0005:0000f8b8       __Str_Elsag_Bailey_FC42AAD3AC29360E48414D0EE4EA2414770D343B4E35BD33325605F9B7F8B6EC 00000000100b58b8     guideXOS.obj
 0005:0000f8e8       __Str_Eltec_Elektronik_AG_77020268F2E08041BBF037628512439DF90460C8623B8791249362EA74634EE1 00000000100b58e8     guideXOS.obj
 0005:0000f928       __Str_Emachines_Inc_006122CE67E9A40102022EE597D16EC6B4041B143E3A88B42DB7D8BC25CACE1D 00000000100b5928     guideXOS.obj
 0005:0000f958       __Str_Empty                00000000100b5958     guideXOS.obj
 0005:0000f978       __Str_Emulex_Corporation_76538A082AD56CAF6F8C65E7441A628ABF287108FC87D6B01819A1C35F8ADE1F 00000000100b5978     guideXOS.obj
 0005:0000f9b8       __Str_Enable_Animation_Position_Upda_F6BF3AF2FC18F74F50770412B5F868E57C61D7E0EA2D2EE673C162E69B8F4BA7 00000000100b59b8     guideXOS.obj
 0005:0000fa10       __Str_Enable_Background_Fade_Transit_43F80C2B43EAD1E9072840EDEE1433FF00BA3397A83841A36A8DF9EE890FD5F4 00000000100b5a10     guideXOS.obj
 0005:0000fa68       __Str_Enable_Blur_Caching_70128C4385F8C33E149403DAA41D36E3EE50A0F9391072E0B25E67604A5DE555 00000000100b5a68     guideXOS.obj
 0005:0000faa8       __Str_Enable_Blurred_Title_Bars__Aer_A061A65EEE4C264FC331CA462786117B5269AF63423E12DC6BB7C7D55FFB5E01 00000000100b5aa8     guideXOS.obj
 0005:0000fb10       __Str_Enable_Button_Backgrounds_663B51D1F526B69A9854599F3D3364E732A4D61B4E0DE760127EE2ECFEB58642 00000000100b5b10     guideXOS.obj
 0005:0000fb58       __Str_Enable_Button_Borders_E672E4FBDB76EB50962AE0CF40F8DEC2E49952FF8331BFB44566C1574F5AD2D3 00000000100b5b58     guideXOS.obj
 0005:0000fb98       __Str_Enable_Button_Hover_Effects_B53087ECDD24726F59A7EEF2DB43E9A9ED351934AF512A9D7A0A8E596EEAFC18 00000000100b5b98     guideXOS.obj
 0005:0000fbe8       __Str_Enable_Button_Icons_CC0E4F22BC083973C342D75C82114228AC8C92B61A3D786A411575C42AD618D2 00000000100b5be8     guideXOS.obj
 0005:0000fc28       __Str_Enable_Cache_Invalidation_on_M_CD8E28822B32BC4AFADAA02DFE436F9752FDF056F1D80D1DBA314F139B24E111 00000000100b5c28     guideXOS.obj
 0005:0000fc90       __Str_Enable_Draw_Call_Caching_01FFC9CA272860187F046E4F4BFC4304E94CD37BF6BB032C97C67C4C070BCF09 00000000100b5c90     guideXOS.obj
 0005:0000fcd8       __Str_Enable_Early_Return_Optimizati_F453BA9A5A513DEB32680DA425E9BAC1974E042DCD3DEB1105A64588B9C8B06C 00000000100b5cd8     guideXOS.obj
 0005:0000fd30       __Str_Enable_Fade_Animations_915DC74F3383CC38700D0FC14AF12EAB7BEF954A69DFEFF6342DFF25A249A939 00000000100b5d30     guideXOS.obj
 0005:0000fd78       __Str_Enable_Fade_Overlay_B1173AA5B6FC347149C5EBE147531BD9A3064E390F5C70DC3AB107BEA1DC3358 00000000100b5d78     guideXOS.obj
 0005:0000fdb8       __Str_Enable_Geometry_Batching_C9985CB09ED52B070C84A7BE2E058658C894F2B2BAFADCA88103E5EC2110A19F 00000000100b5db8     guideXOS.obj
 0005:0000fe00       __Str_Enable_Resize_Grip_Visual_B7E51118D48E04E87481C5DA27014D1F2A3775B81C57D471067A3B1AFB9A4C67 00000000100b5e00     guideXOS.obj
 0005:0000fe48       __Str_Enable_Rounded_Corners__WARNIN_FC8E962B0537C4674DC5FBCA09015EDA26FFEE751D6BF3786BF760FBF02ACAA1 00000000100b5e48     guideXOS.obj
 0005:0000feb8       __Str_Enable_Special_Window_Effects_BD386070E755C42A204D7D85F11CAF95074E3AD84AD44F2F130E7589ACA0E215 00000000100b5eb8     guideXOS.obj
 0005:0000ff08       __Str_Enable_Taskbar_Icons_5D0BC6279D6B75035F4954DE1442DE68D51FA5D385FE573C976454CB75ACE699 00000000100b5f08     guideXOS.obj
 0005:0000ff48       __Str_Enable_Title_Bar_Background_AAB293CEFA8EBD6589E53BAF2FD48C267DC843116EE9711710D3B00D91FFBFCC 00000000100b5f48     guideXOS.obj
 0005:0000ff98       __Str_Enable_Title_Bar_Buttons_5F3E8D70A13D6167FA44A09903B73CA0AA514EC469E3DBA1113AD03B85A21376 00000000100b5f98     guideXOS.obj
 0005:0000ffe0       __Str_Enable_Transparent_Windows_56938E6845DF7133FBD7BF60F39C2D29DC51F2FEFA91942C66A90557C1948AA0 00000000100b5fe0     guideXOS.obj
 0005:00010030       __Str_Enable_Widget_Borders_7D4DC99746480C19878F8EB493D491299AD99E4013B9F8320A60D0E5460ED831 00000000100b6030     guideXOS.obj
 0005:00010070       __Str_Enable_Widget_Fade_Animations_54F869C7FA3AB67B518556614AB35EAD172DA4C511E4683E4FBB062E53D68802 00000000100b6070     guideXOS.obj
 0005:000100c0       __Str_Enable_Widget_Hover_Animations_FA30B0243169D7E60D6966E177A175E016BE07AB20B4EAD3D63E2BC0410950C2 00000000100b60c0     guideXOS.obj
 0005:00010118       __Str_Enable_Widget_Rendering_042101BCF19187657BB85434228CAE15EE26337275F78ED005B293CEA54140A6 00000000100b6118     guideXOS.obj
 0005:00010160       __Str_Enable_Widget_Shadows_00B57463C73E6493D300077F3DDBD7BF07E5118F5551352D9A2BDA1C8CE0C947 00000000100b6160     guideXOS.obj
 0005:000101a0       __Str_Enable_Widget_Transparency_CA94CB7621FD79478597E370D3F9CD8D89CCB2EB49C7A56A659613374D1B1FA6 00000000100b61a0     guideXOS.obj
 0005:000101f0       __Str_Enable_Window_Borders_32E52B9663FDA0E2EA1906265E9B401C4AE0FE96EE3236943787BB8E6F507411 00000000100b61f0     guideXOS.obj
 0005:00010230       __Str_Enable_Window_Content_Backgrou_C9B303A432AF190B172E61C0E1EABB7C4D2914DBA7EA02207263D4C6F42DAF2C 00000000100b6230     guideXOS.obj
 0005:00010288       __Str_Enable_Window_Glow_Shadow_C50EF47348D04EBCF754F5FC05AB6315EC2B68C1E594855CA6733115E4F22284 00000000100b6288     guideXOS.obj
 0005:000102d0       __Str_Enable_Window_Slide_Animations_F3B1CDF24014E99E08F046BDF40D593B7D4AA778A49C5B7619D9A2277B05A8CA 00000000100b62d0     guideXOS.obj
 0005:00010328       __Str_Enable_Window_Titles_098637EFE2F057C9F6595FE7F5A7920886ADE930723AD134DD4956726FBAC535 00000000100b6328     guideXOS.obj
 0005:00010368       __Str_Encore_Computer_Corporation_0EE4BA28260B488C11AD47B5600305A38A6A811C75AEBF7A37C0D326F17BC572 00000000100b6368     guideXOS.obj
 0005:000103b8       __Str_Encryption_controller_2CEF5C77FC3216B9B387996BC95C2A7D21E8C70AE0FE835213818F1614FDA204 00000000100b63b8     guideXOS.obj
 0005:000103f8       __Str_End_Task_133EEABDD2A3C8A3DC2087AEB424B7F7C38C3F6E59D4E1236905A2E8A6CC68C1 00000000100b63f8     guideXOS.obj
 0005:00010420       __Str_End_Tombstoned_App_6FEEBF70C2DDE60E65AF15B64FBD01DFDDA1CC2C1CAE858E9BA68A0A9159DFC9 00000000100b6420     guideXOS.obj
 0005:00010460       __Str_Endace_Measurement_Systems_Ltd_03B657D7FC5011388A20365D7339B6860D5E042DD580549E687582635AA37D52 00000000100b6460     guideXOS.obj
 0005:000104b8       __Str_Engineering_Design_Team_Inc_461AA47D90B22B50301DE744A31AD8EBE5C8A35F87C895DB6CFF9B2B94A566E0 00000000100b64b8     guideXOS.obj
 0005:00010508       __Str_Ennyah_Technologies_Corp_68EBBDC384853A52709545904F14C379CB472DAE9BAD7B07077A7105A94C98E9 00000000100b6508     guideXOS.obj
 0005:00010550       __Str_Ensoniq              00000000100b6550     guideXOS.obj
 0005:00010578       __Str_Enter                00000000100b6578     guideXOS.obj
 0005:00010598       __Str_Entridia_Corporation_7D14811845EA43F0568F40BCEA53E77FF22C791215FA5253F7A87CE5B222F4C3 00000000100b6598     guideXOS.obj
 0005:000105d8       __Str_Enumerating_files____8D8E8CB1D9A5F2F76F7D36E4BDBC96FDF77ACF240E6408B046218BFE2F2AC043 00000000100b65d8     guideXOS.obj
 0005:00010618       __Str_Epix_Inc_B05F2A6D51CD96EF3529C838F628C1B71C00C5043EE8FF3BB0AED6BCB49541D5 00000000100b6618     guideXOS.obj
 0005:00010640       __Str_Epson                00000000100b6640     guideXOS.obj
 0005:00010660       __Str_Equator_Technologies_8F4741EC1E8AEBDADD3943298F45E68012131ED4C201DB0306A2EDD62DB1250D 00000000100b6660     guideXOS.obj
 0005:000106a0       __Str_Equinox_Systems_F7C751B841162E2E1EAACE5542CDE99E48E2E988511B33855D8B0BCC427A1176 00000000100b66a0     guideXOS.obj
 0005:000106d8       __Str_Equus_Computer_Systems_Inc_9CD153E5BD40692EAE54B7F04C3288A0CD979E5033B364F74C5F6E80FBEC1EE9 00000000100b66d8     guideXOS.obj
 0005:00010728       __Str_Eraser               00000000100b6728     guideXOS.obj
 0005:00010750       __Str_Erma___Electronic_GMBH_A0DBD627415D3B7993EC7C6348141B1FD2707876C4AE3DE734D717EE2FB11D17 00000000100b6750     guideXOS.obj
 0005:00010798       __Str_Error                00000000100b6798     guideXOS.obj
 0005:000107b8       __Str_Error_Code__0x_8ADD26CD666C3C8D48B5656D43ACD43FEDF7FA56CC73FDE2AFC3D23E5C5DCD7C 00000000100b67b8     guideXOS.obj
 0005:000107f0       __Str_Error_executing_script___2397EDE308AA6B6BB789DD984046EC102D3EF6011AF697F73F542D22B7026516 00000000100b67f0     guideXOS.obj
 0005:00010838       __Str_Error_installing_bootloader_FCE8A4AFD28DEA3B0E5E8348CDE5C84A4D2DE441AC18DDCB89D0F0E6CCF5BEDA 00000000100b6838     guideXOS.obj
 0005:00010888       __Str_Error_loading_TTF_fonts_C41E791553339D1230DFC38D39EB5301A1612766FAB61F135E1BD5C0279E8654 00000000100b6888     guideXOS.obj
 0005:000108d0       __Str_Error___ECE8064537F12FE2E9EE783DEEE95989C26BA807871B3F630BEEA7E80E8F3C35 00000000100b68d0     guideXOS.obj
 0005:000108f8       __Str_Error__Bootloader_installation_6C61F40FFF58C8CDB11622E410F9AA1F9422D716D42B0D70CDDBC55EC765C38C 00000000100b68f8     guideXOS.obj
 0005:00010958       __Str_Error__Bootstrap_CPU_is_not_CP_8E5BB52DA59971F05AFE6E2E4C038E56CFC7C306A2CFEDBBA2D7ED35CCCF76D3 00000000100b6958     guideXOS.obj
 0005:000109b0       __Str_Error__Failed_to_load_file_F3BE781CD646FD56DCCF0D4A93851B15BE6D680B997DA571B34251A186DD4C21 00000000100b69b0     guideXOS.obj
 0005:00010a00       __Str_Error__Failed_to_load_file__38153DFB9598B63287B44ED83AC4B6585E147729437FF5577AC83CC605FADF1F 00000000100b6a00     guideXOS.obj
 0005:00010a50       __Str_Error__Failed_to_load_script__3F682763942BE442B062752C2B3001C4F11061E5B0F6DD0A52FDFE4D24DD3FB9 00000000100b6a50     guideXOS.obj
 0005:00010aa0       __Str_Error__Failed_to_save_file_BBC86DDEBD2D3F6B8B675685A70B6C15C79EAAF2F21715129C6EEF63FA3FF43E 00000000100b6aa0     guideXOS.obj
 0005:00010af0       __Str_Error__Failed_to_save_file__6473DD569A8EA468E06BF321FE6F79EC8F7C4CCFA88A74ACDF20068147D5B863 00000000100b6af0     guideXOS.obj
 0005:00010b40       __Str_Error__File__A951881E244C62B3A9D47E33C31E3EEDB53BF67B386E60E1811ED8276D454761 00000000100b6b40     guideXOS.obj
 0005:00010b70       __Str_Error__File_copying_failed_B9BD02C0175FE7D442B1DBB4E5141BE97602E8900E00996DD8E5E92B0F391E2F 00000000100b6b70     guideXOS.obj
 0005:00010bc0       __Str_Error__File_is_empty_or_not_fo_35CE7F898A7979E7DB9118C891F520E306F10ED6CE8DB6F48B6AF1BD8BB99D5A 00000000100b6bc0     guideXOS.obj
 0005:00010c18       __Str_Error__Formatting_failed_1A6DEE3EB3FC5595E8BE4FC6AAB6A8AF0A1DA92E6BA246480060865150AA080F 00000000100b6c18     guideXOS.obj
 0005:00010c60       __Str_Error__Invalid_MBR_signature_2B2556C914C6269B4388F79F45301D10558319C05E9E9F30A245D62DCC880327 00000000100b6c60     guideXOS.obj
 0005:00010cb0       __Str_Error__No_filename_specified_0A2E3EC804F4B33B81C66B84A516C59FEE2A791277197BD7E46AD4A6235E032F 00000000100b6cb0     guideXOS.obj
 0005:00010d00       __Str_Error__No_script_filename_spec_7E717164D549F1069EB42AA7BC470E73384C39C0973ECA418CA10B5DA50364B3 00000000100b6d00     guideXOS.obj
 0005:00010d60       __Str_Error__Partitioning_failed_7214B605460788CA85943596B76394C55D2E773E0837E97EFA604C12F7ABEAFF 00000000100b6d60     guideXOS.obj
 0005:00010db0       __Str_Error__Please_provide_an_IP_ad_E30CF99645E9BEA0E5188CF36AA1029F73189AE09B8A0B924C0F7B1F73D3170F 00000000100b6db0     guideXOS.obj
 0005:00010e30       __Str_Error__Script_file__D6BC07CB5E5EEA08048FB0C6CA1044C409588E4C4B797FA7A256BD59B20EC0A4 00000000100b6e30     guideXOS.obj
 0005:00010e70       __Str_Error__Unable_to_read_script_f_A24EA457A7E9D3CCA138D16FAF20C3523D6A1ADABB283F77CB48EF7D56B088E6 00000000100b6e70     guideXOS.obj
 0005:00010ed0       __Str_Esec_SA_21098DAC3B75B60AF87077809B12F7B149867A2B56CE0266A8AF89D8A074D0C6 00000000100b6ed0     guideXOS.obj
 0005:00010ef8       __Str_Essential_Communications_B8D7CE4C6CF90C91579EB25523C1B59FB1CF56520948640D3AB7AAA293E56FB4 00000000100b6ef8     guideXOS.obj
 0005:00010f40       __Str_Etron                00000000100b6f40     guideXOS.obj
 0005:00010f60       __Str_Eumitcom_Technology_Inc_FBBDF7B099C38A4028EF8A204962497B8CB67BC6DD9E2917EE42F8EBA28AF12F 00000000100b6f60     guideXOS.obj
 0005:00010fa8       __Str_Eurocore_Vigra_3798BB5C362987270DEED2956212C7A8DC4C172E2476A6458DA0CEE9CB7C0714 00000000100b6fa8     guideXOS.obj
 0005:00010fe0       __Str_Europop_AG_64C4028C3C80812D3F5C2E54E7C14F4366A17AA7904BAA33574AA45C1DA52AEA 00000000100b6fe0     guideXOS.obj
 0005:00011010       __Str_Eurosoft__UK__EA1DECBBDB5542C2F06DD5BF2A8F1236EF634D43EB56E8082B5E1EB1BFC01828 00000000100b7010     guideXOS.obj
 0005:00011040       __Str_Evans___Sutherland_9DD54E8C694F7CA50DC82E3F9C8746CFB02E7EB04A530BEE9BBE64FEAA08D48A 00000000100b7040     guideXOS.obj
 0005:00011080       __Str_Everex_Systems_Inc_5EA17B060417C8FE2D1093DB3B352AF042B9B1E5A2CF0B5CD598AB8062002AEB 00000000100b7080     guideXOS.obj
 0005:000110c0       __Str_Evergreen_Technologies_Inc_299132823C3F4EA12CC9EE6123297D762DF6E44D7ADE10AA75E2C31F57723130 00000000100b70c0     guideXOS.obj
 0005:00011110       __Str_Example__ping_8_8_8_8_5E9B3F90E4F426CAC246C3849D1AE4F331D59B02B008C2D944B352FF06ECF3A8 00000000100b7110     guideXOS.obj
 0005:00011150       __Str_Exar_Corp_35D76E399C0E0424229D0B55A852C4D75488206461C1A98CF585015D2627E82C 00000000100b7150     guideXOS.obj
 0005:00011178       __Str_Excel_Switching_Corp_B9B832FF3F8FF7CC7347709C3315C5FDD7BDAD56CCA699D44E915BED13CB05C9 00000000100b7178     guideXOS.obj
 0005:000111b8       __Str_Excellent_Design_Inc_33E716DC6BCF8CE6391B800D9C3961FD097B71E30DB82E74382BFA82D0242543 00000000100b71b8     guideXOS.obj
 0005:000111f8       __Str_Executable_too_small_1F30669AE84F9C7F73F9C10B46A510E462EC66B6E26948DBEDCA3A2714DB021A 00000000100b71f8     guideXOS.obj
 0005:00011238       __Str_Expected_Devices_6A0BA72819E19A50DC000BF9B908A6113156EE68125C9F2C3A031912F6CE78EA 00000000100b7238     guideXOS.obj
 0005:00011270       __Str_Explode              00000000100b7270     guideXOS.obj
 0005:00011298       __Str_Explode_Particles__C0B47DFF7C7777C75FA4B6D5D5A0DB1028E3E34D8B7C0B90B526DA47A5D22EA4 00000000100b7298     guideXOS.obj
 0005:000112d8       __Str_Extreme_Packet_Device_Inc_55B15181BAB577FA87933D26FEC151417A8530C10F3D22FE3F0676751D1DDFFC 00000000100b72d8     guideXOS.obj
 0005:00011320       __Str_F5_Networks_Inc_8116F8929D331C48E5E5B463DF3CDBEAA4AB6743EA25B12E3AEDB3E9DFD9701D 00000000100b7320     guideXOS.obj
 0005:00011358       __Str_FALSE                00000000100b7358     guideXOS.obj
 0005:00011378       __Str_FAT                  00000000100b7378     guideXOS.obj
 0005:00011398       __Str_FAT__boot_sector__CD3230F1B1D885C15FD374E3B47A42661D98292467DBCE867BFB7DAD64267A60 00000000100b7398     guideXOS.obj
 0005:000113d0       __Str_FAT32                00000000100b73d0     guideXOS.obj
 0005:000113f0       __Str_FAT32____83CBCA3405D5E39D8981478143B040F8ECD4918E7E2EF91DB0C9BD08B1222191 00000000100b73f0     guideXOS.obj
 0005:00011418       __Str_FERMA                00000000100b7418     guideXOS.obj
 0005:00011438       __Str_FIC__First_International_Compu_881D4E2E2C8DA4A6644C7AE2AE2E7C6976B8E7949CF85E081F222016681C300A 00000000100b7438     guideXOS.obj
 0005:000114a0       __Str_FORE_Systems_E7F4C0AFAB5BB750518C32522F1BECA7B1840178699DCF5BAF283FE8F05BFEA4 00000000100b74a0     guideXOS.obj
 0005:000114d0       __Str_FWB_Inc_25DBDC846CE02C4B48177A71537740E8EA8EA0BF28392334BAE2A416FE4318A3 00000000100b74d0     guideXOS.obj
 0005:000114f8       __Str_Fade                 00000000100b74f8     guideXOS.obj
 0005:00011518       __Str_Failed__Invalid_Ptr___8F5218093B2F037C5EE8257A24D77AE7DA5ECF114AAA8445E30C68C483206AE6 00000000100b7518     guideXOS.obj
 0005:00011558       __Str_Failed__No_Pages___D383D40D434B036AB8B82D2BAE02DB97628A47F45B71B971B7A46FFAA136219E 00000000100b7558     guideXOS.obj
 0005:00011598       __Str_Failed_to_apply_font_453075C4EA21EAD829B0598B4DB7FDBA9A420A9226F15D7E9D35647D28FECF25 00000000100b7598     guideXOS.obj
 0005:000115d8       __Str_Failed_to_initialize_Paint_3F96763E51C76D9D1CFD4CD2888274D45400BA588CEC752A9DD8657191C2511D 00000000100b75d8     guideXOS.obj
 0005:00011628       __Str_Failed_to_load_TTF_fonts__144709F12E0FA6A9E08BB5C23385877A240A45B0692A44AD65D803909745C4EF 00000000100b7628     guideXOS.obj
 0005:00011670       __Str_Failed_to_load_background_990B7ACA882CEDF7C3A98E5881C3276EA098766778B357ED165874F0B6537BCD 00000000100b7670     guideXOS.obj
 0005:000116b8       __Str_Failed_to_load_font_file_A074D681358D7C090071B42A2A69DA931AE6157296F9387E266D7979440CD0ED 00000000100b76b8     guideXOS.obj
 0005:00011700       __Str_Failed_to_load_image_77E8F8A0628502EDB0EB42BC157BD14A748121CC7413F2C4A78F248F1D64B055 00000000100b7700     guideXOS.obj
 0005:00011740       __Str_Failed_to_revert_resolution_65C8F7B3C736C67BB535CAB9106D6C94C37338D62BFEEA32328467D2CFB894F8 00000000100b7740     guideXOS.obj
 0005:00011790       __Str_Failed_to_run_executable_BAB2E7F9735CA3AD339F0FE64ACF0E6C2463D3D5ED06BBACDEDE5FB5C85894B5 00000000100b7790     guideXOS.obj
 0005:000117d8       __Str_Failed_to_set_resolution_CCD95A91A94B86F8E78C5C1207E3D7008612DE9B31E098CBC319EB4147714409 00000000100b77d8     guideXOS.obj
 0005:00011820       __Str_Failed_to_write_MBR_63CA162B433C87D339A0A3A8D644F6172DF54600EFFF55C1A44911F642F4DE2F 00000000100b7820     guideXOS.obj
 0005:00011860       __Str_Failed___8995E3D29C0849BBD34861E3DF33DBCE1ACCD42AB17DC87FA1B929CA986CF5D7 00000000100b7860     guideXOS.obj
 0005:00011888       __Str_Fairchild_Semiconductor_C87E760A4207169D4C14730D0037E10E6EF726C006A834FC41EAC53909092613 00000000100b7888     guideXOS.obj
 0005:000118d0       __Str_False                00000000100b78d0     guideXOS.obj
 0005:000118f0       __Str_Fanuc_Co_Ltd_D07605609A3315DA555A02ECEEDB79C5FD42C645506384786ED7CC9D49189298 00000000100b78f0     guideXOS.obj
 0005:00011920       __Str_FarSite_Communications_Limited_803A0A8CC38B6F6556BB5EEC1E3F3D3F7988163D4828FE06EA1DAEB4F9A1F458 00000000100b7920     guideXOS.obj
 0005:00011978       __Str_Faraday_Technology_Corp_C81EE8375D3785DC802C104DCD3C61181167AC0FCF0AACAC0C675B6EAA706B3B 00000000100b7978     guideXOS.obj
 0005:000119c0       __Str_Fast_Corporation_D68EBC9794596D37BC15EFFB27C900097EF7EA490CF2FAFA67C05349834504B9 00000000100b79c0     guideXOS.obj
 0005:000119f8       __Str_Fast_Electronic_GmbH_7B17BE47E20464CAFF34C2BCA42EB7F11B1FFD0C9E0BD6B44759487DADD96737 00000000100b79f8     guideXOS.obj
 0005:00011a38       __Str_Fastfame_Technology_Co_Ltd_020601763DE6891048317F073CAD0EE01A1A8A177331D3A1A2EC580573406993 00000000100b7a38     guideXOS.obj
 0005:00011a88       __Str_Fastpoint_Technologies_Inc_30F960F55ECADF2D8BA5F756D11F5193AE1C5A149E62036224DE6AA7A5094798 00000000100b7a88     guideXOS.obj
 0005:00011ad8       __Str_Faulting_Address__0x_D1817C5CA88C1F116398A439D000913524F9BC6B7C47B947E8843638B3FD4F77 00000000100b7ad8     guideXOS.obj
 0005:00011b18       __Str_February             00000000100b7b18     guideXOS.obj
 0005:00011b40       __Str_Feedback_Instruments_Ltd_7C512D69DEB37529B0DE312D5B6D81B61DE34A4E38658FBDC3F1751F9D5E390D 00000000100b7b40     guideXOS.obj
 0005:00011b88       __Str_Filanet_Corporation_77B7756176D97663D4717ECECA7ED9461FB985F20C1F0C5B8F0F9C8842A106FD 00000000100b7b88     guideXOS.obj
 0005:00011bc8       __Str_Filco                00000000100b7bc8     guideXOS.obj
 0005:00011be8       __Str_File_loaded___2D501627B8DA269A1E724D58EA3DBC7287074C0EB51898DC82F5959236E2F515 00000000100b7be8     guideXOS.obj
 0005:00011c18       __Str_File_name__237A22A00874F0EC6EFBE8C9E8376C7372CF8D22561FEF3233556C7DA03223DE 00000000100b7c18     guideXOS.obj
 0005:00011c48       __Str_File_not_found___DB229FE04808FC732527F1EF15B749388C1515571295234B4ECD0B5F9589B653 00000000100b7c48     guideXOS.obj
 0005:00011c80       __Str_File_saved___68DD311573CD10A287FDCF264700B5E26F8EF3AE4DD4C4BF685F1B1103ABEE95 00000000100b7c80     guideXOS.obj
 0005:00011cb0       __Str_Fill                 00000000100b7cb0     guideXOS.obj
 0005:00011cd0       __Str_Finalizing_installation____FF586EA1C6814F12404C477E59681120FBE8DFB1DA7ACF3AF2DAC80A72523A98 00000000100b7cd0     guideXOS.obj
 0005:00011d20       __Str_Finish               00000000100b7d20     guideXOS.obj
 0005:00011d48       __Str_Firewall             00000000100b7d48     guideXOS.obj
 0005:00011d70       __Str_Firewall_mode___B3C7676B7DA9093C5732FA0560809B217D1F63E6E3B14C3700F99B33D0549A07 00000000100b7d70     guideXOS.obj
 0005:00011da8       __Str_Firmworks            00000000100b7da8     guideXOS.obj
 0005:00011dd0       __Str_First_International_Computer_I_7FE9CDC3FC93AB6FAB94B64D5F724D9C26F79627D17F13F5633A95912E241D6F 00000000100b7dd0     guideXOS.obj
 0005:00011e28       __Str_First_Virtual_Corp_E7F801DE2AB1C75638C3651666CD24B18333934CD664C13A05A728867E01A11E 00000000100b7e28     guideXOS.obj
 0005:00011e68       __Str_Fishcamp_Engineering_52EE8A76E4D758D961658D5EC0DE7ABD5ADB1E11554E992775BFE6593924FCBE 00000000100b7e68     guideXOS.obj
 0005:00011ea8       __Str_Flytech_Technology_Co_Ltd_EB9E1EE5573C8F39A7B50D72204C1E119FA853CF1C9A9B43B5A79A3237A5FF28 00000000100b7ea8     guideXOS.obj
 0005:00011ef0       __Str_Folsom_Research_Inc_1C57747736EA3441FAA5B068EA08BE0CAE257857657873F71CCE82B8EAA01C63 00000000100b7ef0     guideXOS.obj
 0005:00011f30       __Str_Font_Size__C7F2C24721879DA84B1F3FB5112C425339232AFA1023B817F5BAE5F5251544AB 00000000100b7f30     guideXOS.obj
 0005:00011f60       __Str_Font_applied_successfully_2007BE779A1FFA7CEA294701780F33F2EE48BB92E4A2BE8C054C01626CD14979 00000000100b7f60     guideXOS.obj
 0005:00011fa8       __Str_Fonts                00000000100b7fa8     guideXOS.obj
 0005:00011fc8       __Str_Fonts__A84F9B92897C29BEBB230F158197961914921E85ABD8EF2C45D7EF82BBECBA24 00000000100b7fc8     guideXOS.obj
 0005:00011ff0       __Str_Fonts_roboto_Roboto_Regular_tt_6040B1D0098724564E3C23C51209F0A91E9DA2D7C21796799B694D62D918CFF3 00000000100b7ff0     guideXOS.obj
 0005:00012048       __Str_Force_Computers_DB9855B1E54FF998EE2BAA55729FF2A658617064E3E1CFA3CB4F9A629C5844E0 00000000100b8048     guideXOS.obj
 0005:00012080       __Str_Forex_Computer_Corporation_6A26E0382C930CFCDF12B3AB567054A3707D862D77163793C52F93645480AB6C 00000000100b8080     guideXOS.obj
 0005:000120d0       __Str_Forks                00000000100b80d0     guideXOS.obj
 0005:000120f0       __Str_Forks_Inc_1A7BCCED460E91CFADF956AFF04DD21D614FE20765396BD702C88C87FD1849B2 00000000100b80f0     guideXOS.obj
 0005:00012118       __Str_Format_as_FAT_C990332870545E01AB26687B716DE4B11792B299155DB8FBBF2242B60132316C 00000000100b8118     guideXOS.obj
 0005:00012148       __Str_Format_failed__6D4C24D141B32D0AE2036A63ED65FE5A0004B24F3C6F61F740D301DB69864600 00000000100b8148     guideXOS.obj
 0005:00012180       __Str_Formation__Inc_89EE54B033BE2C2042AB0E1B298CAB4C1EFB06C87EDC159C41355724B03B58B1 00000000100b8180     guideXOS.obj
 0005:000121b8       __Str_Formatting_partitions____CCE7A2CE54E024A8CC9F23534D9DC580FF1A10EEEEFBEF8A6FB6C4AE21E305B5 00000000100b81b8     guideXOS.obj
 0005:00012200       __Str_Forte_Media_D7C92A017ED00D11963800038BDC9B893FDB414C412B1BB4C37358F62C07BFC9 00000000100b8200     guideXOS.obj
 0005:00012230       __Str_Forward              00000000100b8230     guideXOS.obj
 0005:00012258       __Str_Fountain_Technology_471D3645F4A27DA02511DB63367BD1518088A7738A8D202D4178BE2BA993039F 00000000100b8258     guideXOS.obj
 0005:00012298       __Str_FourFold_Technologies_89894C86F5972FD1F03058FF41BFA9FA9E182B2383F70466EDB0E401F787AB32 00000000100b8298     guideXOS.obj
 0005:000122d8       __Str_Framebuffer___0_x_1__pixels_0D3E2642AA8D0106DD1E24E1AB16EDDA4BE6B3430576BB317A73B22FC0BCB95F 00000000100b82d8     guideXOS.obj
 0005:00012328       __Str_Frames_since_build___0__30_9D214AE04D4171865EB668A596431DB015F60714F398291673CEC1DFD1087293 00000000100b8328     guideXOS.obj
 0005:00012378       __Str_Free                 00000000100b8378     guideXOS.obj
 0005:00012398       __Str_Free_Space_DEA4A92CF3B037FDE64D633082F1CD51A8D880EC257BFD37451757A6B1C6ED84 00000000100b8398     guideXOS.obj
 0005:000123c8       __Str_Free_Alloc_Ratio__2ABC4FD7DF931B1216D34231DF615173D73D60F09CC944FBFD7D979FE7942156 00000000100b83c8     guideXOS.obj
 0005:00012400       __Str_Freed_Pages__1DE370C4C15376E484663A33C8A7B8F47786CC746263FC9B453F634B71393434 00000000100b8400     guideXOS.obj
 0005:00012430       __Str_Fresco_Logic_Inc_F72534EDAED5BEC10149CCEA5815DBF9326E58CB960CDF157F745D33E53D3AD2 00000000100b8430     guideXOS.obj
 0005:00012468       __Str_Fuji_Xerox_Co_Ltd_F7B413ED91DB0DD226A593262CAF9D56B6868BF854651725B9CC98C553D13BB6 00000000100b8468     guideXOS.obj
 0005:000124a0       __Str_Fujifilm             00000000100b84a0     guideXOS.obj
 0005:000124c8       __Str_Fujifilm_Microdevices_96B259B0745FDFD058D86743C98002EEFCC9F9731D5E6C03A83F206F1E0A3192 00000000100b84c8     guideXOS.obj
 0005:00012508       __Str_Fujikura_Ltd_9A40C3C946D408C8D437AC8F50CA17A8BF50245DFE4BD7FD71493C87013B03BC 00000000100b8508     guideXOS.obj
 0005:00012538       __Str_Fujitsu_Computer_Products_Of_A_846DB319718FE44F57AB5FB1667654FB1047299011B91EBCF95A269859D9B89E 00000000100b8538     guideXOS.obj
 0005:00012598       __Str_Fujitsu_ICL_Computers_391CA6AFE89222A8BD287A6551F56DEDEED3086D006C6E9AAF43067D9EFCFA7E 00000000100b8598     guideXOS.obj
 0005:000125d8       __Str_Fujitsu_Ltd_DFCB76B9157ECF8FA2BC977EF4A5D02836846D24B5CD2691628C5226242A7F18 00000000100b85d8     guideXOS.obj
 0005:00012608       __Str_Fujitsu_Microelectronics_Ltd_96312B0C119D65B9D731B22E2C8CB748BF20B79A63F21E90503D9D3C9544B0B1 00000000100b8608     guideXOS.obj
 0005:00012658       __Str_Fujitsu_Siemens_1B32222FFAD5C77F39A88F4864B4452ADC3A664C92DAD30305AA5A89683724DB 00000000100b8658     guideXOS.obj
 0005:00012690       __Str_Fujitsu_Siemens_Computers_GmbH_385A20B3E60A728C9342D562937D7D3AAC4BBF4152D078D22E176C85548A2738 00000000100b8690     guideXOS.obj
 0005:000126e8       __Str_Fundamental_Software_Inc_B7C7A03883CE107885E7B86E6DC420E25AF4145A1624D70ECC9BA03354F10A0A 00000000100b86e8     guideXOS.obj
 0005:00012730       __Str_Futronic             00000000100b8730     guideXOS.obj
 0005:00012758       __Str_Future_Domain_E9536502C249AA96909F1B315D385E4CAA9459679CC4E070DE6652B9440CBAF6 00000000100b8758     guideXOS.obj
 0005:00012788       __Str_Future_Tel_Inc_D24EB7196C00D8B8D02CCFE551F3B84B3E74482FF428AA15B81551E9FEBAAD52 00000000100b8788     guideXOS.obj
 0005:000127c0       __Str_Future__Systems_8702D1C9155F2BBE06A1A4D8B639952E72235D01406ED955FAD6F9433C639329 00000000100b87c0     guideXOS.obj
 0005:000127f8       __Str_G_Force_Co_Ltd_62BAC8791DC0CB193F582CDDACBCCDA61697068B4E23B78F688484EFD6A26D2A 00000000100b87f8     guideXOS.obj
 0005:00012830       __Str_G2_Networks_Inc_67B581E7058F9F60C9E7828F447DDD12FB2DD4A0DE75DD23C15BD2A5FEB721FD 00000000100b8830     guideXOS.obj
 0005:00012868       __Str_GDE_Systems_Inc_7F7DF3C10B142ED658A1C606A1F03DB9101EFE62015659D2B0419B1744AAB99B 00000000100b8868     guideXOS.obj
 0005:000128a0       __Str_GDT                  00000000100b88a0     guideXOS.obj
 0005:000128c0       __Str_GDTR__Base_0x_221EB3F54C5720A0FF526C776CF52E18B9D256F3509B222E935113F0AF4C9F65 00000000100b88c0     guideXOS.obj
 0005:000128f0       __Str_GE_Spacenet_7370E284522CAE488BBB8EAFCC20A0EF7FE2FD248A8AFBF4E392C61AC7CA02C6 00000000100b88f0     guideXOS.obj
 0005:00012920       __Str_GENERAL_PROTECTION_FAULT_357F68A0673E006F6A8E2EEDFC6F66CAAF0B24EEC3420D597110E49BF922BBBB 00000000100b8920     guideXOS.obj
 0005:00012968       __Str_GET                  00000000100b8968     guideXOS.obj
 0005:00012988       __Str_GET__85AA24E1802E27DE685710704968282E0621CF7609D1D483FEC8B5E19CA69FA0 00000000100b8988     guideXOS.obj
 0005:000129a8       __Str_GET_Engineering_Corp_8C47E4D2BDAF5BF7F69A645C341989F817D3C5A2C2D090BD2EEA56BD650412A3 00000000100b89a8     guideXOS.obj
 0005:000129e8       __Str_GETTEXT              00000000100b89e8     guideXOS.obj
 0005:00012a10       __Str_GIT_Co_Ltd_3B88BEAA28CCB08C9B3FDAA6384AE47799BBF2A42BED2B997F404BFFB59AE226 00000000100b8a10     guideXOS.obj
 0005:00012a40       __Str_GMM_Research_Corp_0C3EE88CFB92716CA98C1840498D63E675C6C56BC13CC659C119561001E24968 00000000100b8a40     guideXOS.obj
 0005:00012a78       __Str_GPF_at_this_timing__Likely_mem_A79BE0ED9698FCD781873B7AA1D548C467158430D620CA8E40036E66AC0CBC8C 00000000100b8a78     guideXOS.obj
 0005:00012af8       __Str_GUIDEXOS             00000000100b8af8     guideXOS.obj
 0005:00012b20       __Str_GUIDEXOS____2D73017312F6528017EB313A6715683517C9524A9C66B70DEE1E7944F38E691A 00000000100b8b20     guideXOS.obj
 0005:00012b50       __Str_GUISamples           00000000100b8b50     guideXOS.obj
 0005:00012b80       __Str_GVC_Corporation_E36F3A43D77C59615339F7FBD3F3271A96864EB78B9541B9E972164943EB7302 00000000100b8b80     guideXOS.obj
 0005:00012bb8       __Str_GVC_BCM_Advanced_Research_1CD4291BDDAA26A0E90F61D10501E365CC972FB514C978309943D5117B703CF1 00000000100b8bb8     guideXOS.obj
 0005:00012c00       __Str_GW_Instruments_C34BAB6A5300FEF6A46318F6BB470BFD1E97816A407B63857A5FB1A4271CAEAA 00000000100b8c00     guideXOS.obj
 0005:00012c38       __Str_GXM_GUI_Samples_8A45907EC46B76789F7BCA6F5F57C63899C55F0F45D9D9A7C010D6345EED8779 00000000100b8c38     guideXOS.obj
 0005:00012c70       __Str_GXM_GUI_Scripting_Samples_C3C738446DDB9E65A326989615A2A1ECE516515C5EC35FBFB63E78A6772D8BC4 00000000100b8c70     guideXOS.obj
 0005:00012cb8       __Str_GXOSBOOT             00000000100b8cb8     guideXOS.obj
 0005:00012ce0       __Str_GXOSSYS              00000000100b8ce0     guideXOS.obj
 0005:00012d08       __Str_Gage_Applied_Technologies_B8353761204B0CD2A11E76CAEC0F629BA12EEA4B623CB4AB311651B2C930360B 00000000100b8d08     guideXOS.obj
 0005:00012d50       __Str_Gainbery_Computer_Products_Inc_F0EA2A6357B5ED106CD4168D54989B5AABDCF7E3D9B82E762D64505D2DF0FDB2 00000000100b8d50     guideXOS.obj
 0005:00012da8       __Str_Gainward_GmbH_BEE468DC3B19101E66B89C7ACACD743045B0CD27065C92B5E68988C084A4BF5D 00000000100b8da8     guideXOS.obj
 0005:00012dd8       __Str_Galea_Network_Security_674DF5A3EB3FB477F48F8F88F47A94AF87806DEC99B4558D3A8B5457080AACFB 00000000100b8dd8     guideXOS.obj
 0005:00012e20       __Str_GammaLink            00000000100b8e20     guideXOS.obj
 0005:00012e48       __Str_Gammagraphx_Inc_4727038CD7ED4C4FAF9F025C6A1D44F22121DE9F825664AD2BBE177B301A80D0 00000000100b8e48     guideXOS.obj
 0005:00012e80       __Str_Gatec                00000000100b8e80     guideXOS.obj
 0005:00012ea0       __Str_Gateway_2000_67008035DDE72E03E67C0786A6BBA3144E21CDCD7DDDB00515BC1FD798B3F584 00000000100b8ea0     guideXOS.obj
 0005:00012ed0       __Str_Gateway___0___1___2___3__43A5CD2D229E4EFFD8C73E82A7F2E4AFBA197321F3A1740C5F4AA4AF11A0FF7E 00000000100b8ed0     guideXOS.obj
 0005:00012f18       __Str_Gec_Plessey_Semi_Inc_9D41B628A8B7A82183D96444749DB73A455573447BE73E68D799B9C1E69D3B80 00000000100b8f18     guideXOS.obj
 0005:00012f58       __Str_Gemflex_Networks_1B02FED7C2AB1DF51428728B331EECB466FA2D8C8C977DC4DF82032B66735F03 00000000100b8f58     guideXOS.obj
 0005:00012f90       __Str_Gemlight_Computer_Ltd_69725A948156D61C5F75F0DA9B106C39E8A03216517BC53034997E6475809A86 00000000100b8f90     guideXOS.obj
 0005:00012fd0       __Str_General_Dynamics_2B301561D05BC9E54819629FFFA11EA790075601EB6EC762559AC5EF8B6ED487 00000000100b8fd0     guideXOS.obj
 0005:00013008       __Str_General_Dynamics_Canada_A306224A20D7093D8C457B6B5B92476E0BB78E27DA35B100DF417F55804367A1 00000000100b9008     guideXOS.obj
 0005:00013050       __Str_General_Electric_8A6A6B2928895F157FA9DEA019829CA3DF48947FBCD1E6C1700EF603852B1346 00000000100b9050     guideXOS.obj
 0005:00013088       __Str_General_Instrument_9552A453574A45769BAB4D839B84BA1999520E5BD05E652826501E00769E9A0D 00000000100b9088     guideXOS.obj
 0005:000130c8       __Str_General_Signal_Networks_56576B56D23056C9873D8D35880AD0FF405E90098F9041852219EC80B6AB07F8 00000000100b90c8     guideXOS.obj
 0005:00013110       __Str_Generic_system_peripheral_F5A2A8D00322A4A76D2530D793FBAC15DD860EE1B1108A654DB3A495D44DD3A9 00000000100b9110     guideXOS.obj
 0005:00013158       __Str_Genoa_Systems_Corp_07E79FA9CD38601163C8DA2F4E4BF58FF5310BE6C9ABEAAAC3B1D8C0A6F7DC67 00000000100b9158     guideXOS.obj
 0005:00013198       __Str_Genrad_Inc_191BED4EF3469C60EEAA6D947F4C9E2F97CDFA4C8B54288E4EF9F0E5DF8A2DA8 00000000100b9198     guideXOS.obj
 0005:000131c8       __Str_Genroco_Inc_7942BE393EE3E2BDC681BCD8754856C5293FADD503BA5A4869C769804A7AB942 00000000100b91c8     guideXOS.obj
 0005:000131f8       __Str_Geocast_Network_Systems_Inc_BF34DCDD2B07D28F7CA64D12D7203A856CAFFDE518E647645DE1C00D271FA686 00000000100b91f8     guideXOS.obj
 0005:00013248       __Str_Gespac               00000000100b9248     guideXOS.obj
 0005:00013270       __Str_Gesytec_GmbH_7590E390E902390775FBD8AAA6237AC11AE0233F1942543AF552FF3454BE8371 00000000100b9270     guideXOS.obj
 0005:000132a0       __Str_GetTick              00000000100b92a0     guideXOS.obj
 0005:000132c8       __Str_GetTime              00000000100b92c8     guideXOS.obj
 0005:000132f0       __Str_Giga_Byte_Technologies_A17A47384A44E0EDA81C8E2020767A64044CE64567018E1B83A92BFE904D2E31 00000000100b92f0     guideXOS.obj
 0005:00013338       __Str_Giganet_Inc_21B0A5A32EA90EB9AD2B11F910A9158466CE0BA3A71C9052B49F5C9779B29811 00000000100b9338     guideXOS.obj
 0005:00013368       __Str_Gigapixel_Corp_E01B0B9993C7605FC2CC73A77925CB3AA67E8F29B7A6F97755BB731678604E21 00000000100b9368     guideXOS.obj
 0005:000133a0       __Str_Gigi_Operations_00763D80295D4A15D3EA78A6C05E2587159DB08581704849158CD7A4E15421CA 00000000100b93a0     guideXOS.obj
 0005:000133d8       __Str_Gilbarco_Inc_2E9386ED20ED9FC122DCD1A125DDEC4867164503E6862C12053E88F2BB9F822A 00000000100b93d8     guideXOS.obj
 0005:00013408       __Str_Glitch               00000000100b9408     guideXOS.obj
 0005:00013430       __Str_Glitch_Intensity__05910F70AD1F08207E5F9BA66556EBAE769A02004AFA1449DA092A5A23C3CC0B 00000000100b9430     guideXOS.obj
 0005:00013468       __Str_Global_Brands_Manufacture_Ltd_3C9DAD1D606E5E8B5645E0A57B67D0266375D89D8E13F9AC76D013968FA579E3 00000000100b9468     guideXOS.obj
 0005:000134b8       __Str_Globe_Manufacturing_Sales_2F2C3E632AAC55A0F7453D603CD9B6296915DD0243F7F22A43CE090B1C96790A 00000000100b94b8     guideXOS.obj
 0005:00013500       __Str_Globetek_Inc_F70E07523B73B6CB6E0CF660F4AB1C886B22E37A51E48E59F26C609DFC4293E5 00000000100b9500     guideXOS.obj
 0005:00013530       __Str_Glotrex_Co_Ltd_89DD6A8EF2004E5E3BFF7F2A9ADC1CCBE6ADA0AC088F467FF05654A42DF97132 00000000100b9530     guideXOS.obj
 0005:00013568       __Str_Goldstar_Co_Ltd_331D27E3D2A690191D1127D9223B2E72E762A1004D278051579FA49DFE6E18B5 00000000100b9568     guideXOS.obj
 0005:000135a0       __Str_Gradients            00000000100b95a0     guideXOS.obj
 0005:000135c8       __Str_Granite_Microsystems_D0C63D9E3181A3547C1A1896739BD88DF82CA2EBFB82ABA2503713C14B56E309 00000000100b95c8     guideXOS.obj
 0005:00013608       __Str_Granite_Systems_Inc_D90C57FB486F20068BB71B62BF4E17122F7D7ECDF726D42E33387D1059D83CEF 00000000100b9608     guideXOS.obj
 0005:00013648       __Str_Graphics_Microsystems_Inc_CD50AFF2F6A8C1812377B64FC7CA5B5EEE7CD1713998A7675673194F4693DE3A 00000000100b9648     guideXOS.obj
 0005:00013690       __Str_Graphics___0_x_1__DE82167C487A37EED06FAADE878090298ACC571E2C13ADC8036A24090A277886 00000000100b9690     guideXOS.obj
 0005:000136c8       __Str_Graphin_Co__LTD_25DD54E23F04B4C1612305D6AE537EE504596E2871B70ABA2C3502AAFDC9B4CF 00000000100b96c8     guideXOS.obj
 0005:00013700       __Str_Green_Logic_27B32B0CB008645E42A851C08F18EC68D6AA3B5A69DD23B62882FECEC13D27DE 00000000100b9700     guideXOS.obj
 0005:00013730       __Str_Growth_Networks_3FB42821D410623014750540033428EF7FD38B10BD60DD690945BAFA0C697DAD 00000000100b9730     guideXOS.obj
 0005:00013768       __Str_Guzik_Technical_Enterprises_4D2235A5029932F2D3471613E40BBDD5FE32477AA42A76FEB3EE12E40AD20709 00000000100b9768     guideXOS.obj
 0005:000137b8       __Str_HAL_Computer_Systems_Inc_DFFAA5C1DF26208EA6591C9F419F28862734A90151B77F387D188BE0C7E8C873 00000000100b97b8     guideXOS.obj
 0005:00013800       __Str_HI_FN_Inc_6B50519DF5882732827FC3D6E663348FD97774DE940DE984100C2509BB912CDF 00000000100b9800     guideXOS.obj
 0005:00013828       __Str_Hajime_Industries_Ltd_688C1326E3632A9997B55CC623F5738D52BDBA58D2D704BABF3248579E0D5F68 00000000100b9828     guideXOS.obj
 0005:00013868       __Str_Hamamatsu_Photonics_KK_73D9D410872D182471785B4FA1FF1071013926CE63B7DCEE3403D7A95DEFE598 00000000100b9868     guideXOS.obj
 0005:000138b0       __Str_Handshake_sent_0BEE98027CA0C9BE107A5AB0FD4DD6E6E2FA2A6DDA9283F7AE2A4976DB596282 00000000100b98b0     guideXOS.obj
 0005:000138e8       __Str_Hard_Disk_F36B4C0751F3B21C6391D5D606FF05B5A7EA4EC1147971ADB0C989EA07D8118B 00000000100b98e8     guideXOS.obj
 0005:00013910       __Str_Hardware_Inventory_B2C7B805F980D44A0848213097D8104BB80C388CCFDCC71910CBDC023A99B47F 00000000100b9910     guideXOS.obj
 0005:00013950       __Str_Harlequin_Ltd_A6A9A4B4C88EFC625CFE813EA4176A34BDE7C158A5798861D0E6068AF609BD75 00000000100b9950     guideXOS.obj
 0005:00013980       __Str_Harris_Corp_5F9E8F133C4455EFF0DB3AA9B0B9D18B07F93B9CBEF682A2FB97D65DDA48A3F8 00000000100b9980     guideXOS.obj
 0005:000139b0       __Str_Hauppauge_Computer_Works_Inc_F56E1B2905D41BFC8D3415E17FEF21A6ACAF9DD30337966B6E6FA92ADED11051 00000000100b99b0     guideXOS.obj
 0005:00013a00       __Str_Healthy              00000000100b9a00     guideXOS.obj
 0005:00013a28       __Str_Healthy__Active__340DD8BEF12DB168420464974D82F8192122326DC1B462DC9F2C1C42599091FD 00000000100b9a28     guideXOS.obj
 0005:00013a60       __Str_Heap_Base__0x20000000__512MB_r_A9582FFE26B465304E4CCA36E758B5CA999CD5C2C243795BA405509438687D3D 00000000100b9a60     guideXOS.obj
 0005:00013ac0       __Str_Heap_Free__FE6B8EA9BE100DE3B2DD942437EEB910879AA5B246CD3AAEFCC00BE525CDA62F 00000000100b9ac0     guideXOS.obj
 0005:00013af0       __Str_Heap_In_Use__B1EE648F79FF2529DD811A4E0C170CFCB8162E39DC8E03C9DFCA94561EF0BD9F 00000000100b9af0     guideXOS.obj
 0005:00013b20       __Str_Heap_Utilization__FED28C92FC37D767CD41DD2423CD91F1E47540AEE4D4919A9B11B73B3D4C399D 00000000100b9b20     guideXOS.obj
 0005:00013b58       __Str_Heidelberg_Digital_LLC_6C496F87AED4B33EA41659AF9007D240D1E5BF8CDD85616F58E1C58C20BF35B0 00000000100b9b58     guideXOS.obj
 0005:00013ba0       __Str_Height               00000000100b9ba0     guideXOS.obj
 0005:00013bc8       __Str_Hello_Demo_97D4F12F3A3D21E0D405327B4FFF99B18C27996194ED0A19F2FA96A8BE8852C6 00000000100b9bc8     guideXOS.obj
 0005:00013bf8       __Str_Hello_from_GXM_scripting__3107A1201AE6D3D4AD01B08B250A1E903CFFCBC4C6CDDB3D0C0AE0ABAEBD6410 00000000100b9bf8     guideXOS.obj
 0005:00013c40       __Str_Hello_from_exe__1F7CE0FD93E65615A080617D357E4CF78B774C91E634F739EC761B02253D5E92 00000000100b9c40     guideXOS.obj
 0005:00013c78       __Str_Hercules             00000000100b9c78     guideXOS.obj
 0005:00013ca0       __Str_Hercules_Computer_Technology_294607D5F61C6D1300BA2A0621158DC898977FA8CC0A8637B74C191CA8C4C344 00000000100b9ca0     guideXOS.obj
 0005:00013cf0       __Str_Hermes_Electronics_Co_Ltd_DA3F2283E3980E1BD40A90921872395FF72C13E1B808734AC94AF10DF6A6B5D3 00000000100b9cf0     guideXOS.obj
 0005:00013d38       __Str_Hermstedt_AG_0D6C31A333669DAA00AEDADC902B129CF94E3B41414DD7EC5CF418E1E9C38819 00000000100b9d38     guideXOS.obj
 0005:00013d68       __Str_Hertz_Systemtechnik_GMBH_5B9F1756311B9F746AC2C52BFBC08E5674E8CDFE657F13E5246E1AF4B676608B 00000000100b9d68     guideXOS.obj
 0005:00013db0       __Str_Hewlett_Packard_DE3363686FBE49CDEFD99C212FEABEE84BAE2E23D3601629362BF3DD03B32787 00000000100b9db0     guideXOS.obj
 0005:00013de8       __Str_Hewlett_Packard_B4755DFD2A4EA28E51F96E588273A7B2D477851DEE8B9AADD93BAC694AA6314A 00000000100b9de8     guideXOS.obj
 0005:00013e20       __Str_Hide_All_Demos_8253E139468804800D21F8AB75423FB08671AAB1F60310789041B0BCB57CF00B 00000000100b9e20     guideXOS.obj
 0005:00013e58       __Str_High_Street_Consultants_BA9D1510C457B7DA4282FA07EDE815BFE8295F175893363958DCEDBF1CAAFC28 00000000100b9e58     guideXOS.obj
 0005:00013ea0       __Str_High_Tech_Computer_Corp__HTC__87ED2631BB82B9E396AC0C381C47B2E6B4B2FD10C942D2749D6FB0D6AEEE4335 00000000100b9ea0     guideXOS.obj
 0005:00013ef0       __Str_HighPoint_Technologies__Inc_5B6F707F4FD4B334C23157C5CEBCC0CBC5477CB8AB86FBACCA2F7C9A1E4406CC 00000000100b9ef0     guideXOS.obj
 0005:00013f40       __Str_Highland_Technology__Inc_E015A62801E997AE0B2943DC156832E016257C778F940B6ABC65C8AE6EE4F35E 00000000100b9f40     guideXOS.obj
 0005:00013f88       __Str_Hightech_Information_Systems___174C7C5FE587F92B476327E0636B91E8BCFF3FC27F63AD22EFD58B87219EA8A1 00000000100b9f88     guideXOS.obj
 0005:00013fe0       __Str_Highwater_Designs_Ltd_016E358A60A7B9A6BA25AD1EF4CBEE1D21AE45364F18719193EFDB1C7F216BC2 00000000100b9fe0     guideXOS.obj
 0005:00014020       __Str_Hilevel_Technology_D8C8183EC99182DA2F7B9B3047A00D8026CC646E4F16B81C9A80FDD20E900D4A 00000000100ba020     guideXOS.obj
 0005:00014060       __Str_Hilscher_GMBH_8B86F2A141C12988A71C71A14BDC12425505A2769B540FCBCDE9D107785FB842 00000000100ba060     guideXOS.obj
 0005:00014090       __Str_Hint_Corp_427415C7AE41AD7B880729275F0B0DF2F664616977E2524B7AB76E51A2AF6A07 00000000100ba090     guideXOS.obj
 0005:000140b8       __Str_Hirakawa_Hewtech_Corp_B02A6856709C8FE45DD5B5EB5DF81301EE25E194D832F37F90B5B35BC6B0A021 00000000100ba0b8     guideXOS.obj
 0005:000140f8       __Str_Hitachi_Computer_Electronics_C2D7603619987EA039C28600C15A322500A49499D7639B3B482BF05618C2E93C 00000000100ba0f8     guideXOS.obj
 0005:00014148       __Str_Hitachi_Information_Technology_5E3DD1DBE557B23E50E896A3909A97F6AE103BFBF466E7565BF947B0AEE3C73A 00000000100ba148     guideXOS.obj
 0005:000141a8       __Str_Hitachi_Ltd_DC08D72CF88F4B36E21D43E3DCD92E52A2A32E0016E32831DDF1FA21170F0E85 00000000100ba1a8     guideXOS.obj
 0005:000141d8       __Str_Hitachi_Micro_Systems_Inc_D705AA1B6647115DCABA70F709A915A748BEF8C9F0C13E680A4A492D0FB5BE26 00000000100ba1d8     guideXOS.obj
 0005:00014220       __Str_Hitachi_Microcomputer_System_L_5E1EF2FA43840994AAC52FB2F497C92F02BBE20C025F550F62ED99919074D705 00000000100ba220     guideXOS.obj
 0005:00014278       __Str_Hitachi_Semiconductor___Device_F1E7B156DD2171E14B2DC69E139C7F018B8D8FB9238BAAA2BB7575273D09BA31 00000000100ba278     guideXOS.obj
 0005:000142e0       __Str_Hitachi_Zosen_Corporation_7B881C77594FA3BC5317C627F530283DB4250E6DFE23DD143201C70EB6CC5B06 00000000100ba2e0     guideXOS.obj
 0005:00014328       __Str_Hitt                 00000000100ba328     guideXOS.obj
 0005:00014348       __Str_Hivertec_Inc_34129C94404E2015386FECB0384A3C7E39ED2F36DE8938F4C614F4E70825E8C6 00000000100ba348     guideXOS.obj
 0005:00014378       __Str_Holtek               00000000100ba378     guideXOS.obj
 0005:000143a0       __Str_Holtek_Microelectronics_Inc_C0E8F35B8FA80DA04AFB62F7B7229988EB868C5F4A299E1E9B04B889D1F7F055 00000000100ba3a0     guideXOS.obj
 0005:000143f0       __Str_Honeywell_IASD_400FCD924C7A3A4137D390F046919653BBEB5A8D8AD279167F96C2D417A6D364 00000000100ba3f0     guideXOS.obj
 0005:00014428       __Str_Hopf_Elektronik_GMBH_BC237BC797384A2344808A1EDB473F5F6930C7A63FE0593779FD5D5F735F8609 00000000100ba428     guideXOS.obj
 0005:00014468       __Str_Host                 00000000100ba468     guideXOS.obj
 0005:00014488       __Str_Hotrail_Inc_B9A352D807C9B60F789078FC62EF62FD6DFA6D5965802BC3705782CAE0113B3E 00000000100ba488     guideXOS.obj
 0005:000144b8       __Str_Hsing_Tech_Enterprise_Co_Ltd_ECF33D8B1F37DA5A64442B8BDF6EC3342F8EEEFDFF9D34141D4DCF53B0F5F264 00000000100ba4b8     guideXOS.obj
 0005:00014508       __Str_Htec_Ltd_B95293A810713AF30D65476589CF46EA66E6D15A0B01275983E688946CF44CB6 00000000100ba508     guideXOS.obj
 0005:00014530       __Str_Hualon_Microelectronics_95BB9D106822A2E99E7FAE01E463169E5608969EF098D4648B743C91431C915B 00000000100ba530     guideXOS.obj
 0005:00014578       __Str_Huawei_Technologies_Co__Ltd_F181426EF66724911C2179EEFC0CA8E8D3906E689B99B606B2D4EF99D861580A 00000000100ba578     guideXOS.obj
 0005:000145c8       __Str_Hudson_Soft_Co_Ltd_0B452B3873F56A1F501096457206CBCB62CF65C235B93C3309F61F236170315F 00000000100ba5c8     guideXOS.obj
 0005:00014608       __Str_Hughes_Network_Systems_64B837F03CE4B20BED2BD70BC5F0A98826ECA12E355020099D2EFC8CEB488A81 00000000100ba608     guideXOS.obj
 0005:00014650       __Str_Humusoft_SRO_D8B4C112FDF78ACD4781C28EA025EBB3169B988ADE2233A26703ACF2CF5F9BBC 00000000100ba650     guideXOS.obj
 0005:00014680       __Str_Hybricon_Corp_1464BDC34B3E2C71F35F90C0CB8329041CE0A8BFD6315F2A1961AB29BE292BDF 00000000100ba680     guideXOS.obj
 0005:000146b0       __Str_Hypercope_Corp_AF7A5B608F8D8621AA7A3B4A01CFC52105DB9FE2D17CB4114D5EEFE43FCF40FD 00000000100ba6b0     guideXOS.obj
 0005:000146e8       __Str_Hyperparallel_Technologies_5B766BC0113B7EF9A3E771DA623A77B25AE3D2ABCD5E2CE5AE151288B11D44F9 00000000100ba6e8     guideXOS.obj
 0005:00014738       __Str_Hypertec_Pty_Ltd_5715AC06B67A71DA71E46370A79582FFBFB446DC4FFBC78134E69E088E9C521C 00000000100ba738     guideXOS.obj
 0005:00014770       __Str_Hytec_Electronics_Ltd_3CD8D7B9E2BFEE60DCF7E2CD34A5C351D9F1620E7B0AB630B369DB76C4E4AB16 00000000100ba770     guideXOS.obj
 0005:000147b0       __Str_Hyundai_Electronics_America_058F5C27A98467BB6E886D085EF6F7786AEE8543C39A7181C4FDAC6DF24078A6 00000000100ba7b0     guideXOS.obj
 0005:00014800       __Str_Hyundai_MultiCAV_Computer_Co_L_4F055C18081412B9EBFB4CBDE1D4C548CBC97FE77E4139ED9034ADBD95EA3C48 00000000100ba800     guideXOS.obj
 0005:00014858       __Str_Hyunju_Computer_Co_Ltd_A56BD3FA49767BCB0485026F97357A13E9352AF2198638E46B1CDAA8BAD0D4A0 00000000100ba858     guideXOS.obj
 0005:000148a0       __Str_I_Bus_B89A5D28957C7B61D1A94E4424F5A15FF94BE3707A96A207357E8762B323E8CE 00000000100ba8a0     guideXOS.obj
 0005:000148c0       __Str_I_Cube_Inc_23A8FF1ACE62E676D18D1CA29608B9F5230C0F0958261230E3E7DB09E30370C9 00000000100ba8c0     guideXOS.obj
 0005:000148f0       __Str_I_Data_International_A_S_B2357AA5DFB3B623A72F39DA6D9BB860BD4576B7B886B0851B0AF29F9615B62F 00000000100ba8f0     guideXOS.obj
 0005:00014938       __Str_I_O_Data_Device_Inc_FFA2545BA20D14EB05D4D66DA2A15BBA26AFEFA86C7B65B77EE967106F34D3E7 00000000100ba938     guideXOS.obj
 0005:00014978       __Str_IBM                  00000000100ba978     guideXOS.obj
 0005:00014998       __Str_IC_Corporation_2C59D6A68335127B75EC9FC831A03ABD6FC1787DB8D31AE48D7CB8AA55F63794 00000000100ba998     guideXOS.obj
 0005:000149d0       __Str_IC_Ensemble__Inc_C3B590697ABF59C2B4FC4EB619AF197E90E955BE5D079CB1642E9C9027BF9332 00000000100ba9d0     guideXOS.obj
 0005:00014a08       __Str_IC_Plus_Corporation_AAB6E4BEE435A4E7C42807152D761100770C26660B97D6C48DE63166EA7C897E 00000000100baa08     guideXOS.obj
 0005:00014a48       __Str_ICL                  00000000100baa48     guideXOS.obj
 0005:00014a68       __Str_ICM_Corp_Ltd_FE81B2E995E32FF0A690F7C6B512707480286F979D3FD8F3A3C5CA14D5F2CC05 00000000100baa68     guideXOS.obj
 0005:00014a98       __Str_ICP_vortex_Computersysteme_Gmb_57FA5847C35EE4B77BFCF02F4DF0B44F66DF529221366BB8ED64A78AFC3C542A 00000000100baa98     guideXOS.obj
 0005:00014af0       __Str_ICS_Advent_C76C8D93A43DD69F39D9D0D90B561B44CFF022F09046E6ECAA2AE3958E855E04 00000000100baaf0     guideXOS.obj
 0005:00014b20       __Str_IDE_bad_status_A4340D590FA84CCD8C75301D057B2E518ABCEA7EA8522D4B3D5C33ABEBBDC062 00000000100bab20     guideXOS.obj
 0005:00014b58       __Str_IDT                  00000000100bab58     guideXOS.obj
 0005:00014b78       __Str_IDTR__Base_0x_6ADB223313C0F7B7F8E04D06F81A1983312E6831A5BCCF9B90DD54865714BA2D 00000000100bab78     guideXOS.obj
 0005:00014ba8       __Str_IIX_Consulting_6ECC0056AA1EEF41C51C2F61A9D5EE1E78A75034EC1A9EFA80A35717FA8966B0 00000000100baba8     guideXOS.obj
 0005:00014be0       __Str_ILC_Data_Device_Corp_66F1D92B735E84B83AFDCCF9BC34E465F118A1C27D74A9584E9BE7830F82FACC 00000000100babe0     guideXOS.obj
 0005:00014c20       __Str_IMMEDIATE_CHECKS__PRE_EXISTING_E1A9BED40416839B441BCD1CE91BD50869AEC3972CF57913D22CA325D9627BB6 00000000100bac20     guideXOS.obj
 0005:00014c80       __Str_IN_Win_Development_Inc_BDA15120DD70508B3820186CBB6D377C9E77412C687AB7E8886E73E47CF3F2D4 00000000100bac80     guideXOS.obj
 0005:00014cc8       __Str_INH_Semiconductor_2B6CBF0E796075B50A6728B0E3ECC21D08390BBF120F9A7A94395200E06D90DE 00000000100bacc8     guideXOS.obj
 0005:00014d00       __Str_INPROCOMM            00000000100bad00     guideXOS.obj
 0005:00014d28       __Str_INSERT               00000000100bad28     guideXOS.obj
 0005:00014d50       __Str_INVALID_OPCODE_54C9591B5203C421C322A7A77E8C2F0AE28E0F9288BC942670E066AC6B19994B 00000000100bad50     guideXOS.obj
 0005:00014d88       __Str_INVALID_TSS_C62F37B994D6314510E6F050579212502983A0D22E662A0176CBB15DABFE9B12 00000000100bad88     guideXOS.obj
 0005:00014db8       __Str_IOI_Technology_Corp_16182D15FDBFACEDEE0D40381F774512CA0C36D378F9C595D4E71634866BAA39 00000000100badb8     guideXOS.obj
 0005:00014df8       __Str_IP_address_has_been_released_08AE2DEEA131E4AFD96DD941AD9C22FF236A7678E54BA48568514C83413878F4 00000000100badf8     guideXOS.obj
 0005:00014e48       __Str_IP_address__0D73FFD7F6A145514F518354F73B6DC69F1F73F6817A29FBC1437F2B867C1DF4 00000000100bae48     guideXOS.obj
 0005:00014e78       __Str_IP_settings__37BC1E2AE5ED89EB41965F76E41E279D484B1FA391234B7B3645DFDF7B1FA914 00000000100bae78     guideXOS.obj
 0005:00014ea8       __Str_IP___0___1___2___3__E3F6C5D2F2E28217AB88A4D01E6BDA5F604AC45BFCA1AA35458D81EA607E15DB 00000000100baea8     guideXOS.obj
 0005:00014ee8       __Str_IPC_Corporation_LTD_0129102F068F83B176FCA9AAB2BC013773AEA1919030DB53FC3F67D0D8CE3A65 00000000100baee8     guideXOS.obj
 0005:00014f28       __Str_IRC_Networks_77EB7074A640A00785B7BE7D8555FC539B033741E6BE6D509999B0D434CE8F1C 00000000100baf28     guideXOS.obj
 0005:00014f58       __Str_IRCNetworks          00000000100baf58     guideXOS.obj
 0005:00014f88       __Str_ISS_Inc_94477F915B9ECC7735CB5485D22BAB38C036F5FEF395ECB56D679534E7683FE7 00000000100baf88     guideXOS.obj
 0005:00014fb0       __Str_ITEC_Co_Ltd_66F78E35AD164B3D0C9D33CC93C2B096FBF07257F0DD81FD5C25DBCD7170D469 00000000100bafb0     guideXOS.obj
 0005:00014fe0       __Str_ITT_Aerospace_Communications_D_016FDF992E3D105F6698285F4F642CEB36789F4EAC481C794E71EF071FC5EFAF 00000000100bafe0     guideXOS.obj
 0005:00015040       __Str_Icon_Size_B4B9221B8F377C84EB383405B4CCEFDDC179C0E93814BE01A1193A4E78482B48 00000000100bb040     guideXOS.obj
 0005:00015068       __Str_Icon_cache_refresh_failed___ke_ED43C35A401DD101DA13C9A1937A18107FBAC1DDC49EC8A1F6EF06075D1D4718 00000000100bb068     guideXOS.obj
 0005:000150d8       __Str_If_you_reboot_without_removing_B8143156401F867EA492F7A43932B06DD6F9B6C2FA0563DA0493E01B3E12A871 00000000100bb0d8     guideXOS.obj
 0005:00015158       __Str_Image_Access_032835B698BB1811ECBBA5C89E16E9B23F411F0A93AF0D7A3F8C73908F450F55 00000000100bb158     guideXOS.obj
 0005:00015188       __Str_Image_Technologies_Development_0C1C393CC01A7639063FCD0035871B63FEAE5053F190BD29016E220727575FDD 00000000100bb188     guideXOS.obj
 0005:000151e0       __Str_ImageViewer          00000000100bb1e0     guideXOS.obj
 0005:00015210       __Str_Imagenation_Corp_B72B75EEBEB57D900A6F3D1A49F4EE63D70ACDEC34827212746CAB8952D88488 00000000100bb210     guideXOS.obj
 0005:00015248       __Str_Images_Banner_png_D65648DCB25465A71819AA95FE8BE5190647EA988FE8A207514EF2959BA89CB0 00000000100bb248     guideXOS.obj
 0005:00015280       __Str_Images_BlueVelvet__0__CEF8499CDE400536F1E1705B6BC5A3F62678EE058551D60E1319C9D059D29648 00000000100bb280     guideXOS.obj
 0005:000152c0       __Str_Images_BlueVelvet__0__applicat_454F70318E8A884CB89DF144A3B8C4C091C585803D8ABC4D39A6BA27E6418249 00000000100bb2c0     guideXOS.obj
 0005:00015328       __Str_Images_BlueVelvet__0__calculat_8E664ABDE0B5AC7506FC7832217C5FA2C6535DB10280877D0F6D8B8D42C6737E 00000000100bb328     guideXOS.obj
 0005:00015388       __Str_Images_BlueVelvet__0__calendar_34BE089697584E6600BE100F58A358F4E8B3742431403A034D841F7AA99DF646 00000000100bb388     guideXOS.obj
 0005:000153e8       __Str_Images_BlueVelvet__0__chat_png_4B096FF583A41AD4843485803D4B9BEEE413D361A3D8A4BE163066A1AF16D091 00000000100bb3e8     guideXOS.obj
 0005:00015440       __Str_Images_BlueVelvet__0__configur_BB37DC18A02C068CF9855297909128D7817E276ACFBD7D2818F7CAE0F4E3B369 00000000100bb440     guideXOS.obj
 0005:000154a0       __Str_Images_BlueVelvet__0__document_FAAB269067923C6A3D0305F8F9E35DCE0C63715BACD640C0B2661A470D800713 00000000100bb4a0     guideXOS.obj
 0005:00015500       __Str_Images_BlueVelvet__0__edit_png_2253F96088ED48E0F602050AB4E200E7C2B32657515D57ABDD01B9B851C45D5A 00000000100bb500     guideXOS.obj
 0005:00015558       __Str_Images_BlueVelvet__0__folder_p_78A0A5FD54F95744E185B11F4971E45DE887A99A50D2CC82EFCB80757264A0A6 00000000100bb558     guideXOS.obj
 0005:000155b0       __Str_Images_BlueVelvet__0__image_pn_98F8DF0650898431E8E24BB89904FF0D0DFA8060EF27BA8E015B465D2C8D242F 00000000100bb5b0     guideXOS.obj
 0005:00015608       __Str_Images_BlueVelvet__0__lock_png_64BB191EF3A767501FDEBDF073DCA4F05A56D787BAE63B8E01292FBE7E390B0D 00000000100bb608     guideXOS.obj
 0005:00015660       __Str_Images_BlueVelvet__0__music_pn_6566A710C0B7925F2EDD7DEF85E766396CAD6E4704D40673B4EB1EEFD0F803B0 00000000100bb660     guideXOS.obj
 0005:000156b8       __Str_Images_BlueVelvet__0__network__2AD97E6F88A98832ED7293F88F466B1859E1F4CFDE13E961B0782E8B07405F2E 00000000100bb6b8     guideXOS.obj
 0005:00015710       __Str_Images_BlueVelvet__0__notepad__547B0A45B60D63D9800B0AE1F67E1F9B6ABAD850DA6E63EB7A2AFAD86055C1E6 00000000100bb710     guideXOS.obj
 0005:00015768       __Str_Images_BlueVelvet__0__pause_pn_C4C1120FCA5415B190DAB7C530FCBBA763304A3E4640CDE81224F3BCBB1BD917 00000000100bb768     guideXOS.obj
 0005:000157c0       __Str_Images_BlueVelvet__0__play_png_922852AA88857B6D2AB3F57238C90C482283EB7DCBEB068CC5B948E9AB7F35DD 00000000100bb7c0     guideXOS.obj
 0005:00015818       __Str_Images_Yahei128_png_76A2CBEC77C5D986807BC1880DF83C4C461D690EEDC26E89134B4DF7CB9674CA 00000000100bb818     guideXOS.obj
 0005:00015858       __Str_Images_startmenubutton_png_3CE027CECA207A20B30D6AD8952F77AB0B72E0A77CDE8C70FB0E9A07431E6D6E 00000000100bb858     guideXOS.obj
 0005:000158a8       __Str_Images_startmenubutton_over_pn_85A1781EFA99FB0B601CB1A0A64B2F850AEB86723F8AC9EBEA6D20F77BFCFA98 00000000100bb8a8     guideXOS.obj
 0005:00015900       __Str_Images_teamnexgenlink_png_E971834CD58DA7F6E244C5FF2E7857818E02FC43D9305A39E9B2ADBD086768BB 00000000100bb900     guideXOS.obj
 0005:00015948       __Str_Images_tnlogo_png_5F007545BCD041E857A2E5C1E7A402CBE376423AD9072B3207D0D98FC5FBFE86 00000000100bb948     guideXOS.obj
 0005:00015980       __Str_Imaginant            00000000100bb980     guideXOS.obj
 0005:000159a8       __Str_Imagraph_Corporation_CBCF49C078EC6C246AB023AD28DE4FA416B75255049F799CA4F9A726E2A28C6A 00000000100bb9a8     guideXOS.obj
 0005:000159e8       __Str_Imation_Corp___Medical_Imaging_B53C65CE63524972812D58857755443035F872EA36A36CCF6A5654A90840BA27 00000000100bb9e8     guideXOS.obj
 0005:00015a48       __Str_Imodl_Inc_1F8D88A29E0F207922E2DD4A2B2BC64C228C9D37E4A9091AA97316E1CF385428 00000000100bba48     guideXOS.obj
 0005:00015a70       __Str_Impacct_Technology_Corp_58C1D52CC8137B059B5F510D5B549B02C5754E2BF90770C0417D1D1018C1A591 00000000100bba70     guideXOS.obj
 0005:00015ab8       __Str_Impact_Technologies_103F566D4CF6EB9EDCFE250A4A1A6C578867F380E9E883E0AB11A938A1DDAA36 00000000100bbab8     guideXOS.obj
 0005:00015af8       __Str_Implode              00000000100bbaf8     guideXOS.obj
 0005:00015b20       __Str_In_use__D5EC98226E7B2DBE9BFAC5D66B9E1654641F59FD7DDD87E7E8DFA706147B426C 00000000100bbb20     guideXOS.obj
 0005:00015b48       __Str_Inari_Inc_04E3EA3EAC9DE45E19295DFC23721B652AEF01D4E15693C3097329CB0B1121BC 00000000100bbb48     guideXOS.obj
 0005:00015b70       __Str_Index_Out_Of_Range_Exception_0108F3A5E7999B46899A5F2F4A926D277374A00B9411092F771E427BD0366012 00000000100bbb70     guideXOS.obj
 0005:00015bc0       __Str_Indigita_Corporation_DCACB98FE9AD28697A5C293E18642BE4B41623AB4D5C104EF8F3DD34ABEB6ABF 00000000100bbbc0     guideXOS.obj
 0005:00015c00       __Str_Inet_Technologies_Inc_3DAB47C43518B4ECCE289BE8C7950E6A706851125915A7C269E77E67E538727D 00000000100bbc00     guideXOS.obj
 0005:00015c40       __Str_Infimed              00000000100bbc40     guideXOS.obj
 0005:00015c68       __Str_Infineon_Technologies_AG_3AEDDA8E97408706FEF101E975780A07B26F1A015BDF4A4A907CA671B5D730E1 00000000100bbc68     guideXOS.obj
 0005:00015cb0       __Str_InfiniCon_Systems__Inc_15FFD8B9F2EBB82B1730CE97F3A2B5036B90E2B0170099A1A639D4D67ECB12DB 00000000100bbcb0     guideXOS.obj
 0005:00015cf8       __Str_Info_Tek_Corp_35CEBC9F40622BCDE5219C1811F53A24EC56B0EEE857CE1F0A7E9C9E5B7F507E 00000000100bbcf8     guideXOS.obj
 0005:00015d28       __Str_Infomedia            00000000100bbd28     guideXOS.obj
 0005:00015d50       __Str_Information_Technology_Inst_51A4DD57AA9C7B88F274A6438AE3D17ECEACD7F514E4F33E37F7461AFDA4915A 00000000100bbd50     guideXOS.obj
 0005:00015da0       __Str_Infortrend_Technology_Inc_076897263212B3F900CFEEF3B1D36ABB39348314B5BD2DBEAE9C865775FFD926 00000000100bbda0     guideXOS.obj
 0005:00015de8       __Str_Infotronic_America_Inc_D07C46AEB6254006C17061AB876A5CF2DA29E14CC7FC4659153665A0C17EA1DA 00000000100bbde8     guideXOS.obj
 0005:00015e30       __Str_Initialized          00000000100bbe30     guideXOS.obj
 0005:00015e60       __Str_Initio_Corporation_78A4C84FEF0D2A2C781B4120854BC1785A0337B6DFF523881BAC4CA42090CCDC 00000000100bbe60     guideXOS.obj
 0005:00015ea0       __Str_InnoSys_Inc_21AF7B5DD004DE8D302373D6E1C483D0F4BA0E4213AD01E8D3EAFFCF168463B5 00000000100bbea0     guideXOS.obj
 0005:00015ed0       __Str_Innomedia_Inc_1CC4E47A93D0263772CC724139C21E3BF12EDF2E8420C82A095E01B3D6A8007E 00000000100bbed0     guideXOS.obj
 0005:00015f00       __Str_Innomedialogic_Inc_7DD16E97EA05C8526001935B130DCB802E872DB01818302C3E2E4AAFBB99832B 00000000100bbf00     guideXOS.obj
 0005:00015f40       __Str_Innovative_Integration_96DACF461542EB83DC501EB68D529F4B7DDEA8A58FA383D0DE05510B146B848F 00000000100bbf40     guideXOS.obj
 0005:00015f88       __Str_Input_device_controller_2DC0271626A35EE4D244058CF95E053D3ADD0A35744222F472628921328A37CA 00000000100bbf88     guideXOS.obj
 0005:00015fd0       __Str_Input_handling_error_8D7DFA68567D5EACE872F809F6E0AF6A5A5B99A43799D98B64D3759294C5EB6E 00000000100bbfd0     guideXOS.obj
 0005:00016010       __Str_Install              00000000100bc010     guideXOS.obj
 0005:00016038       __Str_Install_guideXOS_to_Hard_Drive_248A6F29870EF39E989FFED0BEA5D4299D3E92953D79B21279518682E0FF12CB 00000000100bc038     guideXOS.obj
 0005:00016090       __Str_Install_to_Hard_Drive_E07C2AF03D7B94EC0C0A8D451AE2F0BD384D8DE5B5910F83422F56EAB118046B 00000000100bc090     guideXOS.obj
 0005:000160d0       __Str_Installation_Complete__8082F4F6C380F89734973F1DE0962BF68950DC735FB3106C638C8CC1D76721CF 00000000100bc0d0     guideXOS.obj
 0005:00016118       __Str_Installation_complete__5EC8CAB93D98C70E14312C0C0B053D22CBA15039C15837B33F4EFAABC478A429 00000000100bc118     guideXOS.obj
 0005:00016160       __Str_Installation_media_removed___R_A250F8BE2AED606A4A8B74800875C75D77A69A9727D2490F270F4408298AE5BD 00000000100bc160     guideXOS.obj
 0005:000161d0       __Str_Installing_bootloader____21381119668AE0776D47913458E17BC82F30533F4E2246C2D3C43609519AB9EF 00000000100bc1d0     guideXOS.obj
 0005:00016218       __Str_Installing_guideXOS_8ECAF9B6F4A09325936F0C2E16BB6964784E3CD083D3AB390F81D83219F7CEC2 00000000100bc218     guideXOS.obj
 0005:00016258       __Str_Installing_guideXOS____C1BA2B48B3FCDE0A02CCF8EE4E698992B72A6944FDA5E2CF86025F6F9FE97A62 00000000100bc258     guideXOS.obj
 0005:000162a0       __Str_Installing_to_your_hard_drive__138C97AC5F70EBA7E0C95C70D6DC8A8D9C1DC8D0F41CB49F15FFCD7C45037A39 00000000100bc2a0     guideXOS.obj
 0005:00016310       __Str_Instruction_Pointer__0x_80FE9B0417F46A53A0ED7FC8B518DA08C48C15780464A8FD75FAD97EEE9B4ADB 00000000100bc310     guideXOS.obj
 0005:00016358       __Str_Insyde_Software_Corp_24AE12B87FE534D1E0238F53CBD5DB1655D1819C2CBFA3D40A9A6B70F70C35EF 00000000100bc358     guideXOS.obj
 0005:00016398       __Str_Int_Labs_5E3B860E24278D8BDCA258387E6BEAE8775E32C7DFBBB82042BBD2F3570ED52A 00000000100bc398     guideXOS.obj
 0005:000163c0       __Str_Intec_GMBH_21F81FC8AA68990960D1C27D5AE738544BB4801389E86EAD2CFFE0BD3AAA224E 00000000100bc3c0     guideXOS.obj
 0005:000163f0       __Str_Integral_Technologies_281A645650FA8C86483FB84501CF987EFF3416FD029845B4088E714CC896F74D 00000000100bc3f0     guideXOS.obj
 0005:00016430       __Str_Integrated_Circuit_Systems_DDEBF6323BF5915237EC7552D4929613001FF9ADF3B6ECF4875397C2822BA9FB 00000000100bc430     guideXOS.obj
 0005:00016480       __Str_Integrated_Computing_Engines___3D94FC986DD8A391FE1AB0C6BEA1D89DEF927720F25BF8E957581C169FC9DCB9 00000000100bc480     guideXOS.obj
 0005:000164d8       __Str_Integrated_Device_Technology_I_93496EFCAE1330B104A6F79AE50FA98B196E71AF6B03D9F5AE20E09B3F7211A0 00000000100bc4d8     guideXOS.obj
 0005:00016530       __Str_Integrated_Telecom_A03E60959BF6DC44F28A686EFB938A886B86FE99CBA0AAD17C22514795B0A285 00000000100bc530     guideXOS.obj
 0005:00016570       __Str_Integrated_Telecom_Express_Inc_527A34E528CC360CDCAA5D6E4863B1D3A2DDFC0E81D9FEBDC80E978AC4A9B659 00000000100bc570     guideXOS.obj
 0005:000165c8       __Str_Intel                00000000100bc5c8     guideXOS.obj
 0005:000165e8       __Str_Intel_Corporation_6F8B852A4DDFDC8AC6277AC38CF3399CE9854C17A400B714659F63DF4D0061BF 00000000100bc5e8     guideXOS.obj
 0005:00016620       __Str_Intelligent_Paradigm_Inc_EB849DF5A313C98564635DCD65E06439534102304687C1168EA2AF1EE09262AA 00000000100bc620     guideXOS.obj
 0005:00016668       __Str_Intelligent_Resources_577A03CE29D26E106BB736BCE71EC63C15015D4A353704BA8B7236C33B32BDAC 00000000100bc668     guideXOS.obj
 0005:000166a8       __Str_Intelligent_controller_5A8B8BDE14EF112DAF874B33E7ABDE34D99AD5AE518F401C7EA5D27E72FB2954 00000000100bc6a8     guideXOS.obj
 0005:000166f0       __Str_Intelliworxx_Inc_84441AA0468D0FD645BC00C89796CD7D06EA6DCC686D4833BEDB1FB3269DF216 00000000100bc6f0     guideXOS.obj
 0005:00016728       __Str_Intellon_Corporation_D0D51BC595CBC1A42AE90D499A564E1A47C120F327424B68A2475981968D5566 00000000100bc728     guideXOS.obj
 0005:00016768       __Str_Interact_with_controls_to_test_9DEDC48B37AC74035510560C603978277A319E7348BBD039701E15DACE6917CC 00000000100bc768     guideXOS.obj
 0005:000167e8       __Str_Interactive_Circuits___Systems_2A06B8CECD146DFF5379AA535819149CC2614C6B94014E91F4152916FECE8557 00000000100bc7e8     guideXOS.obj
 0005:00016848       __Str_Interactive_Computer_Products__723A3485593ED76EEF359D2C31D996D405F0D3FEFA78F2E9366950C056FFBAE7 00000000100bc848     guideXOS.obj
 0005:000168a0       __Str_Interactive_Images_5B76E7D5D1A301565D96B898E24373D086B2ADB9577BD8EB04C559BB40D3F9B4 00000000100bc8a0     guideXOS.obj
 0005:000168e0       __Str_Interagon_AS_632CF20B858029480009114B573754D5251AE7853D8B279F99745BDCC27232F3 00000000100bc8e0     guideXOS.obj
 0005:00016910       __Str_Intercom_Inc_398DAA927D04DCEAF50940C224D776FA569481B9767484B7A9EA888EA620C828 00000000100bc910     guideXOS.obj
 0005:00016940       __Str_Interconnect_Systems_Solutions_7BA7A95CCACC1CA8F78270583E543F76779C687CDA5FF428230E9CE478D3C93B 00000000100bc940     guideXOS.obj
 0005:00016998       __Str_Interface_Corp_EB2372C7511C969B51C333CACA4F1B0C6A09A5B4102DC0D84608B4FB0E26FD22 00000000100bc998     guideXOS.obj
 0005:000169d0       __Str_Interface_Corp_Ltd_698FADBB160B0E48FE2EB169575945C93B0327FBCCE84B8A2A6DC436EAEDBE0D 00000000100bc9d0     guideXOS.obj
 0005:00016a10       __Str_Intergraph_Corporation_42BFFCFDE090BCE468CBA656F7F76BEFA47DE9552764ED75DE01FA7EDB286CE6 00000000100bca10     guideXOS.obj
 0005:00016a58       __Str_International_Business_Machine_BD0857D282F7C90FFAEF95AECF4551CC7EE79402C132565EACE3085AE1EBC57D 00000000100bca58     guideXOS.obj
 0005:00016ab8       __Str_International_Microcircuits_In_B184CC2264E2A743A42E5CC719792A5DFF409E2969EEA0B55DD2DCB076FA0762 00000000100bcab8     guideXOS.obj
 0005:00016b10       __Str_Internet_Machines_Corp_71A7FED690A6150324035D9A2A8685A492609295532A105E5592CC756543E754 00000000100bcb10     guideXOS.obj
 0005:00016b58       __Str_Internet_Protocol_Version_4__T_163362E66822A9F961BD7A72EABECCD2B66741E44E3495CB9DC9208805D4279B 00000000100bcb58     guideXOS.obj
 0005:00016bd0       __Str_Internix_Inc_AE8FD08D3ED3D0EF8CA959FC01C32A741619192725C121BC23201CAFC2F6BACE 00000000100bcbd0     guideXOS.obj
 0005:00016c00       __Str_Interrupts___E877B41AAE2ACA27BB428F65ADC7882A1405EB09F107DFEE450D0B8159AB4DF8 00000000100bcc00     guideXOS.obj
 0005:00016c30       __Str_Intersil_Corporation_33ADA9DF6171AB3FDCAA9070746C5DC878566D536C2A52257C189D3DAF3CF70A 00000000100bcc30     guideXOS.obj
 0005:00016c70       __Str_Intervoice_Inc_8BA1D1CF7656DEEF842970CD4EF3D9C2FDCC36CD216E256DE049EDB35F81431D 00000000100bcc70     guideXOS.obj
 0005:00016ca8       __Str_Interware_Co_Ltd_479A96BA2C8A2FB6D124A43AB4FC2D146AB563CA56D114CC0EB854BCB557134A 00000000100bcca8     guideXOS.obj
 0005:00016ce0       __Str_Intraserver_Technology_Inc_A7F91BF6BCDA7DC4374951FF2656C062D0FF728C2D5A7B4CCC850AD22B7D47EB 00000000100bcce0     guideXOS.obj
 0005:00016d30       __Str_Invalid_address_7AC5EA86BEB9120D370C3BAD3E7ED36E4C71A46767A05393B7FF8E4872782BE0 00000000100bcd30     guideXOS.obj
 0005:00016d68       __Str_Invalid_header_763C92B10394727C430865E831B08A724DFA3E9C21BADB02714E1633F52891E2 00000000100bcd68     guideXOS.obj
 0005:00016da0       __Str_Inventec_Corporation_A633F68ED4B36CC655B0B9349A793A44128F6301972E438057EAACF6E10FF561 00000000100bcda0     guideXOS.obj
 0005:00016de0       __Str_Iotech_Inc_93497498BF852E740345BE668856D29DE5DF3E9D1610744488BACA1BBC2E7D0C 00000000100bcde0     guideXOS.obj
 0005:00016e10       __Str_Ishoni_Networks_0AFF329B93BEA2B3B5C012373DB149AE56B518D47E985FF389E0F1F0F7CAD715 00000000100bce10     guideXOS.obj
 0005:00016e48       __Str_Isytec___Integrierte_Systemtec_7DF93D9E85B04C078143D7AD9087DDF474527307A2D0B59565D0B17156092B3A 00000000100bce48     guideXOS.obj
 0005:00016eb0       __Str_Italtel              00000000100bceb0     guideXOS.obj
 0005:00016ed8       __Str_Iwasaki_Information_Systems_Co_5B712FF92FE6904EA97F4A790B5B66AF07416CD9B60F72AD36507757D4709656 00000000100bced8     guideXOS.obj
 0005:00016f38       __Str_Iwatsu_Electric_Co_Ltd_324D71F6AEB5E1F6236CCAF49547EEFDD9F43DB9777C57D77B02F3232463FCEF 00000000100bcf38     guideXOS.obj
 0005:00016f80       __Str_Iwill_Corporation_EF15680E58BA2C1C29E1DF3B66A3AAD69A6CEA852DE6328B42CF884D24ABB0D9 00000000100bcf80     guideXOS.obj
 0005:00016fb8       __Str_J_Bond_Computer_Systems_6004C98A5D25B1F92BF14D2348D6E938F2812D1B10280FDAE40AAE275055AC16 00000000100bcfb8     guideXOS.obj
 0005:00017000       __Str_JAE_Electronics_Inc_02F9DB8121844AA000D838086B3802DCC839849C00040DE420D99E40EF5F6D05 00000000100bd000     guideXOS.obj
 0005:00017040       __Str_JMicron_Technology_Corp_4CC68AEBB678F42649DB789B126F83151AF16999228E9EE60A00A03E623AEF81 00000000100bd040     guideXOS.obj
 0005:00017088       __Str_JNI_Corporation_3ADDEA8F61D6D5D9CD495F96F060939FF618A9BA1B69F3FCFB59C39DD76D5ECB 00000000100bd088     guideXOS.obj
 0005:000170c0       __Str_JOIN__A02775B5CF3D48003D1F0690C1EDBD07721DEDC9E3B07AB647FE0081D42786BA 00000000100bd0c0     guideXOS.obj
 0005:000170e0       __Str_Jabil_Circuit_Inc_F1D73CEEBCDE598E42B2E1CBCE2C5F3EF00A0FFC40F52652F8F46C8AB0201ECC 00000000100bd0e0     guideXOS.obj
 0005:00017118       __Str_Jace_Tech_Inc_5EF4C844EE588AE32EAE646B1BE58782EB02ABE7FFEC5E42586E7ED8533DBD49 00000000100bd118     guideXOS.obj
 0005:00017148       __Str_January              00000000100bd148     guideXOS.obj
 0005:00017170       __Str_Janz_Computer_AG_2FBE89D618095A1AF088AE3E6BC450399789CAF6EB0D7CF8E138EDEA728C6BC6 00000000100bd170     guideXOS.obj
 0005:000171a8       __Str_Japan_Elecronics_Ind_Inc_83A074E1F20BBD175A5A9D51366F895264D359D5F00A3E718EDECDAB8ABA51DB 00000000100bd1a8     guideXOS.obj
 0005:000171f0       __Str_Jato_Technologies_Inc_41F083E4004FCE3FDB1C5553F02704C43FDE066330A87156D2BC0F9ECD94E2D0 00000000100bd1f0     guideXOS.obj
 0005:00017230       __Str_Jaton_Corporation_USA_3ED9C452C9FBD060D3982DA65665CA266A9D7CA4681C81C481BBD162F1345543 00000000100bd230     guideXOS.obj
 0005:00017270       __Str_Jazz_Multimedia_005D3E9AC807A5EDB5F0349F815EE8AD03ACD29FFBC6804DFAC5D98C217293C2 00000000100bd270     guideXOS.obj
 0005:000172a8       __Str_Jean_Company_Ltd_C1C36ABC50C4C34C46DAECE12729184D53DF4A06DA06BA4A9459676108D820CB 00000000100bd2a8     guideXOS.obj
 0005:000172e0       __Str_Jet_Propulsion_Laboratory_3E087B98F210362B66D000CDF1838A052733BD3E603F075B792F21E7CAFF6DB7 00000000100bd2e0     guideXOS.obj
 0005:00017328       __Str_Jetway_Information_Co__Ltd_B5CB04CC571A9BC85B035370B5922299E0DDB43C89E8113917E91E39C5F3FA4B 00000000100bd328     guideXOS.obj
 0005:00017378       __Str_Joining__1813A252D5BE89D699EFC6E4072507C3AB601A05E45A223A02E202DBE958E160 00000000100bd378     guideXOS.obj
 0005:000173a0       __Str_Jorge_Scientific_Corp_AE15042039F447EBBB80FCD1F755ACD82856C9B46D73A3FEC43EF06CD2824D16 00000000100bd3a0     guideXOS.obj
 0005:000173e0       __Str_Joytech_Computer_Co_Ltd_5EBC4383B0A697F64B04AA9C7A101C88861C0ABE79F34F4FEE0F971D3ABE6142 00000000100bd3e0     guideXOS.obj
 0005:00017428       __Str_Juko_Electronics_Inc_Ltd_23C4F0C94F2A4614A94AABCF0484C4EC247143C25AE63DE9987C1880B7C58410 00000000100bd428     guideXOS.obj
 0005:00017470       __Str_July                 00000000100bd470     guideXOS.obj
 0005:00017490       __Str_June                 00000000100bd490     guideXOS.obj
 0005:000174b0       __Str_Jungsoft             00000000100bd4b0     guideXOS.obj
 0005:000174d8       __Str_Juniper_Networks_Inc_0DAB7DA0374C83E5ACBAE3E7DC03C4488EC22992EC23C8862346AC7A4180EEF9 00000000100bd4d8     guideXOS.obj
 0005:00017518       __Str_Jupiter_Systems_88CA764154FBA485894648600BDD2ECD13EA7D00CD9B28D4F8CC199E75BCB431 00000000100bd518     guideXOS.obj
 0005:00017550       __Str_KDS_Innotech_Corp_42DA558CBE26F2B8D8A584B5C18D604DA5E5CBE2617F0F1F0A611C211F007B0A 00000000100bd550     guideXOS.obj
 0005:00017588       __Str_KERNEL               00000000100bd588     guideXOS.obj
 0005:000175b0       __Str_KI_Technology_Co_Ltd_646521F905ADD98CCF9CAF7B534B9E5231759BA42186404B411BBE98AC57FD25 00000000100bd5b0     guideXOS.obj
 0005:000175f0       __Str_KRF_Tech_Ltd_28A1F71F247D53E9BEAF670D90EAFF8EB761532553DEBC26430810FABC7AC8B1 00000000100bd5f0     guideXOS.obj
 0005:00017620       __Str_KUKA_Roboter_GmbH_C1902F1D9293F1765D40ECFDC7E697CBFB9D0FEC0BE8F29CCBA91B32C5F1A5CA 00000000100bd620     guideXOS.obj
 0005:00017658       __Str_KYE_Systems_Corp___Pixart_Imag_BE37354A8B85739517E4446C056DD6B3C4C0EB8998047AB8AC5D7EA3CDB70B7D 00000000100bd658     guideXOS.obj
 0005:000176b0       __Str_KYE_Systems_Corporation_2CB1C7A54E39DF66A81F5B448AE859776C0750820D916DB611BA0A8FAAD5E383 00000000100bd6b0     guideXOS.obj
 0005:000176f8       __Str_Kaiser_Electronics_EAEEA948C5C0328370A3454892F6E1581977FC090B4F4D7C6A21DC864E07EEC6 00000000100bd6f8     guideXOS.obj
 0005:00017738       __Str_Kasan_Electronics_Co_Ltd_77B51D245352F5D8B59AE05FF82A8D0F69BF08C30AD9010EA2B06EBAE89D16DA 00000000100bd738     guideXOS.obj
 0005:00017780       __Str_Kasten_Chase_Applied_Research_FEBFC6FD2481C39A2659C108FE520EAF75294D0739F2811D7ACDC70923E5F9B6 00000000100bd780     guideXOS.obj
 0005:000177d0       __Str_Kawasaki_Heavy_Industries_Ltd_D985729E47D4DCAF20079920259E26099252DE799E21C55435F691CCD3D97B38 00000000100bd7d0     guideXOS.obj
 0005:00017820       __Str_Kawasaki_LSI_USA_Inc_190AC6FEBED904A9FF64EDAE6A22C6938627348CACB847FDA8C8DA33CD1F6EE7 00000000100bd820     guideXOS.obj
 0005:00017860       __Str_Kawasaki_Steel_Corporation_4D72F03C955864B7AC71E038BD205004D8DE68A3CE4BA10BB5A97D44B69744D5 00000000100bd860     guideXOS.obj
 0005:000178b0       __Str_Keep                 00000000100bd8b0     guideXOS.obj
 0005:000178d0       __Str_Keep_this_resolution__Revertin_F1047C8E269E52D7599D64B833E9AF1EE2C5E5580F5C2CEF75C4CB2EAAA73020 00000000100bd8d0     guideXOS.obj
 0005:00017930       __Str_Keithley_Instruments__Inc_89967E163BB466EDBC603DEAAED46559FD440143F6307F301C2A6937035ABCDC 00000000100bd930     guideXOS.obj
 0005:00017978       __Str_Kinetic_Systems_Corporation_2FF227DAE46634485FB6FE442FA99AE80B5432B282C20EDA1BF0EA03D6BEB8BB 00000000100bd978     guideXOS.obj
 0005:000179c8       __Str_Kingmax_Technology_Inc_43D5D0F6C7B15BBE545F2EEC072BAFB12968D0A9F2F1A5216DD5735DB3412D57 00000000100bd9c8     guideXOS.obj
 0005:00017a10       __Str_Kingston_Technology_Co_B7112F45A044903D1EF64CDCB5F888626DD1910EEA7E12CC9D7054DE54B24B60 00000000100bda10     guideXOS.obj
 0005:00017a58       __Str_Kinpo_Electronics_Inc_241E722796B76C20A7E06926D49C987685CE35BB9C861CE7502001ECD45E45A9 00000000100bda58     guideXOS.obj
 0005:00017a98       __Str_Knowledge_Technology_Laborator_0F7AEDBFA69A498F716FDAA162E08E92282A42E918177897AA7E9E3D980B1F7A 00000000100bda98     guideXOS.obj
 0005:00017af0       __Str_Kofax_Image_Products_3BA018E16E7336B705FF14E8DAD9B6E9D78B6D85F15E0C99337585DA0269DB9E 00000000100bdaf0     guideXOS.obj
 0005:00017b30       __Str_Koga_Electronics_Co_5E6F54A5CAEE00ADEDDDCF567395651B00FE75A5AED55091E843CBCFDADDE7B9 00000000100bdb30     guideXOS.obj
 0005:00017b70       __Str_Kollmorgen_Servotronix_C42A8B3E5CC70673036933B07A178DE9235F734978D773D34A199E637DE9DF18 00000000100bdb70     guideXOS.obj
 0005:00017bb8       __Str_Kolter_Electronic___Germany_D9453AF93BD3CD242067D96CB6C3F09430045DDAAE37ACF37738DBC48C5D3753 00000000100bdbb8     guideXOS.obj
 0005:00017c08       __Str_Komatsu_Ltd_62DB7BF2957EC2C3CEAC3F88007AE2996D5F9862BFA70A36975CC80CDBF67FC6 00000000100bdc08     guideXOS.obj
 0005:00017c38       __Str_Kondo_Kagaku_9E89A7A58F3355D6B7A2259D254DEA42EBF4D8904D61FE79A76D531351EC6C5C 00000000100bdc38     guideXOS.obj
 0005:00017c68       __Str_Kongsberg_Spacetec_as_999C7DD6737BF14BDA40B694CFF02F9A8D9C55A0993280E89E4151761B3A8B32 00000000100bdc68     guideXOS.obj
 0005:00017ca8       __Str_Konica_Corporation_5B21E236AF4D434D2A90E4BAD94DE569452E5C919EB334DCAB3B2E9809087F1C 00000000100bdca8     guideXOS.obj
 0005:00017ce8       __Str_Kontron_Canada_847C102F3DBB8D57052D0A1429BEE261B36BDE75E05CD29E8551F4D697BF381B 00000000100bdce8     guideXOS.obj
 0005:00017d20       __Str_Kontron_Modular_Computers_GmbH_3F1798F929EAB4508CC0755A70A1149465B8DD462EF24BED2FE632EC9E853915 00000000100bdd20     guideXOS.obj
 0005:00017db0       __Str_Korg                 00000000100bddb0     guideXOS.obj
 0005:00017dd0       __Str_Kyoei_Sangyo_Co_Ltd_D57F4D4A70E1D96B0974E0C709929A3595805CAB857BEA380CFB6787787C148B 00000000100bddd0     guideXOS.obj
 0005:00017e10       __Str_Kyopal_Co_Ltd_B5564FEC106246D302240C04FE9BC3BA1BFFC9AC4F73DC12A1DF1BC1637AED6F 00000000100bde10     guideXOS.obj
 0005:00017e40       __Str_Kyushu_Electronics_Systems_Inc_6AAC28F6694C0859DA017551D9FDBCFF18036E591660B64336CD8AD7BCF1FE40 00000000100bde40     guideXOS.obj
 0005:00017e98       __Str_L3_Communications_F4E8B887F8B25E3E2A3A281F011B844117C476634AADFC03C01C0463B256504F 00000000100bde98     guideXOS.obj
 0005:00017ed0       __Str_LABEL                00000000100bded0     guideXOS.obj
 0005:00017ef0       __Str_LDT                  00000000100bdef0     guideXOS.obj
 0005:00017f10       __Str_LG__Lucky_Goldstar__Electronic_4FAC516EBEF37BE9EC04BD7E973C1E7B355B5DE76792C864796A4FFD1B6D4FCD 00000000100bdf10     guideXOS.obj
 0005:00017f70       __Str_LG_Industrial_Systems_Co_Ltd_0E3D9A12603C05DE06633F99395A450D6DE85D67D72DB8A2453AA0DFD90B7706 00000000100bdf70     guideXOS.obj
 0005:00017fc0       __Str_LIST                 00000000100bdfc0     guideXOS.obj
 0005:00017fe0       __Str_LIVE                 00000000100bdfe0     guideXOS.obj
 0005:00018000       __Str_LOADFILE             00000000100be000     guideXOS.obj
 0005:00018028       __Str_LOADSCRIPT           00000000100be028     guideXOS.obj
 0005:00018058       __Str_LOADTEXT             00000000100be058     guideXOS.obj
 0005:00018080       __Str_LSI                  00000000100be080     guideXOS.obj
 0005:000180a0       __Str_LSI_Corporation_607AA779C0ED1FD0C473C52AB0571394F4490477EF4BAA290B484EE8109BA1B9 00000000100be0a0     guideXOS.obj
 0005:000180d8       __Str_LSI_Logic_4DD9E67F12733DB94B44CF9B782A4723C88F6EC4BB09B46C8628D9E5264BD715 00000000100be0d8     guideXOS.obj
 0005:00018100       __Str_LSI_Logic_Headland_Division_59B03266AEF49A44E2587E4923D25DCABECF17920EFB58CABCE258E26DFE47BA 00000000100be100     guideXOS.obj
 0005:00018150       __Str_LSI_Systems_Inc_11113363BE8A9DA7E3E37A5363779DF796F699BA6A8628FE17156D15974072F0 00000000100be150     guideXOS.obj
 0005:00018188       __Str_Labway_Coporation_74A5BB1B31E3F30A5BFB72C3D2F211A054E36B21F0D28E5C4602F572376D8204 00000000100be188     guideXOS.obj
 0005:000181c0       __Str_Lambda_Systems_Inc_5610E9E8BF89473AD8970D533074719F8577A59899D0108468EFD41B4904B672 00000000100be1c0     guideXOS.obj
 0005:00018200       __Str_Lancast_Inc_233E46ED1FF1903962ECAD49B628A24227EFD8D11F6930E3320DAB6067A949EC 00000000100be200     guideXOS.obj
 0005:00018230       __Str_Land_Win_Electronic_Corp_CEB0D2C855444D2D039F1CB45DAE368A2D0322060C45566C8527330712B29F91 00000000100be230     guideXOS.obj
 0005:00018278       __Str_Lara_Technology_Inc_B345108F8D663BA5ADCBA4A43DFEDD40CA230249CA380D6C847D24CDE73E0B0C 00000000100be278     guideXOS.obj
 0005:000182b8       __Str_LaserLinc_Inc_B61FE81BA37C5F234CD9203874C6CA3CBE5403135123160CD60DF5685624842D 00000000100be2b8     guideXOS.obj
 0005:000182e8       __Str_Lattice___Vantis_8D8780EBC3529BB8744080EF137F84924108238880AA50EAA4D4FC6E00D082B4 00000000100be2e8     guideXOS.obj
 0005:00018320       __Str_Lattice_Semiconductor_Corp_83D80C18EBAA80746E9F51A4F0C7FEDB62BB1C0275F5343D35CDD9C5141E323D 00000000100be320     guideXOS.obj
 0005:00018370       __Str_Launching__0C2B5F467DB15C6FFACE856843716CA95C478FAA06F118236586B4CAE0165296 00000000100be370     guideXOS.obj
 0005:000183a0       __Str_Launching_nexIRC____4F0B62893DD47C0845682FBE982E7B9CC0078CEAA1D45B5AF0C7BFE8331064BE 00000000100be3a0     guideXOS.obj
 0005:000183e0       __Str_Lava_Computer_MFG_Inc_CC6B07D3C7ADBB0F45737DC919D5D202B78BFC857B573A9D123E5074D915C73E 00000000100be3e0     guideXOS.obj
 0005:00018420       __Str_Lava_Semiconductor_Manufacturi_FA978C57DB1C0C9B60A9DC76F42C92367E48003732AAF21570FA08DB58274482 00000000100be420     guideXOS.obj
 0005:00018480       __Str_Layout               00000000100be480     guideXOS.obj
 0005:000184a8       __Str_Leading_Edge_Products_Inc_C56B095BB0D5263F3E05F11D49E12C9420636F00B37EF1EDA439AE3A00A261C3 00000000100be4a8     guideXOS.obj
 0005:000184f0       __Str_Leadtek_Research_37CB16A63F65BBBF308915B35FB1937FC6B0C53EDD7D6D520AB929AD02AA6E21 00000000100be4f0     guideXOS.obj
 0005:00018528       __Str_Leak_Exists__CDE4329E66C4BFDCB173D1C39D1411852C895B5F66677272DA7ED9C55B6D398A 00000000100be528     guideXOS.obj
 0005:00018558       __Str_Lecroy_Corporation_45881E56052EEB674A4640DCF130F4D3D85A970448E92110490EDF0AC1EBC741 00000000100be558     guideXOS.obj
 0005:00018598       __Str_Lectron_Co_Ltd_DCDDB02484C7808E34501ED6141195FA3BF8A4141C9797D423140076F2EC046B 00000000100be598     guideXOS.obj
 0005:000185d0       __Str_Legend_Ltd__Beijing__FBD7BA670EFEAA5D1F603264EA139B126339E95A878FAE37E34E824A2CB31092 00000000100be5d0     guideXOS.obj
 0005:00018610       __Str_Leitch_Technology_Internationa_7BD1145A8C0664CF058E5F7642E170DE08DEC5754BF775DA957E5E9C0DC384B9 00000000100be610     guideXOS.obj
 0005:00018668       __Str_Leutron_Vision_AG_55201712B121BA2B8CD399CC63411D6AE59946DA366A4C379637BCA5E7DBA04B 00000000100be668     guideXOS.obj
 0005:000186a0       __Str_Level_One_Communications_6F96FF3C11769FBD3924D9438D8D56779569803F4AE293E5DEFC8129706F43C1 00000000100be6a0     guideXOS.obj
 0005:000186e8       __Str_Lexmark_International_Inc_27BD4E36B61D8071A0C8614A1633D6EB172187C49E7BFC98446E22C49A05988B 00000000100be6e8     guideXOS.obj
 0005:00018730       __Str_LiPPERT_Embedded_Computers_Gmb_B0FAB082B766D93B0F17CDB8CDAC69C5B6B7B9FA13ECECD7B3469FE9E9BA0014 00000000100be730     guideXOS.obj
 0005:00018788       __Str_Libera               00000000100be788     guideXOS.obj
 0005:000187b0       __Str_Lightwell_Co_Ltd___Zax_Divisio_8DCB5B344E4EC826189709C29AE5A4770B87EECFAD956C3D0CDDA837508EC3FF 00000000100be7b0     guideXOS.obj
 0005:00018808       __Str_Line                 00000000100be808     guideXOS.obj
 0005:00018828       __Str_Linear_Systems_Ltd_90E19B764F2C8D5AF32B2F3A2CD7AB5D210DFA3CD2FA79FD2FAC9746134DB099 00000000100be828     guideXOS.obj
 0005:00018868       __Str_LinkSys              00000000100be868     guideXOS.obj
 0005:00018890       __Str_Linux_Networx_26F8316F515ACB5A4FB7AD75A0C97D7D86FC00F763086C3E3258263455DFC3BB 00000000100be890     guideXOS.obj
 0005:000188c0       __Str_Lite_On_Technology_Corp_F882A2920B57C4165E3574FE322AF3B1560063A33CFB0F7775773776ED58498A 00000000100be8c0     guideXOS.obj
 0005:00018908       __Str_Litronic_Inc_05E93008087210E3EFA330A45CBDF8F8DD49A1F33206DA5AB288A7FDEAA10FFD 00000000100be908     guideXOS.obj
 0005:00018938       __Str_Loading_App___71605982CB929B15E58F671BDD0C017D6EC94ABBAE4BEC8562B65AF5957FF41C 00000000100be938     guideXOS.obj
 0005:00018968       __Str_Loading_fonts____517F249661F5983C3FA5D77220F846B0AE388B5FC3E2ADC0923A9BE299424FB4 00000000100be968     guideXOS.obj
 0005:000189a0       __Str_Loading_guideXOS_______2EC4E9724D29DEF3282CDF8C3875CF14C42BBC36EF3DEE68632B584620B77221 00000000100be9a0     guideXOS.obj
 0005:000189e8       __Str_Loads_and_executes_a_GXM_GUI_s_9695731FC10726E3F3A62F68889A206FCB2AEA4CE6FAA978B49BE0E3B11060C1 00000000100be9e8     guideXOS.obj
 0005:00018a68       __Str_Lock                 00000000100bea68     guideXOS.obj
 0005:00018a88       __Str_Log_Off_9C74FAFEF1174BDC40021B1BFE337A03428BBA7A74EB2416090F9182308F5E7E 00000000100bea88     guideXOS.obj
 0005:00018ab0       __Str_Log_cleared_E8C65D9CB7C2AD2ABFCC0BB0E4E99833C27AEF3908BD3CB96F09308F5062B490 00000000100beab0     guideXOS.obj
 0005:00018ae0       __Str_Logged_out__394B1C6371C0AEEE20E8554A0A21FC9D378FC50A4B377E70B650B6C8D4F596E3 00000000100beae0     guideXOS.obj
 0005:00018b10       __Str_Logic_Modeling_1A6C7AE2B42A0596F948279456E5244D5E79080607911982EC548AB305DA77C8 00000000100beb10     guideXOS.obj
 0005:00018b48       __Str_Logical_Co_Ltd_83E4B74EC82EF6E8997235C436402EFA9CBA21ABA0479E5FE9C49216BD6DCC4D 00000000100beb48     guideXOS.obj
 0005:00018b80       __Str_Login_OK__Token__B801D95B89DB2B2B93AAA1ADEB9E7E8377E26F4EA5E5EA1527AD5F7708864E00 00000000100beb80     guideXOS.obj
 0005:00018bb8       __Str_Login_failed___2520626259825EBC4AE6CC2144901AE614793E6E7B505CCBE74A9E1C8E8ACF5B 00000000100bebb8     guideXOS.obj
 0005:00018bf0       __Str_Login_unsuccessful_5623B510FA67CCEA64EA8A5D1DE8B4D48B53C8410B5555B4DC2B1859A6280F3E 00000000100bebf0     guideXOS.obj
 0005:00018c30       __Str_Logitec_Corp_2A0474E5DABB56BB477A589559E76CE27867E32C79D1288E7C1A56562D064033 00000000100bec30     guideXOS.obj
 0005:00018c60       __Str_Logitech_Inc_99AFF6F07AE5707470F022E3A361A32B5CF2260BD2E5BF609415A5B6D269BC26 00000000100bec60     guideXOS.obj
 0005:00018c90       __Str_Loopback_not_supported_77C30C93A33BFBEB33C0A98E2B2FC77459AB2E8176144A434C5CA6DBB4655773 00000000100bec90     guideXOS.obj
 0005:00018cd8       __Str_Loronix_Information_Systems__I_EF91FE4F4B9F97269756B2B2856289A7546B2D68DD196F7F73CA545C0C09A0B9 00000000100becd8     guideXOS.obj
 0005:00018d30       __Str_Lucent_Technologies_AMR_7225A7D12957CBB29D094EF98E164219AECD0A4EFAEFA8995B16728B618008D0 00000000100bed30     guideXOS.obj
 0005:00018d78       __Str_Luminex_Software__Inc_0F08EC8E35FD1C9A5F70BA39509C5C2679862D88C0CFE9DC0DFED82EBED69CFD 00000000100bed78     guideXOS.obj
 0005:00018db8       __Str_Lung_Hwa_Electronics_F6CA0EC0B0E709946D92EC18C76D8FA335DB2962F8B34071376D87D0A3973CBF 00000000100bedb8     guideXOS.obj
 0005:00018df8       __Str_LuxSonor_Inc_BD0873F3AE08BB45AE6ACA00E40A090786040AD32BCECC8BEC84841A5572A8D2 00000000100bedf8     guideXOS.obj
 0005:00018e28       __Str_Lynx_Studio_Technology_Inc_BC59C01CC88CE2A5C8F6EFD2ACDCA8F0798006E14EC815C7F197B68903BDE22C 00000000100bee28     guideXOS.obj
 0005:00018e78       __Str_M_Systems_Flash_Disk_Pioneers__41252DFE7AD369E357CDCC52664E23E5F66274B8C993698ACA52F467A9996894 00000000100bee78     guideXOS.obj
 0005:00018ed0       __Str_MAC_System_Co_Ltd_D87AB65205CC84B5E1B3E1D5E0BC8FC965B114883B90822D015D312453109B3E 00000000100beed0     guideXOS.obj
 0005:00018f08       __Str_MAC___0_x2___1_x2___2_x2___3_x_06E90E1C4CC84FF4B8042AA69D7567A157BC7112E7EAE1DD1F60F5A94340D5C6 00000000100bef08     guideXOS.obj
 0005:00018f80       __Str_MACHINE_CHECK_8789D3D38485377864BD0CB95844A958953A320E493A706CF11C4A14A679C724 00000000100bef80     guideXOS.obj
 0005:00018fb0       __Str_MAGMA                00000000100befb0     guideXOS.obj
 0005:00018fd0       __Str_MAXIMIZE             00000000100befd0     guideXOS.obj
 0005:00018ff8       __Str_MAZeT_GmbH_BD92310289AC0CBE458D1A116FA4D154640894527D68705020EF94CED79920E2 00000000100beff8     guideXOS.obj
 0005:00019028       __Str_MINIMIZE             00000000100bf028     guideXOS.obj
 0005:00019050       __Str_MIPS_Technologies__Inc_2C306F8379EDD7A86906BEDAA9B93E5F0FEF41524DD63124E3E5464B12B07CEC 00000000100bf050     guideXOS.obj
 0005:00019098       __Str_MKNet_Corporation_FE064C4F244FB3EEB747FB8A9BA18E6C8377156E8E55A8428014A2F288862895 00000000100bf098     guideXOS.obj
 0005:000190d0       __Str_MOST_Corp_F8C54BCAFDF06F875268A3A27C5DCEFBE784BF173D8683BA8E036948A35389B4 00000000100bf0d0     guideXOS.obj
 0005:000190f8       __Str_MSG                  00000000100bf0f8     guideXOS.obj
 0005:00019118       __Str_MULTIDATA_GmbH_91CD555FB3C8D2E898583746FACF0B988FA9C805826224372C8EAD770FDE3BE6 00000000100bf118     guideXOS.obj
 0005:00019150       __Str_Machine_time__3CDA93CEE597D853C3DD555FCAE5D5A4C20D9120D4280A283BFDD2E2B24A5EFD 00000000100bf150     guideXOS.obj
 0005:00019180       __Str_Macraigor_Systems_LLC_43B8CD2A132A561167C303FA2B643A4BCD5267429DB92C25F69C05056DCE3EFF 00000000100bf180     guideXOS.obj
 0005:000191c0       __Str_Macrolink_Inc_65535C24276D86383958AE45561A4AB93C8DB298F6662074FB0ACE368E7693BE 00000000100bf1c0     guideXOS.obj
 0005:000191f0       __Str_Macronix_International_Co_Ltd_50A25F45CAE26497715C1D0D832B3A9936F2D216BB61CD5163AD60A9E250A23E 00000000100bf1f0     guideXOS.obj
 0005:00019240       __Str_Madge_Networks_76353CBE43A9DD784C89F08184B3DF3351C61E23DBAF64547865A2E90010C228 00000000100bf240     guideXOS.obj
 0005:00019278       __Str_Maestro_Digital_Communications_77927F56E86B89FB174E4EAF129A8256DA68C0F5A684E77AC6ADC580BB362332 00000000100bf278     guideXOS.obj
 0005:000192d0       __Str_Mainpine_Limited_7341134D3216F4EDEAB3C4B912759AD42EB612F0E070A433D9BB139B92485664 00000000100bf2d0     guideXOS.obj
 0005:00019308       __Str_Make_sure_Roboto_Regular_ttf_811E6FBDBED70DC2B53074E9A3D5822DE56A7156D6A85EA50A62F769761BEC0D 00000000100bf308     guideXOS.obj
 0005:00019358       __Str_Make_sure_you_have_backed_up_a_F702C413E6E4AD421F7CF74B711AA4760A61AA61C9736F04E6B0A0B51C6575A8 00000000100bf358     guideXOS.obj
 0005:000193d0       __Str_Make_sure_you_have__846EB41902E9281EBBA8D9456458797A839E43FC017A0B27BA4C14B881CDD63C 00000000100bf3d0     guideXOS.obj
 0005:00019410       __Str_Maker_Communications_6077D2772F384DD4787A867FCF20520C047EDEAC25AC34EA38595E649B8DE3E1 00000000100bf410     guideXOS.obj
 0005:00019450       __Str_Malleable_Technologies_Inc_A798450BD4EC8E8F98A393F56CF87A57DA6E80C95023B1CAB777D3E1FD53551E 00000000100bf450     guideXOS.obj
 0005:000194a0       __Str_Management_Graphics_Inc_0A17408BAA66A16AC55EDB2D1C0F0169EA24EB9088351A0D401CCE3CE43C783F 00000000100bf4a0     guideXOS.obj
 0005:000194e8       __Str_Mapletree_Networks_Inc_4D4D5EC7874082C6665CD709657E5FC4720522F67FE5CE2E1607314B03431D14 00000000100bf4e8     guideXOS.obj
 0005:00019530       __Str_Marathon_Technologies_Corp_FAF844C5E71A704572FAADE92E35A1FDBE8DB82EA26D8D9EC7A3CDD32363EBC1 00000000100bf530     guideXOS.obj
 0005:00019580       __Str_March                00000000100bf580     guideXOS.obj
 0005:000195a0       __Str_Marconi_Commerce_Systems_SRL_DEF3778328A1F7803414027A47430E5B2A5CF8912C27F41CB33C2B3B36937BDC 00000000100bf5a0     guideXOS.obj
 0005:000195f0       __Str_Margi_Systems_Inc_594F154C8FDCAB7011DE1A18B269F60F10BD790932AE83B6064C6CECD52AD997 00000000100bf5f0     guideXOS.obj
 0005:00019628       __Str_Marian___Electronic___Software_9246C5D5C0DF8C020CC724A9415B4AD8EEEFC4A8B50D844CBD30DC9A89CF6645 00000000100bf628     guideXOS.obj
 0005:00019680       __Str_Mark_Of_The_Unicorn_Inc_9CC85FCA37473719495C92F45C849DB479B023F023CEA6D0FE2026649221CA7E 00000000100bf680     guideXOS.obj
 0005:000196c8       __Str_Marvell_Semiconductor_9027B552B222722C0ADD6E90003D54BF8A239DE26E8200977E85EB92D46D70E9 00000000100bf6c8     guideXOS.obj
 0005:00019708       __Str_Marvell_Semiconductor_Germany__D77D0BE3CDFF6F65BF55003577E8E77DB1B960CA142B292D7F02F775777F1235 00000000100bf708     guideXOS.obj
 0005:00019768       __Str_Mask___0___1___2___3__AA0BBF21D61313ED8A7F11DBB81889B07094A276470CFAC90EA54FD0A1F1D94C 00000000100bf768     guideXOS.obj
 0005:000197a8       __Str_Maspar_Computer_Corp_431533D57E202FD91B826DB59BD27270EC9B00A04A4CCD19ADD38221C08B0B88 00000000100bf7a8     guideXOS.obj
 0005:000197e8       __Str_Mass_storage_controller_CAAD88EC05406BEF6DE46B59D3DA0C0B1DD28FCD29F413D5240AC39083528C9E 00000000100bf7e8     guideXOS.obj
 0005:00019830       __Str_Matrix_Corp_AA863D82964D8AB7F514037FB2C7B5AFB49430E6F1E81ADF3FE2E74E9436FB93 00000000100bf830     guideXOS.obj
 0005:00019860       __Str_Matrox_Electronic_Systems_Ltd_FE0DF5C583DA0360AB8FB06A16E285A4283D97CBD11C0DCE7282BC30C8BFCCD8 00000000100bf860     guideXOS.obj
 0005:000198b0       __Str_Matsushita_Electric_Industrial_ECDA6DB8ADE42BD487E01DCA7F0ED9CF5FE610A37885311B6458323A1702EBF2 00000000100bf8b0     guideXOS.obj
 0005:00019910       __Str_Matsushita_Electric_Works_Ltd_663ACA6E6546752BCAF0BD61D99F6E41CB9A72A247886DE4FF6A563030BBE21D 00000000100bf910     guideXOS.obj
 0005:00019960       __Str_Matsushita_Electronics_9188C8DC2345314EF5471F12B22AD5CA11DA7AEF9E085B3F08A39BA64F2A615E 00000000100bf960     guideXOS.obj
 0005:000199a8       __Str_Matsushita_Kotobuki_Electronic_73F96A91C2D11E59C9C783347FAF054B5E447DC2E653153A70959ECE66D02A84 00000000100bf9a8     guideXOS.obj
 0005:00019a08       __Str_Max_Technologies_Inc_245A501A845AF24004D0C2A39A0C843313FA81759D7FA8AF0B650AF353BAFEDA 00000000100bfa08     guideXOS.obj
 0005:00019a48       __Str_Maxtor_Corporation_CC261267BBA556599EF11A18A8BE6AAA16FDEA9C40A96B87BBB9DB5F810DD168 00000000100bfa48     guideXOS.obj
 0005:00019a88       __Str_May                  00000000100bfa88     guideXOS.obj
 0005:00019aa8       __Str_MeasureX_Corp_0BF0623D021B1638D7EF1CA721C2DB866E28E6B9AD92F1B71498C050ADA9C65B 00000000100bfaa8     guideXOS.obj
 0005:00019ad8       __Str_Med_Associates_Inc_EFB6D852A5FAA93B805E4113D57EF0FA3BB8E015553A9DE3647043AD3D13F892 00000000100bfad8     guideXOS.obj
 0005:00019b18       __Str_Media_Reality_Technology_BA8A70E4E523100DF1996EF7EA237EFD6BF1168DE1F66F01F52381AFBC06BC29 00000000100bfb18     guideXOS.obj
 0005:00019b60       __Str_MediaTek_Inc_180714EAE7C7772DB6277795AA0E65F6E8ADEC8923E73B1808ED57121B8C593E 00000000100bfb60     guideXOS.obj
 0005:00019b90       __Str_Mediamatics          00000000100bfb90     guideXOS.obj
 0005:00019bc0       __Str_Mediaq_Inc_704CBA1F27600BC6390043082361619D7D9DFAB094D182E4931D8218F019D019 00000000100bfbc0     guideXOS.obj
 0005:00019bf0       __Str_Mediastar_Co_Ltd_458E3CB36354398512CF8AC544CB125BD9EDC92F4F09C789E3CCDF9914C01EA5 00000000100bfbf0     guideXOS.obj
 0005:00019c28       __Str_Megachips_Corporation_5A62F8AA5EE91CCF368CF107AABB0C461422DB40E822595320827E87EC68E722 00000000100bfc28     guideXOS.obj
 0005:00019c68       __Str_Megasoft_Inc_E9E2EF357591606587958D4E86DD568D528C2135599D14984DFF07DB1D821B59 00000000100bfc68     guideXOS.obj
 0005:00019c98       __Str_Megatel              00000000100bfc98     guideXOS.obj
 0005:00019cc0       __Str_Meidensha_Corporation_E15194EF358B7EA9264EAEDCD048584EF907131901FA5EE1662E342F46FC2061 00000000100bfcc0     guideXOS.obj
 0005:00019d00       __Str_Meilhaus_Electronic_GmbH_Germa_8183FD2906B79C7821560217D5CF9A507F028BFFCF0E353F4BAAA4F9F81AB32C 00000000100bfd00     guideXOS.obj
 0005:00019d58       __Str_Meinberg_Funkuhren_GmbH___Co_K_0B8BA73D218E89A9EE356A95966E9B610B14ECED5429895F509891A762202497 00000000100bfd58     guideXOS.obj
 0005:00019db0       __Str_Melco_Inc_BE434BCEDFFFEA1D19882898085273BA8618179CAA81DCE2E8EAAA0F359D5C6C 00000000100bfdb0     guideXOS.obj
 0005:00019dd8       __Str_Melec_Inc_79853C57FE9F4CC8E269B86EA1E07D87C547E63567062DE68DCD3A0397295C2B 00000000100bfdd8     guideXOS.obj
 0005:00019e00       __Str_Mellanox_Technology_F8C020519986BEB2E5B2A0E7360AF5AF45BE63828DECFDAD7C8E46FAC09F1AAB 00000000100bfe00     guideXOS.obj
 0005:00019e40       __Str_MeltDown_Systems_LLC_76B0F981A3C89960EE501C6216358CA10AC4A1628FDE058095F6BC83BDA8E689 00000000100bfe40     guideXOS.obj
 0005:00019e80       __Str_Memec_Design_Services_7E3CCAD3824DF39A0D77F56205BEDACBBCDB7204FB98D73B2F3F2F9ED1198906 00000000100bfe80     guideXOS.obj
 0005:00019ec0       __Str_Memory               00000000100bfec0     guideXOS.obj
 0005:00019ee8       __Str_Memory_Details_AB04CB9E028D2BAAD320DEF1A8A684A61573FDD89A28A764403DAA5D0760F81C 00000000100bfee8     guideXOS.obj
 0005:00019f20       __Str_Memory_controller_191058670AD0F45547E9C208471546B782AAA2E7E73139194B3FD03D1D625FF5 00000000100bff20     guideXOS.obj
 0005:00019f58       __Str_Memory_request_too_large__size_BE4F2546773008D05AF353053EB4B54B46251B3B97A71DF1387C444EB609F39B 00000000100bff58     guideXOS.obj
 0005:00019fb0       __Str_Mentec_Ltd_C40C8A8AFD326EBE4978AC2394871664E01A92643EF31BEC3CB2D65009CB6E1D 00000000100bffb0     guideXOS.obj
 0005:00019fe0       __Str_Mentor_Graphics_Corp_A82C846216797684500D33A9EBEAA0F0D994F0403584265EF3CD0B5A1FD92A3B 00000000100bffe0     guideXOS.obj
 0005:0001a020       __Str_Mercury_Computer_Systems_Inc_9AB49658CDCD3A99C45731D2A5306CC54648424A3C2324BC4F04872135894815 00000000100c0020     guideXOS.obj
 0005:0001a070       __Str_Metheus_Corporation_0AD688AEC4B7742DD42780C7EC24725EF90DF9C90C7DBB43DCC3CAADAACD4E9D 00000000100c0070     guideXOS.obj
 0005:0001a0b0       __Str_MiB                  00000000100c00b0     guideXOS.obj
 0005:0001a0d0       __Str_Michels___Kleberhoff_Computer__1AC81D1CDFBCEE920787604104D82608ADCA690FD7A67A861DCF5234959F88B5 00000000100c00d0     guideXOS.obj
 0005:0001a130       __Str_Micrel_Inc_DF5BC9EE4D97F244D726A7F4EC6ADB81B195C75AA2DC26D5B797F1EB4A054D80 00000000100c0130     guideXOS.obj
 0005:0001a160       __Str_Micro_Computer_Systems_Inc_2F6F9BAD9E1FA2B497E1A208EB0A2D825359E9C830F812FA088FEEF6AEB63D02 00000000100c0160     guideXOS.obj
 0005:0001a1b0       __Str_Micro_Industries_Corporation_36FBAFB7E8E0FB2CAD06BDD9E44011E617EBC552C687C23C1282CBB8AB1E9B1A 00000000100c01b0     guideXOS.obj
 0005:0001a200       __Str_Micro_Science_Inc_1BBF762FE64F6B8F6F454A9159E6374F9845A8B5B0B9BFFCB3D9C3C04453E1B8 00000000100c0200     guideXOS.obj
 0005:0001a238       __Str_Micro_Star_International_Co_Lt_40AB5813EF6121CCE85123D140F06FD737DD804992FCBBB5D5A525715F0618AC 00000000100c0238     guideXOS.obj
 0005:0001a290       __Str_Micro_Technology_Co_Ltd_E26FAB7695FB8565EADCE5AC62FE4998B9807EB8DC1F3548005FAD7A27367850 00000000100c0290     guideXOS.obj
 0005:0001a2d8       __Str_MicroUnity_Systems_Engineering_258965A6799BA99A76A07C6FFD27ED877F7503E6945E48A9B38BFEF82B3AA552 00000000100c02d8     guideXOS.obj
 0005:0001a338       __Str_Microcomputer_Systems__M__Son_659C6C27D876695BAD2F645AFFD2F4F7B15857F655D4554373F1F868285BF3BF 00000000100c0338     guideXOS.obj
 0005:0001a388       __Str_Microdia_Ltd_6F18D1BD8A18F3F040F914250607D17A0DEA986F295001A97F84FF4E266D775E 00000000100c0388     guideXOS.obj
 0005:0001a3b8       __Str_Microdyne_Corp_6FFDBE7C6885EEAEFCF1418787B710DF34BE6375CD28C6BDE74FFEA6196050D2 00000000100c03b8     guideXOS.obj
 0005:0001a3f0       __Str_Microgate_Corp_1E08BB86C316F4236C07EE16CB650E94D4C1E5BFD2E0E7973B3BBCDF1472BEC1 00000000100c03f0     guideXOS.obj
 0005:0001a428       __Str_Micron_Technology__Inc_066DEBF2D08DADE01348EB8A494B6B4FAB68546688B1CB4EA61C44C58B068721 00000000100c0428     guideXOS.obj
 0005:0001a470       __Str_Micron_Crucial_Technology_DA8E147E3D00D3E18FF643ED118F40089BB7FE1E9C7A7388770F58F453EC57D5 00000000100c0470     guideXOS.obj
 0005:0001a4b8       __Str_Micronics_Computers_Inc_1EA9138ADEF6CDB391946CEB2C099D4B81D4FCC17DD1328F1F4638B994A1893E 00000000100c04b8     guideXOS.obj
 0005:0001a500       __Str_Microscan_Systems_Inc_0B528C36AB6DC6AFA3619C261112B31D880F76AB725A8A83F02DC5AEA11EEAFA 00000000100c0500     guideXOS.obj
 0005:0001a540       __Str_Microtechnica_Co_Ltd_862ECD643A88EB6A6511DB8FAD7555583D60F06DAFA600AE4F2DB80A3AD47AAA 00000000100c0540     guideXOS.obj
 0005:0001a580       __Str_Middle_Digital__Inc_FF3DB3560E192C5ADF323311FECA8826DC177DF5683834E62E856640033617DF 00000000100c0580     guideXOS.obj
 0005:0001a5c0       __Str_Mikrotik             00000000100c05c0     guideXOS.obj
 0005:0001a5e8       __Str_Millennium_Engineering_Inc_04EEB72515A3AE4B87520EAB9EE7D7318BFB2C0FEC2C469BDD95EC2F8C3ABCE4 00000000100c05e8     guideXOS.obj
 0005:0001a638       __Str_Millogic_Ltd_5D5EF9888A840410D4F3BBB8F33512B6ED8FA2C61C577FB8D31CBA879A672E90 00000000100c0638     guideXOS.obj
 0005:0001a668       __Str_Mind_Share_Inc_FAB3C875E43A42CCA5645D96BA1B8ECF82F0A0F59A7B8B5059BAAFA8DEBF7287 00000000100c0668     guideXOS.obj
 0005:0001a6a0       __Str_Mindstream_Computing_23CD3E095485CAFFF9FE1DA8CEB037C9E7AB005386911FC731A39B9A7AAD8AE8 00000000100c06a0     guideXOS.obj
 0005:0001a6e0       __Str_Mini_Max_Technology_Inc_91503288AF852E9207E472431CB5C2FC48C6A24A037F13105B55E8C8081239F9 00000000100c06e0     guideXOS.obj
 0005:0001a728       __Str_Minimal_Demo_83B1893592CBFE9B8CAB22A9BC6658832F0CDAABF57D4EB67E481B2803CF4210 00000000100c0728     guideXOS.obj
 0005:0001a758       __Str_Minolta_Co_Ltd_A92D53434DC866F137D05BCB0C2648A56586C386EEBD418B267EE9EBB75D075A 00000000100c0758     guideXOS.obj
 0005:0001a790       __Str_Minton_Optic_Industry_Co_Ltd_A0B474D74852B63F356DEFC94FE349391991931EEA4DE0CFFEB84A2CEE295482 00000000100c0790     guideXOS.obj
 0005:0001a7e0       __Str_Miranda_Technologies_Ltd_D7A156739ED63528A70D5E80A30A68CE27B48DB124ABDECCA4D9F9F50D95261F 00000000100c07e0     guideXOS.obj
 0005:0001a828       __Str_Mitac                00000000100c0828     guideXOS.obj
 0005:0001a848       __Str_Mitani_Corp_545ADD980D2B2EF89FC31F769828293DA515B5B812220A79840F6CE98A280D9B 00000000100c0848     guideXOS.obj
 0005:0001a878       __Str_Mitel_Corp_1E48DC8FD3F9FF06326F9FEC9B434DC123C44B85CBE4116A5B5C735A69C0C7F9 00000000100c0878     guideXOS.obj
 0005:0001a8a8       __Str_Mitron_Computer_Inc_00C798B4EF57D4A29C76778C9FA06AD6FCAB3B82946654D60930D8DA82930262 00000000100c08a8     guideXOS.obj
 0005:0001a8e8       __Str_Mitsubishi_Electric_Logistics__D6B6D743EEE762F568F029C87FBA483ED68FFBA5C9FFDE0873F00FAC0220E12E 00000000100c08e8     guideXOS.obj
 0005:0001a950       __Str_Mitsubishi_Electric_Microcompu_CEE8D0FB7D8CF5F36EE24F079E826FBF31213D63578B21927CD710F97DD00639 00000000100c0950     guideXOS.obj
 0005:0001a9a8       __Str_Mitsubishi_Electronics_53EEFA9C1AD3187DD92C7F075C006F6FDAD7A1E0016C542D361FF2117EDDBA32 00000000100c09a8     guideXOS.obj
 0005:0001a9f0       __Str_Mitsubishi_Electronics_Corp_A1EA5C54A2EC553AA1EFD8229A0585344B8E929DD115C70EA17E0119BEBD64D3 00000000100c09f0     guideXOS.obj
 0005:0001aa40       __Str_Mitsui_Zosen_System_Research_B63C995268995A0F35B0630786F4118CC2DA609433EB42F9A3675F764D02D1C2 00000000100c0a40     guideXOS.obj
 0005:0001aa90       __Str_Mitutoyo_Corporation_153CCB68EAF3D5B44FABE4FBB38333B630DEFF975C25B9D2E645EEDC29352A7C 00000000100c0a90     guideXOS.obj
 0005:0001aad0       __Str_Mobham_chip_3552E2111782100825A660B5DD2DBED31643AEEFA81BFE5A21E11DE146D1BEBB 00000000100c0ad0     guideXOS.obj
 0005:0001ab00       __Str_Mobilian_Israel_Ltd_E6DC45D336BA97E36596E6CD64F162C48ECB3A7E30EEE0B5A87E76C58C6FE370 00000000100c0b00     guideXOS.obj
 0005:0001ab40       __Str_Mobility_Electronics__Inc_A6EB5CAF03406B8D40A0FB2E76FD6CB5AA5C4993592441B0C978E464AC1CE4AA 00000000100c0b40     guideXOS.obj
 0005:0001ab88       __Str_Mode___7A3C9EAECCAB9683ACEA23986C3D46A797C5350E4BF78511381A5B12A501E4BD 00000000100c0b88     guideXOS.obj
 0005:0001abb0       __Str_Modular_Technology_Ltd_CC70E17FD47848C260E52C6B3931C9F7BFE966E7CAF2BD85DF2383398A16FA67 00000000100c0bb0     guideXOS.obj
 0005:0001abf8       __Str_Molex_Incorporated_0173CD7DE4C54C6AF63A7AFA2F6DD2D4792DBE147CE700EE97D5EA29173527ED 00000000100c0bf8     guideXOS.obj
 0005:0001ac38       __Str_Momentum_Data_Systems_E947B83B388E0A5D099429867DA1A911C95F2BB3B56E5F1C79FA3419BF1FB017 00000000100c0c38     guideXOS.obj
 0005:0001ac78       __Str_Monarch_Innovative_Technologie_86A9D215B0A86378F6204E703F9B02EA1E84F1CCA6F01C68F0CCB1C7DDE28D04 00000000100c0c78     guideXOS.obj
 0005:0001ace0       __Str_Monitor              00000000100c0ce0     guideXOS.obj
 0005:0001ad08       __Str_Moreton_Bay_F80068FD7EDF49968403BAB98DB4DAD38DF823CBBA77C1926157AE5AAB724E3B 00000000100c0d08     guideXOS.obj
 0005:0001ad38       __Str_MosChip_Semiconductor_Technolo_49CA48C9529CC4DC6CF74CD0697B603AC22A1CA891FCC977B81B0F40EC62CECB 00000000100c0d38     guideXOS.obj
 0005:0001ad90       __Str_Mosaid_Technologies_Inc_1563F8E5566922C8C5F3DBE6A75FF7D98A8A65B326796FEF4DE3AB9685E6695B 00000000100c0d90     guideXOS.obj
 0005:0001add8       __Str_Motion_Engineering_Inc_CB57FC0E33DFCD153F3125652BD9D12DA6B769A2515AB6E2004D3C1DA56BBE5D 00000000100c0dd8     guideXOS.obj
 0005:0001ae20       __Str_Motorola             00000000100c0e20     guideXOS.obj
 0005:0001ae48       __Str_Mounted              00000000100c0e48     guideXOS.obj
 0005:0001ae70       __Str_Moved_back_E0C7777DD049CEAD8508C1ED90861DD9EA5DF2ECEDFC711CDD7DF9AB2A664B49 00000000100c0e70     guideXOS.obj
 0005:0001aea0       __Str_Movita               00000000100c0ea0     guideXOS.obj
 0005:0001aec8       __Str_Moxa_Technologies_Co_Ltd_631CA30633EE938E3DF731081EEA79C627B8C16EC01B69A4BE1CA846900CDA14 00000000100c0ec8     guideXOS.obj
 0005:0001af10       __Str_Multimedia_controller_FB819CF3E8FC540A605736429A12B25C6DEAF0E588F97A2D860BFEC36E902612 00000000100c0f10     guideXOS.obj
 0005:0001af50       __Str_Multiply__C936E7AC7B3AEC83F1B9EBA6447FBEC31F112EE9DF21D1558D6AAD223F16B876 00000000100c0f50     guideXOS.obj
 0005:0001af78       __Str_Music_Semiconductors_A54678CE7D80E1CE781FB56DF5B956505B202C12E6BBB526F32F27F10915ABEF 00000000100c0f78     guideXOS.obj
 0005:0001afb8       __Str_Mutech               00000000100c0fb8     guideXOS.obj
 0005:0001afe0       __Str_Mutoh_Industries_Inc_1DB2789BEF3556556933416C5F708D6B6A357CD359ADC9BE3F3E5F4BCCDAAA8D 00000000100c0fe0     guideXOS.obj
 0005:0001b020       __Str_MyName_Technologies__Inc_6059B7954AFEA64E78FB7812BE1F99FB8CEF1B5D9E0ABE1F71F8D981CE13C61E 00000000100c1020     guideXOS.obj
 0005:0001b068       __Str_Mycom_Inc_A1D4FBB5F446E419EA9E1CBD18FC149663E0FFAFFC6BE7D275F1D8EF37931C7A 00000000100c1068     guideXOS.obj
 0005:0001b090       __Str_Mylex___Buslogic_E7C6AB0CBC042E8E9D173A0B5B4B3FE69B7C1220489A3626F9A7964D1B3CBB62 00000000100c1090     guideXOS.obj
 0005:0001b0c8       __Str_Myricom_Inc_3C3850E0588F80B51F1001DADF3653401F85E232FB79FAC51B81E95B1B8B4E43 00000000100c10c8     guideXOS.obj
 0005:0001b0f8       __Str_Myson_Technology_Inc_500C1FBA98606751FA51659340F459F1907814B3B7DFB90D5982D04C7739A411 00000000100c10f8     guideXOS.obj
 0005:0001b138       __Str_N_CubedNet_A6F1D092320F7973DD96980A9FDCB6879DAFBE5F5BDBB6F67CBCFDD6F6EA1098 00000000100c1138     guideXOS.obj
 0005:0001b168       __Str_N_A_CA3CA2A601FF3FD6A3FD3337F86591AE19F65EC8EDE444D4C985B6F3E3B147D6 00000000100c1168     guideXOS.obj
 0005:0001b188       __Str_NCR_Corporation_3E0D2C2CCF127A1BD1AA5298502153A7D0CD1AAF97E0901091F26642CF4197AE 00000000100c1188     guideXOS.obj
 0005:0001b1c0       __Str_NCS_Computer_Italia_E28B75887BEE2C3B2326B576ACB4CF6F209E0EA138809A1AAE02D812314C451E 00000000100c11c0     guideXOS.obj
 0005:0001b200       __Str_NDS_Technologies_Israel_Ltd_80EC01651E24DA17FC1D8908443B990F6A5A747FE7A19593CEE95A1944347F37 00000000100c1200     guideXOS.obj
 0005:0001b250       __Str_NEC_Computer_International_4881A2BDA6A935F1F4B85C52E21CF6400221322FC4B1783D7430F8422B616E66 00000000100c1250     guideXOS.obj
 0005:0001b2a0       __Str_NEC_Corp_0DEE06AFBF6B0B13F3D4118E9CFDC741F54F381B7A32C4520D9C1892B6E61C6C 00000000100c12a0     guideXOS.obj
 0005:0001b2c8       __Str_NEC_Electronics_BF0B0C386ADFDB1B25B2BD7BCF614C0AE98948AE33CD76CA4EF37BF3EFE685F8 00000000100c12c8     guideXOS.obj
 0005:0001b300       __Str_NICE_Systems_Inc_529F4F381E792131DC87B2DBFE12ACACB4485F766B94CE4C769DDA75BC7A5D14 00000000100c1300     guideXOS.obj
 0005:0001b338       __Str_NICK__270AC15BB55ABE345453E5E569C9DF56076F3E6469E7073D527C9ADC3865C60E 00000000100c1338     guideXOS.obj
 0005:0001b358       __Str_NKK_Corporation_45A132F82CF9AABEC55DAA95DCD32630436DE1E661FC7990D44756FBF1A42198 00000000100c1358     guideXOS.obj
 0005:0001b390       __Str_NMI_Electronics_Ltd_350A509D6FEECA26FA414F95E7A388BA56EAF3BABE7BBAD68E2E29088BC18857 00000000100c1390     guideXOS.obj
 0005:0001b3d0       __Str_NON_MASKABLE_INTERRUPT_160F80DF6CA2C70505D67BC8F1C2E0729B206F0FE3B4063575B32320B7CC9C2A 00000000100c13d0     guideXOS.obj
 0005:0001b418       __Str_NOTE__Error_code_0_may_indicat_8E89148485E52FB226A34C949C76CBF5D0E94D321BE8E20F3466E37956998D89 00000000100c1418     guideXOS.obj
 0005:0001b498       __Str_NSI                  00000000100c1498     guideXOS.obj
 0005:0001b4b8       __Str_NTT_Advanced_Technology_Corp_63AEEE142FC13D96B8CB20EC4C02128452C59BED5E2AB4C319F8F1CEAD1FE07E 00000000100c14b8     guideXOS.obj
 0005:0001b508       __Str_NTT_Electronics_Corp_EE4D3CAEC71C6F150511D7DBDE40936A8E2224BF3CF40C84A9C79400425B2B3E 00000000100c1508     guideXOS.obj
 0005:0001b548       __Str_NVIDIA               00000000100c1548     guideXOS.obj
 0005:0001b570       __Str_NXP_Semiconductors_NV_2BDACFCA092FA98FD3EB25A177C1D01DE344E4A26998423946B84085082F8C8B 00000000100c1570     guideXOS.obj
 0005:0001b5b0       __Str_Nallatech            00000000100c15b0     guideXOS.obj
 0005:0001b5d8       __Str_Name                 00000000100c15d8     guideXOS.obj
 0005:0001b5f8       __Str_Napatech_A_S_191F3A0EB8A33C93AA6BF56218FDBD5D4F80C6D8DD47D082828A51F78DBA6769 00000000100c15f8     guideXOS.obj
 0005:0001b628       __Str_National_Datacomm_Corp_659374591CAF30958069CA02E5F9C435F0749FDAD6C3C83C35D7DA73C1403077 00000000100c1628     guideXOS.obj
 0005:0001b670       __Str_National_Instruments_C36ED1B3B68BAC6094672D9EFEDC4D10295EEA02CAAFDBA97473B057F48EC319 00000000100c1670     guideXOS.obj
 0005:0001b6b0       __Str_National_Semiconductors_F8EDC8EF4A49AAEB340B9DEA5DB20EBF4313CF8DE88F26E214A308F5652F8B01 00000000100c16b0     guideXOS.obj
 0005:0001b6f8       __Str_Nature_Worldwide_Technology_Co_74F3021ABE043CF918DA703B07F27883B48B5DF4F03C83EC85CD9302265C37B1 00000000100c16f8     guideXOS.obj
 0005:0001b750       __Str_Ncube                00000000100c1750     guideXOS.obj
 0005:0001b770       __Str_Neomagic_Corporation_C5BD3CDE53CAA2516F5667C28F0087D77DA80C90270200E7A31EBEBCB9534D7F 00000000100c1770     guideXOS.obj
 0005:0001b7b0       __Str_Nest_Inc_6F1F7EE676EF7EFD7BCEE812A0818CDBE201903EC7FBE7153BC0929D6FEC5260 00000000100c17b0     guideXOS.obj
 0005:0001b7d8       __Str_Net_Growth__Alloc___Free___5F0CBD33628738ECE85C14430F185FCAC1767EE0CEAE055EFA873C183CC6C868 00000000100c17d8     guideXOS.obj
 0005:0001b828       __Str_Net_Insight_80F1591918EF9BAC212664618AC858867B4CC70D122B212C942696B607DF6135 00000000100c1828     guideXOS.obj
 0005:0001b858       __Str_NetChip              00000000100c1858     guideXOS.obj
 0005:0001b880       __Str_NetContinuum__Inc_1D25F7D34DB448264F1E8D7F573B3464348A53CECCD392A50359183E603470B4 00000000100c1880     guideXOS.obj
 0005:0001b8b8       __Str_NetOctave_Inc_457EF111CE850021F094485C7C8023677CBA02A7748A4BB0C09BE220FCE07076 00000000100c18b8     guideXOS.obj
 0005:0001b8e8       __Str_Netboost_Corporation_D78CA4AD1E5496E4407E5E7E3A547D99E81F2B9914A57FA4B1FE2176C3E8B27F 00000000100c18e8     guideXOS.obj
 0005:0001b928       __Str_Neterion_Inc_67DF1C691AA5C7F24BADD93DAD9F0A829E2AFFD4F90A86FA65D5E7453F4FA63B 00000000100c1928     guideXOS.obj
 0005:0001b958       __Str_Netframe_Systems_Inc_DC9469F692C3D1E1562FAECAE83F0FBB618B1CD862E5BB05037F66DA0C1AD42B 00000000100c1958     guideXOS.obj
 0005:0001b998       __Str_Netgame_Ltd_2EEBE345F3D5274E208FEEBEF8EA90B229599D7B311C1FB61382B0FF868608D5 00000000100c1998     guideXOS.obj
 0005:0001b9c8       __Str_Netgear              00000000100c19c8     guideXOS.obj
 0005:0001b9f0       __Str_Netpower_Inc_A1CD988A5C714B1797B31FDF0862502488B384ED83123FF4FE228CD5D4A267B7 00000000100c19f0     guideXOS.obj
 0005:0001ba20       __Str_Netspeed_Inc_BE6D99FC7FCBF3384F2772EC6626F05AA5E4D1CB6DEF0635426D171AE23CC81D 00000000100c1a20     guideXOS.obj
 0005:0001ba50       __Str_Network              00000000100c1a50     guideXOS.obj
 0005:0001ba78       __Str_Network_Appliance_57290BA128DB6CA9333CBAF1CB22EB3361B13AE724F3430F5EEF9A6816C75474 00000000100c1a78     guideXOS.obj
 0005:0001bab0       __Str_Network_Computing_Devices_0777AE6C422C655E15FF4BE40F8822DA12736B62B785541C1E3900498637D4C0 00000000100c1ab0     guideXOS.obj
 0005:0001baf8       __Str_Network_General_Corp_219420E2301F1AF8B7F5394B6E3541541FF516020BB5A2AC0579E6DFAEB3BEFB 00000000100c1af8     guideXOS.obj
 0005:0001bb38       __Str_Network_Peripherals_Inc_9B6F74B1020835526517853D36581FE4292E398D0EBFC4BED3667008E3D651A8 00000000100c1b38     guideXOS.obj
 0005:0001bb80       __Str_Network_Security_Technologies__99BF39EDE061569A3AC464C9D2D9DAA43D8E0A928F58E67CCC8CAC7F66957CC1 00000000100c1b80     guideXOS.obj
 0005:0001bbf0       __Str_Network_controller_A76E2A0BAA343927207A71311E7F1114A44F3449A710D2CC0592B655E82EFC56 00000000100c1bf0     guideXOS.obj
 0005:0001bc30       __Str_Network_not_initialized_6BC3358D9F5223D07523FBC9C5BEA2598A17BDE624512F2E1AF8837FFFA6587E 00000000100c1c30     guideXOS.obj
 0005:0001bc78       __Str_Network_not_initialized__Run___4FA3DFA862A1A38E1E13098E40FB04DED0E21241B38CF215F0A424A9039A0653 00000000100c1c78     guideXOS.obj
 0005:0001bce8       __Str_Network__C3B50E2704C04ED43F452BF53B0C58F3965E20A0BFFB3B63D105DA2E829B980C 00000000100c1ce8     guideXOS.obj
 0005:0001bd10       __Str_Network__Intel_825xx_DA13CA499838CDDCF47725DB774264AADEABE96CF762DA5685141A99717BF04D 00000000100c1d10     guideXOS.obj
 0005:0001bd50       __Str_Network__Realtek_8111_8168_686D4505111DDFA085D304D8867EF31F8F4BF36AA3DBC259BB6CF3A0F94BAE64 00000000100c1d50     guideXOS.obj
 0005:0001bda0       __Str_Networks             00000000100c1da0     guideXOS.obj
 0005:0001bdc8       __Str_Networth_Technologies_Inc_5AE90C18350E3E018A6837A3DCF8BFF7CE2F2C749B1D109D407312616D840F46 00000000100c1dc8     guideXOS.obj
 0005:0001be10       __Str_Networth_controls_5E8F90DB9B87BA9F9A711A74196F564A5DBCD8C62238CC10907EBF6C5CC9F2BE 00000000100c1e10     guideXOS.obj
 0005:0001be48       __Str_New_Tab_E1D4E2E8188215ABDF46B18F20B0AB0C0930C6F7F1166414A83E8D5AFEDEF15D 00000000100c1e48     guideXOS.obj
 0005:0001be70       __Str_NewGen_Systems_Corp_E3506CBA8742F515A25D9C3F4E10B28C8DB7C6FC30775A3DEDA6DE5248A6DF86 00000000100c1e70     guideXOS.obj
 0005:0001beb0       __Str_NewNet               00000000100c1eb0     guideXOS.obj
 0005:0001bed8       __Str_Newer_Technology_Inc_A47B00885BF72D4309234DAE7ACBC19B3240BFF2FBEEC0FC21E9946B8ED5A482 00000000100c1ed8     guideXOS.obj
 0005:0001bf18       __Str_News_Datacom_8D6BAE7B0FDDA503867198E6C2F223A93543FB9060FCA33A2C2AD55F043DB999 00000000100c1f18     guideXOS.obj
 0005:0001bf48       __Str_Nexgen_Microsystems_2B3ECE83699E584E062F133353DECB47D48E3330997EEF4395E1E42D2473D07D 00000000100c1f48     guideXOS.obj
 0005:0001bf88       __Str_Next                 00000000100c1f88     guideXOS.obj
 0005:0001bfa8       __Str_Nextcom_KK_02CC96B2B10E3FD8ADF277CBFBEF6427DB74052F8AB0647C0BC0241FFA7C9439 00000000100c1fa8     guideXOS.obj
 0005:0001bfd8       __Str_Nick                 00000000100c1fd8     guideXOS.obj
 0005:0001bff8       __Str_Nick_set_to__EC0FBD1D593F04AD7776234923E5B9BF43F64BC68E5C9EA709795FDD1D56094C 00000000100c1ff8     guideXOS.obj
 0005:0001c028       __Str_Nicolet_Technologies_BV_D0C37A2A56F345ED0B9BDF31CD67BED4D5A2B92472F843F3DE7E67B8690746A2 00000000100c2028     guideXOS.obj
 0005:0001c070       __Str_Nihon_Unisys_Ltd_1C4292673E262C256FA99F7AD2A8EE36E9AB5DB2953E2EECBB2CE429694F8026 00000000100c2070     guideXOS.obj
 0005:0001c0a8       __Str_Nikon_Systems_Inc_03AB346B769768E80771158F1F07E1200C444964EF51FE8706AF3C3F040AC3B4 00000000100c20a8     guideXOS.obj
 0005:0001c0e0       __Str_Ningbo_Harrison_Electronics_Co_6E35089723DE2901D8725E69AAED1AABD5EDAB253911205D10BE9A558BEDCBC3 00000000100c20e0     guideXOS.obj
 0005:0001c140       __Str_Nintendo_Co_Ltd_F01D8F1A560AA19C4D543B07FFEFCEB5E0F747E8497A43DEF37E318AC613D12D 00000000100c2140     guideXOS.obj
 0005:0001c178       __Str_Nippon_Systemware_Co_Ltd_84C9B3C6A69E0424AED80AB0001EE22437BE3AC1258D97E13EA4511CD0DF7659 00000000100c2178     guideXOS.obj
 0005:0001c1c0       __Str_Nippon_Texa_Co_Ltd_D28D262DF5F564067F9AC3F94108B9A61CD69AA04D1F4F7A0F1BECDD35F7250A 00000000100c21c0     guideXOS.obj
 0005:0001c200       __Str_Nippon_Unisoft_Corp_CC50296638EB7017C2CAFDEADA3C232A94DE5DE4666FE0EB2E97E0E79F97F92A 00000000100c2200     guideXOS.obj
 0005:0001c240       __Str_Nissin_Inc_Co_361A58B3EB7707249E0B7ABA98AF82F62E86C4C828E0BFC8A2F5638ABFF70026 00000000100c2240     guideXOS.obj
 0005:0001c270       __Str_Nitsuko_Corporation_48D5F42F3C874282ABD487303E51CC3B6A04287D64C2F693776CBEAD04E22E27 00000000100c2270     guideXOS.obj
 0005:0001c2b0       __Str_No                   00000000100c22b0     guideXOS.obj
 0005:0001c2d0       __Str_No_application_can_open_this_f_EF2E53B752B2F7D3971E742848D13DE99FE49F50B5ABB6B4416A9212DE1E0BDF 00000000100c22d0     guideXOS.obj
 0005:0001c330       __Str_No_error_code___likely_instruc_9A8FE8C95E8F54FA3B9B93EB1A802D519123781B97E9ABFB664C1E1B3B9FAA48 00000000100c2330     guideXOS.obj
 0005:0001c3a8       __Str_No_fonts_found_in__Fonts_direc_F81E3D56AE508B5FA65E2F423171EF1C8E6E747C7A81BF024F73563C179C7040 00000000100c23a8     guideXOS.obj
 0005:0001c408       __Str_No_free_MBR_slots_B39FB457F11A311BE32C0F77CC2F11015ADA6AEE1A52B77BDCD0BF1E062E84B1 00000000100c2408     guideXOS.obj
 0005:0001c440       __Str_No_images_found_in__Background_6A837E1B542508BD9DDC126BE105F75A587E016866568B1ED781EC13442CBD32 00000000100c2440     guideXOS.obj
 0005:0001c4a8       __Str_No_resolutions_available_D6652A9B344A63EE28B5BC356AA63D66DEB6A2CD5A1E5F71D6439DD33234D477 00000000100c24a8     guideXOS.obj
 0005:0001c4f0       __Str_No_response_43B27C933D8F067983505C273BDF1C1C8E85094EBBF18902B54C65BF4E70C5BA 00000000100c24f0     guideXOS.obj
 0005:0001c520       __Str_No_such_command____0E6EFDFE70B9935488CA0AA8977C0A4CD4B6579C3BAB8A642124B3A3794FEB27 00000000100c2520     guideXOS.obj
 0005:0001c560       __Str_No_sufficient_free_space_35390D82456A977C3B541D3625C5CB3AE2E3C57027005AE9DEA4D0C22C7D2E36 00000000100c2560     guideXOS.obj
 0005:0001c5a8       __Str_No_suitable_disks_found__2EEC7D11EE17E648738CFDDC3A33E266489DD9A18824821CE6CDEEE0FDF8525C 00000000100c25a8     guideXOS.obj
 0005:0001c5f0       __Str_NoWrap               00000000100c25f0     guideXOS.obj
 0005:0001c618       __Str_Nokia_Home_Communications_11ACA342FF93C0CAF7447028C4072CBF6AE50475F69E6D906D21FB99F06B2AF2 00000000100c2618     guideXOS.obj
 0005:0001c660       __Str_Nokia_Telecommunications_OY_7AA04B1868575E09E1F95ADE910507F2A1ADC650AFDA51A7CC7A13FE04F271B6 00000000100c2660     guideXOS.obj
 0005:0001c6b0       __Str_Nokia_Wireless_Business_Commun_0EC91059712BA82473EA9BAF25C47E86A2D0C53DCDCB35F41262728FB046A3AE 00000000100c26b0     guideXOS.obj
 0005:0001c718       __Str_Non_Essential_Instrumentation_092D60ACFC5125763F2053793A3846EF2C8DB8D372DA0D2DAD420504CFDB64D8 00000000100c2718     guideXOS.obj
 0005:0001c768       __Str_None                 00000000100c2768     guideXOS.obj
 0005:0001c788       __Str_Normal_Mode_7925D64EC9959AC30CF2D2BD28DC3BD79631B3C5D8B0999291DAB3308166DB7D 00000000100c2788     guideXOS.obj
 0005:0001c7b8       __Str_Norpak_Corporation_DFFF8C353FF938EA7D1EDD4FF4984D6763D44E6C06FFF61797C0A027E16C78B9 00000000100c27b8     guideXOS.obj
 0005:0001c7f8       __Str_Norsk_Elektro_Optikk_A_S_87FA14FB8675EF6F8A0884DAD1002E61E0C828B3498BEE20BA436B8B0F0778FD 00000000100c27f8     guideXOS.obj
 0005:0001c840       __Str_Nortel_Networks___BWA_Division_6F214F436A799AD152203843B99675B8FC7135B11C6AA38B45FBED3B785B10B2 00000000100c2840     guideXOS.obj
 0005:0001c898       __Str_Nortel_Networks_Corp_609B68CC2C1ADE8EDE33761E48038702BC698A27272F15F213CAD9D6728FFAC2 00000000100c2898     guideXOS.obj
 0005:0001c8d8       __Str_North_Atlantic_Instruments_1FA5A60D036F9E72FDA4E05EC842C165E2E6D321B87E285B8384C442698C841B 00000000100c28d8     guideXOS.obj
 0005:0001c928       __Str_Northrop_Grumman___Canada_Ltd_B217403AFF33737AA47CB3441CC4C589444EE5B14E79B02D2F0B9B64873FD68A 00000000100c2928     guideXOS.obj
 0005:0001c978       __Str_Not_Initialized_D74F1428C41BD961BC58F1464C9B46CC4A204B5FE6E3D71A2A6BDCF4FB851892 00000000100c2978     guideXOS.obj
 0005:0001c9b0       __Str_Not_Ready_2A762E63B75FCA8A418463384135821CE7EB73A624052AA37023C8B7F2E46473 00000000100c29b0     guideXOS.obj
 0005:0001c9d8       __Str_Not_connected__4141979C48EC85BF0DBD3BEA21FAADD0A91D933B9762DD0DAB50F9500118B007 00000000100c29d8     guideXOS.obj
 0005:0001ca10       __Str_Not_found_08060E6C74CCC9BC76B5901EA9A520F149BC4AA5689C4FBD4399091259807DF8 00000000100c2a10     guideXOS.obj
 0005:0001ca38       __Str_Note__Use__dns__hostname___to__B537302747418307FA7286824FAE3EB3797A8BB8730290F686EC0591ABA792D8 00000000100c2a38     guideXOS.obj
 0005:0001cab8       __Str_Notepad              00000000100c2ab8     guideXOS.obj
 0005:0001cae0       __Str_Notepad____FEBF91402CB2E4C378833F57F3E33EBF16FF87D34BD49C2765700B8618C1817A 00000000100c2ae0     guideXOS.obj
 0005:0001cb10       __Str_NotepadModule        00000000100c2b10     guideXOS.obj
 0005:0001cb40       __Str_Novell               00000000100c2b40     guideXOS.obj
 0005:0001cb68       __Str_November             00000000100c2b68     guideXOS.obj
 0005:0001cb90       __Str_Number_Nine_Visual_Technology_A2175B8642AF1AE1BC6285BD4E152F039334B6F3E561E0E9977BE872B9157ABE 00000000100c2b90     guideXOS.obj
 0005:0001cbe0       __Str_O2Micro_Inc_B667760B5B194F8144A176FCE3FE6FD4FCA2B23416D27E779A822A00C5FF1D61 00000000100c2be0     guideXOS.obj
 0005:0001cc10       __Str_OA_Laboratory_Co_Ltd_F842EB4EEA8CF30AA6C8BF4A9B20F7FB130E88E9D9122DAF8082ACF19E355012 00000000100c2c10     guideXOS.obj
 0005:0001cc50       __Str_OCE___Industries_SA_13861F1F36451071DAFCB16E345BA410FF29D858612A50A0B02AD4F4881BC70F 00000000100c2c50     guideXOS.obj
 0005:0001cc90       __Str_OEC_Medical_Systems_Inc_8C848EF457753548B21B92655F710476BDD96412CDD2A802759E65078E0E43FB 00000000100c2c90     guideXOS.obj
 0005:0001ccd8       __Str_OF__0__IOPL__1__NT__2__RF__3___3FD5AAAA2ED0105F97773B3317953B48E6CABA718388FFFECFBD91ED85118FE2 00000000100c2cd8     guideXOS.obj
 0005:0001cd30       __Str_OFTC                 00000000100c2d30     guideXOS.obj
 0005:0001cd50       __Str_OK                   00000000100c2d50     guideXOS.obj
 0005:0001cd70       __Str_ON_Electric_Co_Ltd_D969C05F95597C05B766F8BECCF5826B37D8B5798732603381ED6DF5F4EBF6C2 00000000100c2d70     guideXOS.obj
 0005:0001cdb0       __Str_ONCHANGE             00000000100c2db0     guideXOS.obj
 0005:0001cdd8       __Str_ONCLICK              00000000100c2dd8     guideXOS.obj
 0005:0001ce00       __Str_ONO_Sokki_24D69E2F3E9872CE04383A329B244FC1F1C6712D22A0F6DA72D533272AB62859 00000000100c2e00     guideXOS.obj
 0005:0001ce28       __Str_ONTEXTCHANGE         00000000100c2e28     guideXOS.obj
 0005:0001ce58       __Str_OOM                  00000000100c2e58     guideXOS.obj
 0005:0001ce78       __Str_OOM_stack_F64F26EBFA16657D073939D3A49EFC080508F0B00AA021760AD15552F1B66B0D 00000000100c2e78     guideXOS.obj
 0005:0001cea0       __Str_OPENAPP              00000000100c2ea0     guideXOS.obj
 0005:0001cec8       __Str_OPENDIALOG           00000000100c2ec8     guideXOS.obj
 0005:0001cef8       __Str_OPTi_Inc_60781C21EB68CE833C8DD4BCC14CC465197EACBCE9E04B13C6566F9EBF2D5061 00000000100c2ef8     guideXOS.obj
 0005:0001cf20       __Str_OSI_Plus_Corporation_8F12889C95FE801A7696F526ECFD06385D94FD92EF0C8184A35D05912EF6DDFA 00000000100c2f20     guideXOS.obj
 0005:0001cf60       __Str_OVERFLOW             00000000100c2f60     guideXOS.obj
 0005:0001cf88       __Str_Oak_Technology_75029A7292BD448B0B4BA3AC894C73C4B66684B64960C0D718706A5EB4F1F03A 00000000100c2f88     guideXOS.obj
 0005:0001cfc0       __Str_Oakleigh_Systems_Inc_D785608F855353C41C6FAB05954887CDCF2763D13FA5FB9B8445FCBAC62F6549 00000000100c2fc0     guideXOS.obj
 0005:0001d000       __Str_Obtain_DNS_server_address_auto_395E31DA8812F016E9F1D598CACB74EB14EADEA0164C6CF6C80E419057826E01 00000000100c3000     guideXOS.obj
 0005:0001d068       __Str_Obtain_an_IP_address_automatic_53195CDB4635D740B7854DF0FEFE90055BAB4EC98B87B1E7C661E2240C5FB049 00000000100c3068     guideXOS.obj
 0005:0001d0c8       __Str_Oce_Print_Logics_Technologies__92A72EFF98ADA1EB5E4C55B6E80A23FFFE6F7E503E3311EA8C8627AF8310ED5C 00000000100c30c8     guideXOS.obj
 0005:0001d120       __Str_Ocean_Office_Automation_3F2B4E7C16E8EC8702E22717DFC7F6FE9096112C60ADA38F55E2AC5AFDD13EBE 00000000100c3120     guideXOS.obj
 0005:0001d168       __Str_Octave_Communications_Ind_5DDC6C601FD7FB3F202CBB0B1369E33F117B94F0D4A0385663A0A44F9DA580A7 00000000100c3168     guideXOS.obj
 0005:0001d1b0       __Str_October              00000000100c31b0     guideXOS.obj
 0005:0001d1d8       __Str_Odin_Telesystems_Inc_BE4745B86350B05DFCD81CA6B50C9E9027FCB2515DF88386C3A82F00597B369B 00000000100c31d8     guideXOS.obj
 0005:0001d218       __Str_Oki_Electric_Industry_2462222A0BDDC7417A936DB1CE39AD55248206574F24CCDAF7B8D62033242C93 00000000100c3218     guideXOS.obj
 0005:0001d258       __Str_Olicom               00000000100c3258     guideXOS.obj
 0005:0001d280       __Str_Olivetti_Advanced_Technology_9EA7F655C9AA41BA5B224E268760880C50868D4F95B56DFDC67284C966F9FE3E 00000000100c3280     guideXOS.obj
 0005:0001d2d0       __Str_Olympus_Optical_Co_Ltd_9485BBC8B299C79BEF615FF6D7E00DF3192DB772396A33C3DA5D3EE21A16CDE7 00000000100c32d0     guideXOS.obj
 0005:0001d318       __Str_Omega_Micro_Inc_0FC5C09E4F8F36FD984783167CBD2CFB9F53D28B37CB98641912EC2991E75146 00000000100c3318     guideXOS.obj
 0005:0001d350       __Str_Omni_Media_Technology_Inc_08488DEF90F73A0FB6A654C02E91F248F05944B3473FA5505ED644211C0468E5 00000000100c3350     guideXOS.obj
 0005:0001d398       __Str_Omron_Corp_5DE304FA61E8D004B197D5E4C66AD4006B424859765651803D9408BFAF066D29 00000000100c3398     guideXOS.obj
 0005:0001d3c8       __Str_Omron_Corporation_B5A89116C11CFE5178D1E8EF3483757313AC8B19F9B940A9B5D899BEF3E083E6 00000000100c33c8     guideXOS.obj
 0005:0001d400       __Str_On_Screen_Keyboard_757CB2BF631CA776297047B46DCBF50E69A5046009369A14024EC3BBE3739433 00000000100c3400     guideXOS.obj
 0005:0001d440       __Str_OnScreenKeyboard     00000000100c3440     guideXOS.obj
 0005:0001d478       __Str_One_Stop_Systems__Inc_2A8FFA6920B53F9ACDA7903F6A2B2C24E0AF708207DDC920BA0A5DAEFD48475F 00000000100c3478     guideXOS.obj
 0005:0001d4b8       __Str_Onkyo_Corp_91C1BF9391217954AEF8970CD7D4FF72DB1D8FCA4BE735C6A2681C8D7B76EC10 00000000100c34b8     guideXOS.obj
 0005:0001d4e8       __Str_Only_http____supported_88EB6DF14ED25EBC05152D633537A8E87DB23B85A8CE736721CB46F4B611DBF0 00000000100c34e8     guideXOS.obj
 0005:0001d530       __Str_Only_support_24bit_or_32bit_bi_984E25FAF83A38D5E57070929DCC7CBC85BA94FF70C3BDC698DA775197E0C8C1 00000000100c3530     guideXOS.obj
 0005:0001d590       __Str_Open                 00000000100c3590     guideXOS.obj
 0005:0001d5b0       __Str_Open_Network_Co_Ltd_7F8CB79084758160C19C2AE8D6574F7F1C755BF52C647B6D0E65A9A14926F161 00000000100c35b0     guideXOS.obj
 0005:0001d5f0       __Str_Optibase_Ltd_8A8237E9E7EB98C61EE6B70DCA6092EBB0958DE4D9BF50CBD2FCF8B0274CD80F 00000000100c35f0     guideXOS.obj
 0005:0001d620       __Str_Option_NV_E9274052E34568F2DA12E9B17B88EEDFC624EDF3F18CB2D3EC3CDE14DB476E1C 00000000100c3620     guideXOS.obj
 0005:0001d648       __Str_Optivision_Inc_E3B03502636D45C791CC1B7060078426786040BFD02B91F64F18F9C6086C189C 00000000100c3648     guideXOS.obj
 0005:0001d680       __Str_Opto_22_241B57CDB39DBD754AFA09F3528EEE8F3A1CC4F163AF3F5826ACB634DEA9C04A 00000000100c3680     guideXOS.obj
 0005:0001d6a8       __Str_Oracle_Corporation___InnoTek_S_BA0624C7E60ED8CBF4A4964D0D811F9996CB9AEBA83516F10159B28BFCE5F4D2 00000000100c36a8     guideXOS.obj
 0005:0001d720       __Str_Orange_Micro__Inc_10BDF63960E93CDB6DF47E45E798F63FECC07B5C8C76D81F4DD207F45AA4DF77 00000000100c3720     guideXOS.obj
 0005:0001d758       __Str_Oregon_Micro_Systems_Inc_E07CBE1DEDFF434AD55F32FC9B44F4A42EB3DC0FB77E86694C923974A79DF22C 00000000100c3758     guideXOS.obj
 0005:0001d7a0       __Str_Osicom_Technologies_Inc_FCC39AFB5A29080D616895C4CA48B403EEA21A4AA225DB81D91FEAA252F15058 00000000100c37a0     guideXOS.obj
 0005:0001d7e8       __Str_Otis_Elevator_Company_D3E2A10CE272FB7C2C8D008C9BEFE354C09DA03FDBC5140756027B2B5EA38749 00000000100c37e8     guideXOS.obj
 0005:0001d828       __Str_Out_of_memory__no_free_pages___1C9E401B9D1491E765B8BEB91B7F0E4AE44AACC7B39F89097866A2E4CD769CDE 00000000100c3828     guideXOS.obj
 0005:0001d888       __Str_Overflow_Exception_17237AF782D07A92022A4D5580D2801A70B34EB55F2A9A808C4A85755371880F 00000000100c3888     guideXOS.obj
 0005:0001d8c8       __Str_Oxford_Semiconductor_Ltd___now_55078A26B5B67AAE3C342722A67F75A3F9D0944C8BE76FCC43B61647D9748848 00000000100c38c8     guideXOS.obj
 0005:0001d948       __Str_PAGE_FAULT_AC0C9BB7DF0A800C1DAAE3D0672B6A1CC78305DCE93C4796332016D0426511AF 00000000100c3948     guideXOS.obj
 0005:0001d978       __Str_PAN_International_Industrial_C_9E636674693EED6914DC767C52C9E65F1318CA25DA9D689769557AD63C862D44 00000000100c3978     guideXOS.obj
 0005:0001d9d0       __Str_PANIC___18B9166B01C111C4C7D12C937E9C010FAC0A3B1BA35AA56F1A4A9DC62B7F3624 00000000100c39d0     guideXOS.obj
 0005:0001d9f8       __Str_PATTERN_DETECTED__Crash_at__5__8D06EFAD4B8F1F0CC90F14C23B43B30A774637473022B1237BC42851DD5F5253 00000000100c39f8     guideXOS.obj
 0005:0001da60       __Str_PC_Direct_509E517DE3E36F641F00408D0E31333398DB38DA91CCD5FE8A1D85FE0461C3CF 00000000100c3a60     guideXOS.obj
 0005:0001da88       __Str_PC_Partner_Limited_91FDE4E85EDFE6B64B188DB6345313A7B4AE76F9D5490979DFFDA5C08D25E13B 00000000100c3a88     guideXOS.obj
 0005:0001dac8       __Str_PCTEL_Inc_971904C7EAEFDFBC03963D0BA464E959E2D638192CE80D5D8DA57D0432FF6E55 00000000100c3ac8     guideXOS.obj
 0005:0001daf0       __Str_PFU_Ltd_C3AFBE7BA1F96AC1BFF8551D83DE46EE1C494140B64C12AB5CDFD8FBAED7AD37 00000000100c3af0     guideXOS.obj
 0005:0001db18       __Str_PINE_Technology__Ltd_102895491967AD089FF5A5328A68F57BD937AFE9B87C36E9A6BA652A5DD4F6E8 00000000100c3b18     guideXOS.obj
 0005:0001db58       __Str_PING__7A251078D695F88863C3CBDD07A512994F3BA70B77B7BA31600DF0998275F7E9 00000000100c3b58     guideXOS.obj
 0005:0001db78       __Str_PLDA                 00000000100c3b78     guideXOS.obj
 0005:0001db98       __Str_PLX_Technology_Inc_26A55268CCDF266F7579A74A2F28F239CB62E706062ADC132AD4A709CFEF9C52 00000000100c3b98     guideXOS.obj
 0005:0001dbd8       __Str_PMC_Sierra_Inc_32C159E77F417A2F2B214ED771466EDB0596784B56B8E5735199342E8EDAFD62 00000000100c3bd8     guideXOS.obj
 0005:0001dc10       __Str_PONG__E66039F9F26E46D3AD1FFCAE3C3C8DBBCF2C5BC075480F5B0D488A51BE7174A6 00000000100c3c10     guideXOS.obj
 0005:0001dc30       __Str_POST                 00000000100c3c30     guideXOS.obj
 0005:0001dc50       __Str_PPT_Vision_0F66683FE68E052EE78A21373159E644FA080654AB69ADF1C947D740E0C9A3A8 00000000100c3c50     guideXOS.obj
 0005:0001dc80       __Str_PRIVMSG__54DA30C469639D8D6D89D53BA03452F444139304B1566EEF45E98CBB9CDF1800 00000000100c3c80     guideXOS.obj
 0005:0001dca8       __Str_PX_Instruments_Technology_Ltd_DB0CBCD6C731F15AA2B6239C5ED9294B0023453C6C4E852F29144B10696042AC 00000000100c3ca8     guideXOS.obj
 0005:0001dcf8       __Str_Pacific_Broadband_Communicatio_08FBD76E305918F3D8FCD1E9FACDA9A50F76463BC6CFFE3D160AB9BBF1D8305D 00000000100c3cf8     guideXOS.obj
 0005:0001dd50       __Str_Pacific_Digital_Corp_DBAFF23EED4BA882251F45662F6C97E95069278FF159FFD2ADADF17796A6B926 00000000100c3d50     guideXOS.obj
 0005:0001dd90       __Str_Packard_Bell_ED15B9729671ABF48A972DE637C8665399C831C02169828475A623B9AEF1D64E 00000000100c3d90     guideXOS.obj
 0005:0001ddc0       __Str_Packet_Engines__Inc_E6759A2A20B4751DC5E07B60BB550E74FAD997AFFD134F6EB5FD11250E00FB6E 00000000100c3dc0     guideXOS.obj
 0005:0001de00       __Str_Paint                00000000100c3e00     guideXOS.obj
 0005:0001de20       __Str_Paint___Initialization_Error_677AF6A035946D0533008FAB35383EDE491D855365E037ADE3C8CD72B35F5033 00000000100c3e20     guideXOS.obj
 0005:0001de70       __Str_Paint_not_properly_initialized_B9D4524338935EE45599821AE17D87920FF1A20E7F1AB307E47BF1C32E7D71AF 00000000100c3e70     guideXOS.obj
 0005:0001dec8       __Str_Pairgain_Technologies_BC2A2C568F5F83433FDF1A96CB0F4A7C9E9295BC96D9063FA3405ACBB1FD9558 00000000100c3ec8     guideXOS.obj
 0005:0001df08       __Str_Palit_Microsystems_Inc_FB122F85C617D33A397DF577105A86BED2F000F0ABBA631F46F7372486D34FBE 00000000100c3f08     guideXOS.obj
 0005:0001df50       __Str_Panacom_Technology_Corporation_450165E7DD1975024B956A4300220572816C4E59EF628A08B0E9BEF38CD227AC 00000000100c3f50     guideXOS.obj
 0005:0001dfa8       __Str_Panda_Platinum_1F94E460BF03F8312C7FF6DE0DAA483FF2DC4BD09196FCA43ED0E5BF1D255CB1 00000000100c3fa8     guideXOS.obj
 0005:0001dfe0       __Str_Parador              00000000100c3fe0     guideXOS.obj
 0005:0001e008       __Str_Paradyne_Corp_E2DACA2B50CEE326A77AA5EC78BD390E9CC3A990BF1AC09557B49F82E3A967CF 00000000100c4008     guideXOS.obj
 0005:0001e038       __Str_Parallax_Graphics_D23D7E04B067C12BB1E51DFB115067E741BD2D9A39787A972D5C07961B3ECE27 00000000100c4038     guideXOS.obj
 0005:0001e070       __Str_Parsytec_GmbH_1EE08BB9EDD7746BC2BFC176BF00C8B51A6308989D8764032E17029DBD7A067B 00000000100c4070     guideXOS.obj
 0005:0001e0a0       __Str_Partition_Configuration_0F07E18C4D6119BAE288BE41B57722C3AE319C35E8B03BA80DCA59D2855E693F 00000000100c40a0     guideXOS.obj
 0005:0001e0e8       __Str_Partition_Layout__editable___83BD73AB60798793C19129302A93753EB09B08A6F7DC6D7EB0A8EAB66976DC8A 00000000100c40e8     guideXOS.obj
 0005:0001e138       __Str_Partition_created__Refresh_to__E1EAF8A25F1A02CE47ED5E40BD5178917D3C797D890A24364C656F8A35127706 00000000100c4138     guideXOS.obj
 0005:0001e198       __Str_Partitioning_disk____0CEF080C03B77D6C1E5479C519BF5BDE55C86176F56A574096520F60C670BD52 00000000100c4198     guideXOS.obj
 0005:0001e1d8       __Str_Partitioning_supported_only_on_88DBBB0D86E72927A7306E49C754D1C9B4650A28014E2BB252056523135FC809 00000000100c41d8     guideXOS.obj
 0005:0001e248       __Str_Patapsco_Designs_Inc_78B70D36B09F72CFE8DF4B7AD3121B00C62EF2654EE4EE65530E29209A9D3B77 00000000100c4248     guideXOS.obj
 0005:0001e288       __Str_Path_refers_to_a_directory_79DC08CB02E3A8A7822A8039D35B0F7667C9B771D280FE87A9472D2BE9C7E79C 00000000100c4288     guideXOS.obj
 0005:0001e2d8       __Str_Pathlight_Technology_Inc_4963761E0C5A3DC8162171F4C48602808357866A59B78C40017007AD75EE66ED 00000000100c42d8     guideXOS.obj
 0005:0001e320       __Str_Patriot_Scientific_Corp_134C6462222A24D2944F314ECA1D382A3928E79018CC6763CAF2EF21805769B1 00000000100c4320     guideXOS.obj
 0005:0001e368       __Str_Peer_Protocols_Inc_52DD121B528475C807A219CAB65C18F0245F97630668D6ADE470532325C48D30 00000000100c4368     guideXOS.obj
 0005:0001e3a8       __Str_Pelago_Networks_2A2596AD8EFF3F3809AACE12082F5DA7B9F61BED40DC095A54159718C964A83B 00000000100c43a8     guideXOS.obj
 0005:0001e3e0       __Str_Pencil               00000000100c43e0     guideXOS.obj
 0005:0001e408       __Str_Penta_Media_Co_Ltd_587C874765A3D2527B6C686803388C0D1AC292F28B27DF41C8D0E264645B615A 00000000100c4408     guideXOS.obj
 0005:0001e448       __Str_Pentek               00000000100c4448     guideXOS.obj
 0005:0001e470       __Str_Pentland_Systems_Ltd_B5D0E33222204F5D8DA663EB60D084F2884D70F7209F263FFA7FA26E75ABC83A 00000000100c4470     guideXOS.obj
 0005:0001e4b0       __Str_Peppercon_AG_7A0278BFA714EE296FCD8B996BE36B0FBD07B73CEED059BB085830505212FE77 00000000100c44b0     guideXOS.obj
 0005:0001e4e0       __Str_Perceptive_Solutions_Inc_29A5268B8094A12C6CC310862F1F5E67A62E6C9512E15D5BFF4D751201E3CB2B 00000000100c44e0     guideXOS.obj
 0005:0001e528       __Str_Performance          00000000100c4528     guideXOS.obj
 0005:0001e558       __Str_Performance_Optimization_Setti_D7995AC45F2C2A7CF93DE2D4F571F74C6C47B5FEA64A31CABE3137BD9BDA8997 00000000100c4558     guideXOS.obj
 0005:0001e5b0       __Str_Performance_Technologies_Inc_E7F52A29A92B622F6BEB47A4FADC4ABECE4E758B6958D822A3DD8BFBC37D3D75 00000000100c45b0     guideXOS.obj
 0005:0001e600       __Str_Performance_Widget_2F20D209730CDFC5CB144FE9081E5C2B0A709AF230E15A55EC0E6F4906664305 00000000100c4600     guideXOS.obj
 0005:0001e640       __Str_Pericom_Semiconductor_9F1BE433E85714C63C46777380953D07ED95AF66777F36574D8A82E8A09085F7 00000000100c4640     guideXOS.obj
 0005:0001e680       __Str_Periscope_Engineering_584D05949A41BFBF25C76523F4B3B9020566E29D29D084E0828684F2341853A3 00000000100c4680     guideXOS.obj
 0005:0001e6c0       __Str_Perle_Systems_Limited_AC2AA8E88C5C6E3EA1CD4B8095B5AB967A32827B44A18626CE4AABBC6E42FE44 00000000100c46c0     guideXOS.obj
 0005:0001e700       __Str_Philips___Crypto_40B997D9861DE95DBD52490526F6D013E3EF3EBCAC80B2F7273B2FB319C8F09B 00000000100c4700     guideXOS.obj
 0005:0001e738       __Str_Philips_Business_Electronics_B_4246CC29D51104A71FFA46BF6E4DD469479D9AF544AAD060D546DFAF36F2B955 00000000100c4738     guideXOS.obj
 0005:0001e790       __Str_Philips_Healthcare_1B9544B9FC78BCD7AC98DFA1D02BCA465177C57277BF8FFB34029FF22A5680D7 00000000100c4790     guideXOS.obj
 0005:0001e7d0       __Str_Philips_Semiconductors_12E4FD6A6C5C115A1DA31B3F3F46E119931297B4A97CB57AB648FF118799F237 00000000100c47d0     guideXOS.obj
 0005:0001e818       __Str_Phillips_Components_B00A70C50A998A12659B049AEBDB1DAC8AFD0C84692F14F346FE81467B05E9DF 00000000100c4818     guideXOS.obj
 0005:0001e858       __Str_Phobos_Corporation_51883516A86BC4C8480476D381BB15AFA0C54C12B4D4339C9AB116E7503A192D 00000000100c4858     guideXOS.obj
 0005:0001e898       __Str_Phoenix_Technologies_Ltd_F6EBCECB9ABF957C4F2120BABF44C9349FFEC8358311848557957FBEBB564F8E 00000000100c4898     guideXOS.obj
 0005:0001e8e0       __Str_Photoscript_Group_Ltd_D757DB638B4577EAAF9FF69FD81DA6787A64D15881D3A0812690C83908DCC546 00000000100c48e0     guideXOS.obj
 0005:0001e920       __Str_Photron_Ltd_3EBA193C81172BABB292053E1B3D5E21EBA8C05CBC29A10C448355426DD29D1F 00000000100c4920     guideXOS.obj
 0005:0001e950       __Str_Picopower_Technology_43A63679E868A60217312960C071CC95B66DE52488B175E371A64D02ED630268 00000000100c4950     guideXOS.obj
 0005:0001e990       __Str_Picture_Elements_Inc_E0B2B6B6AEA10F5B6E1EEB2E96BC5A590AE4A7EBF3328C682CD579E938EB5E16 00000000100c4990     guideXOS.obj
 0005:0001e9d0       __Str_Picture_Tel_Japan_KK_D90083FAA7B2F2A0072431C0D885F98045887D21776F80645E9D70B3D3990080 00000000100c49d0     guideXOS.obj
 0005:0001ea10       __Str_PictureTel_Corp_1AA3ED8C8EBD7DD433A83E931EC6E6F02D10BE52C943BC1EAF5FEAB38768A7DF 00000000100c4a10     guideXOS.obj
 0005:0001ea48       __Str_Pine_Technology_Ltd_B4DE6B47E6DB09BCF52EE15763A6929D229C940E788263DD2965AED949DF8FB8 00000000100c4a48     guideXOS.obj
 0005:0001ea88       __Str_Ping_already_in_progress__plea_882C4D78D5E0BC83050AF5CB3AB02C9EF522A42F84E317D0FB4DCD07C575B515 00000000100c4a88     guideXOS.obj
 0005:0001eaf0       __Str_Ping_failed__network_error__68B397D623701B0BD05B25BBD73ABF5F4158F4504AAB07C9428275DF55660A46 00000000100c4af0     guideXOS.obj
 0005:0001eb40       __Str_Ping_timeout_F601BAC12765CAE1A72771AF5804CA7CFCF3531FD45657EA2FB490111509FBA1 00000000100c4b40     guideXOS.obj
 0005:0001eb70       __Str_Pinging__0___1___2___3__with___3C778A29DE167ACA644FECDBEF24B4198FCFEB254BADFA3333346B8635E9AF99 00000000100c4b70     guideXOS.obj
 0005:0001ebe8       __Str_Pinnacle_system_78A643B642AD4409E53BD689238D98253A3883150182BC115DBC484AD4737540 00000000100c4be8     guideXOS.obj
 0005:0001ec20       __Str_Pioneer_Electronic_Corporation_AB53688D0869CC0F4650205882DEA09ED2CBB7320E94497B64A0C44F2E98A247 00000000100c4c20     guideXOS.obj
 0005:0001ec78       __Str_Pixera_Corp_3752A1E491BD690B9E3CDC1450F75987DFD7546AC3715C1D386A21A8C7BDE39A 00000000100c4c78     guideXOS.obj
 0005:0001eca8       __Str_Pixstream_Inc_442B10FC987FAADBC1C5D2CE89DC25B97E96215ED1F06AEF340665EC6CB22A48 00000000100c4ca8     guideXOS.obj
 0005:0001ecd8       __Str_Planex_Communications__Inc_910BA443A82DEF5ADD62BD69F358ABC680BBED36D246E12960B45C73459285A2 00000000100c4cd8     guideXOS.obj
 0005:0001ed28       __Str_Plant_Equipment_Inc_0D12A83C804D8CC88E5EC681388AEF06FABC99339003A9AF7CD23C902AA539F0 00000000100c4d28     guideXOS.obj
 0005:0001ed68       __Str_Platform_Technologies_Inc_F97819099E54A317E5AF39EF4ADE696093176826DFFF65BE6B53AF58B07805E9 00000000100c4d68     guideXOS.obj
 0005:0001edb0       __Str_Please_remove_the_USB_drive_no_C041D9E211E962FA59AB059555E46928582CD59141949AB903E6254A3849D5F6 00000000100c4db0     guideXOS.obj
 0005:0001ee08       __Str_Please_save_this_information_a_5DD8B285C539F360E95BB50E5CDDBCF8C977C3446A17EF59583FFA286C1FFA2F 00000000100c4e08     guideXOS.obj
 0005:0001ee98       __Str_Please_select_a_disk_to_instal_6EE384DD44D3382B24E7B2104A48173D7D72AB84581849E6F22981A234C6ED31 00000000100c4e98     guideXOS.obj
 0005:0001eef8       __Str_Please_select_a_font_36B802AD6B2E8CD270B2F5ED05C207EB4DBDDDE336B42746C3AE5EEBCFB84610 00000000100c4ef8     guideXOS.obj
 0005:0001ef38       __Str_Please_wait__do_not_power_off__9FF25B84F32CBC7BA9F868274EDB516CF8138AD28100F5159E3623C2D1472386 00000000100c4f38     guideXOS.obj
 0005:0001efb0       __Str_Pluto_Technologies_Internation_A744AF0D0383835E713FFFABB03223CCCD12A5F7018AD4C8B9F0C75628CD2B84 00000000100c4fb0     guideXOS.obj
 0005:0001f008       __Str_Point_Multimedia_Systems_B5635E84FD7FFE54400212FED0CD5C6FCFCAF63F35DD2A73B875EF8FCD192E6B 00000000100c5008     guideXOS.obj
 0005:0001f050       __Str_Port                 00000000100c5050     guideXOS.obj
 0005:0001f070       __Str_Portwell_Inc_99820425709A9C103B0C1351F5C78088FC62CCD39FF68BB5B8461BC1C3776CC6 00000000100c5070     guideXOS.obj
 0005:0001f0a0       __Str_Possible__Invalid_opcode__priv_CA5F1AE1A3B503D458738C2F80021D9D4FD3C52B5EDEC285ACA31943BD71A262 00000000100c50a0     guideXOS.obj
 0005:0001f130       __Str_Power_Computing_Corp_1391EF29A32AB06139436EFB3699CF9F44B3326FD584F2639B18B8BCFF7E300A 00000000100c5130     guideXOS.obj
 0005:0001f170       __Str_Power_I_O_Inc_D47307FC05772FBEB90159BDD98C93B36FD20251FEDFF611F6AE4D1EE6CC8738 00000000100c5170     guideXOS.obj
 0005:0001f1a0       __Str_Power_Micro_Research_B05D3BC762F0FBF23599EF91D5D4D7D35AF95B0B48BE623859B200A500DB17FD 00000000100c51a0     guideXOS.obj
 0005:0001f1e0       __Str_Powermatic_Data_Systems_Ltd_7464C1FBB0CA8DEAA2DF0D1A3DC9419DCCBAFC20E7A3CF4F87842BC722727223 00000000100c51e0     guideXOS.obj
 0005:0001f230       __Str_Precision_Digital_Images_F0952804EF5E7DA7CE141808128A863A536C6529D22E877C4CD2BD33E01C3990 00000000100c5230     guideXOS.obj
 0005:0001f278       __Str_Preferred_DNS_server__3184FAED352ED774DA9F06FCFC4C7B0FCEEA6DB013170E8FEECD03838C13883A 00000000100c5278     guideXOS.obj
 0005:0001f2b8       __Str_Press_Esc_to_close__Double_cli_87354344FCB3B6DC4F734240928D76FAEEAD8FFEAAEDC6D76824BA8BAC2EB19C 00000000100c52b8     guideXOS.obj
 0005:0001f340       __Str_Press_RESET_button_or_power_cy_763BF6A9E46241E834936B0A50DBD2379028B3B12368126EA4A0E27837CC9D85 00000000100c5340     guideXOS.obj
 0005:0001f3c8       __Str_Press_W_or_Up_Arrow_to_unlock_3D98A364B179911418DD1FCB3A6D92AF94DF8A37D23EE0BF7406BF94DE8C6423 00000000100c53c8     guideXOS.obj
 0005:0001f418       __Str_Primagraphics_Ltd_E87CE5391A76ECF8DBD0392C04632658C0950946D9A718AE4F56D2E8B144328C 00000000100c5418     guideXOS.obj
 0005:0001f450       __Str_Primary_Rate_Inc_8179425528818A9B0576EB5405DEEA71F94041572A3EB1E8959FA3CBA615FCC8 00000000100c5450     guideXOS.obj
 0005:0001f488       __Str_Primex_Aerospace_Co_51EB86127DAEF57D505698861897423E40E73A55DFC22D22E8AE8DAA9ECA8C61 00000000100c5488     guideXOS.obj
 0005:0001f4c8       __Str_Prisa_Networks_63932DC182B11A4CA85D20606F9D1EB157B2DDA4756B49E01EF90A4710E9A1DD 00000000100c54c8     guideXOS.obj
 0005:0001f500       __Str_Privilege_Level__Ring__5C94551F1D95502BA566FBB379A5A191FC22BE8DAE0C69DB89CC3A4FEDB97536 00000000100c5500     guideXOS.obj
 0005:0001f548       __Str_Processes            00000000100c5548     guideXOS.obj
 0005:0001f570       __Str_Processes__3F50B82D6B42E127C0D2DE5D184F533C045BCE149D4726465BC1356DB205EC35 00000000100c5570     guideXOS.obj
 0005:0001f5a0       __Str_Processing_accelerators_74B60FC4FD0F94701A0A213F310212D0B30D4625F7F2265AE2D81102608D1DB5 00000000100c55a0     guideXOS.obj
 0005:0001f5e8       __Str_Processor            00000000100c55e8     guideXOS.obj
 0005:0001f610       __Str_Procomp_Informatics_Ltd_0896422A76CE7808FA48D5969AC13910C677F7140451BEAEC95534CFA2EA203A 00000000100c5610     guideXOS.obj
 0005:0001f658       __Str_Programs_hello_gxm_4603ABD3C528269C73B391B884318ABC85926E98ECA363837DCC3AFC2CDEC08E 00000000100c5658     guideXOS.obj
 0005:0001f698       __Str_Programs_minimal_gxm_30FDFF27E9AF61217939490BC3D0F10B03B6C9E0AD406515E4772E2B5C3D343A 00000000100c5698     guideXOS.obj
 0005:0001f6d8       __Str_Prolific_Technology_Inc_3F16A5C513019E9504BE979010352C26C931ABCBE074290A5AD32A8A3EDC36CD 00000000100c56d8     guideXOS.obj
 0005:0001f720       __Str_Prolink_Microsystems_Corp_22C861F4E85DA3BEBC1B64EEF3D94E156887BC3DA7479022B3DA108DE42135B7 00000000100c5720     guideXOS.obj
 0005:0001f768       __Str_Promax_Systems_Inc_83E9BFFC14D591130298DE27AE2021A71593F82C8A38A71B1C9B04A3F5E87013 00000000100c5768     guideXOS.obj
 0005:0001f7a8       __Str_Promise_Technology_3F1440AABD793E967249F3FFDE671CE0554D28131ECF86A2D5B40BD8307D8F18 00000000100c57a8     guideXOS.obj
 0005:0001f7e8       __Str_Prophet_Systems_Inc_7099497A51A71FB42EF59A8C5A32B269BF81D28F0A01FEFCB068AAC6C927BC28 00000000100c57e8     guideXOS.obj
 0005:0001f828       __Str_Prosys_TEC_Inc_ADA75385ECDAF4A4C7BA42BF00B8DD3B9C89F27C9E379EE230C4845DFE5F4F18 00000000100c5828     guideXOS.obj
 0005:0001f860       __Str_Protac_International_Corp_D04BFB3A7DA2D0635F8065CD2776CF22195A8C144D9A8E07A23E90A46774F765 00000000100c5860     guideXOS.obj
 0005:0001f8a8       __Str_Proteon_Inc_8E755B752DAD9311527A63AD28594105C932E83BE456893BF6640B9B3223BE13 00000000100c58a8     guideXOS.obj
 0005:0001f8d8       __Str_Provideo_Multimedia_Co_Ltd_653627DD020D4097CF40D3593854D245AE8DD9E61F7C63FFBCF0C47D2A3CC1FC 00000000100c58d8     guideXOS.obj
 0005:0001f928       __Str_Proxim_Inc_1EB95DCB425CA0900D5E77B11B0024010F3624001E5BEF8BA527AE8733B71E39 00000000100c5928     guideXOS.obj
 0005:0001f958       __Str_Psion_Dacom_PLC_B293DB36D6EF878467305CB16D8EE5F2F25A5674FCA3F70EB5446102594E7718 00000000100c5958     guideXOS.obj
 0005:0001f990       __Str_Pure_Data_FC55F022D0C6D961F62C19B5ABF30B7DC9F54EAB7576FA5011E1DF739BF59274 00000000100c5990     guideXOS.obj
 0005:0001f9b8       __Str_Purup_Eskofot_A_S_C277555CBD6FB38C7A90B7E427C4C4A9D09D1B16C12B8EA72DE87906C4589B09 00000000100c59b8     guideXOS.obj
 0005:0001f9f0       __Str_Pyramid_Technology_508253E747B4DAF3567F483609E845CA497F7B55732C6B74930EEDBC0143128C 00000000100c59f0     guideXOS.obj
 0005:0001fa30       __Str_QLogic_Corporation_A321B8A0905C9EE11012F969CF970EEF155480FAF1EC02FD47FE79873A71EB0E 00000000100c5a30     guideXOS.obj
 0005:0001fa70       __Str_QUIT___B7FE3DB639277082FF945E71A37D21861E67D7368B254D9B3F05A286ABAD2EC9 00000000100c5a70     guideXOS.obj
 0005:0001fa98       __Str_QWERTYUIOP____3C4DCE0B4D151B9E8D6DC85681FECF3D94626EE65B65C0ABA11681B5CF36BA0B 00000000100c5a98     guideXOS.obj
 0005:0001fac8       __Str_Quadrics_Ltd_36A1475B84F2996606923F5E8D5F0EAFED2541A110BF084FE0E45F6E7042F950 00000000100c5ac8     guideXOS.obj
 0005:0001faf8       __Str_Qualcomm_Inc_USA_DCDA21B92C4AA93DD1587A7007C356C7E44EAA85BCCFB2F274C85872B67C1897 00000000100c5af8     guideXOS.obj
 0005:0001fb30       __Str_Quanta_Computer_Inc_82DB575EA48152BC268B9800A1003DE855152154E82F6D9EDEA799F10F7D8486 00000000100c5b30     guideXOS.obj
 0005:0001fb70       __Str_Quantel              00000000100c5b70     guideXOS.obj
 0005:0001fb98       __Str_Quantum_Corporation_8CCEC303A50A902E850B753579984804569030ED7D9072CC037C8D3065839A10 00000000100c5b98     guideXOS.obj
 0005:0001fbd8       __Str_Quantum_Data_Corp_49EC29320DBC8A6F1230B811B80155C57ED127DA149415E950817E563F919939 00000000100c5bd8     guideXOS.obj
 0005:0001fc10       __Str_Quantum_Designs__HK__Inc_0C8EACB5F74182B21B3BAEB2D2373B7E69DBE9471069C0CCA77B3232F7C8A28B 00000000100c5c10     guideXOS.obj
 0005:0001fc58       __Str_Quantum_Designs_Ltd_B67667E3FF081269504A253B7A80CAF20566B2595D20AA0131538E60A60E2211 00000000100c5c58     guideXOS.obj
 0005:0001fc98       __Str_Quatech_Inc_394B453E9F2CC698763E89AC989B4269191FE9792F2958C5FA445581D31AD5B0 00000000100c5c98     guideXOS.obj
 0005:0001fcc8       __Str_Questra_Corp_782352F56AE377A5B5674BB53B243A670EA9B3F89852B1548C33BC83451F7634 00000000100c5cc8     guideXOS.obj
 0005:0001fcf8       __Str_Quick_Test_Window_F946A03C99747ACD671368086BE49BA7623143500599BDA35D3D1073445E70E4 00000000100c5cf8     guideXOS.obj
 0005:0001fd30       __Str_Quick_Serv_Computer_Co_Ltd_02C16A493DAE440844D2F90FA21E40D958477CB5EAFE6CB5006DD35230E8C666 00000000100c5d30     guideXOS.obj
 0005:0001fd80       __Str_Quicklogic_Corp_3CC9BCF3F30FFB32C69888BD1A61D850B6AB738E2C3754EA394B8096C98F01C8 00000000100c5d80     guideXOS.obj
 0005:0001fdb8       __Str_Quicknet_Technologies_Inc_72C0713A19084B53990C39E675FA5D0D68064FCFC0E98D26A8EA2EBD62C906D4 00000000100c5db8     guideXOS.obj
 0005:0001fe00       __Str_Quickturn_Design_Systems_66EB5CD568E3882D0EDB205109E4B237B2504EAEDE72B3CDE980B655F756EC5F 00000000100c5e00     guideXOS.obj
 0005:0001fe48       __Str_R10                  00000000100c5e48     guideXOS.obj
 0005:0001fe68       __Str_R11                  00000000100c5e68     guideXOS.obj
 0005:0001fe88       __Str_R12                  00000000100c5e88     guideXOS.obj
 0005:0001fea8       __Str_R13                  00000000100c5ea8     guideXOS.obj
 0005:0001fec8       __Str_R14                  00000000100c5ec8     guideXOS.obj
 0005:0001fee8       __Str_R15                  00000000100c5ee8     guideXOS.obj
 0005:0001ff08       __Str_R8__D9B80F8C929D42ABD4CEEBC24A92C564D9157A6E5A879B022C4D3CA15DB8B912 00000000100c5f08     guideXOS.obj
 0005:0001ff28       __Str_R9__755BE040639CC4152C6B0569B4C1A3CB8CF8D7698F9B9D1A15314ECF7E891C3E 00000000100c5f28     guideXOS.obj
 0005:0001ff48       __Str_RAM                  00000000100c5f48     guideXOS.obj
 0005:0001ff68       __Str_RAX                  00000000100c5f68     guideXOS.obj
 0005:0001ff88       __Str_RBP___not_saved__A55E84F37B5F6C851276685F21335A93EC3AFA4E422E76FBA45EC079576F2869 00000000100c5f88     guideXOS.obj
 0005:0001ffc0       __Str_RBX                  00000000100c5fc0     guideXOS.obj
 0005:0001ffe0       __Str_RCX                  00000000100c5fe0     guideXOS.obj
 0005:00020000       __Str_RDC_Semiconductor_Co__Ltd_137649B488236DE7DE094345808183FCEE2A964C7FC1BAA7349AAF0F57CAD4C9 00000000100c6000     guideXOS.obj
 0005:00020048       __Str_RDI                  00000000100c6048     guideXOS.obj
 0005:00020068       __Str_RDX                  00000000100c6068     guideXOS.obj
 0005:00020088       __Str_READ                 00000000100c6088     guideXOS.obj
 0005:000200a8       __Str_REGISTER_DUMP_AF5C65A260869A03427980D6CA747BBC7E39BEB166239A51A61F2237CC7A979E 00000000100c60a8     guideXOS.obj
 0005:000200d8       __Str_RESIZABLE            00000000100c60d8     guideXOS.obj
 0005:00020100       __Str_RFLAGS__0x_F9155229683DD5CBDE1B5870F4B6B31F5CA93C1E7AFAF39BB0F643A8C0ED80EA 00000000100c6100     guideXOS.obj
 0005:00020130       __Str_RSI                  00000000100c6130     guideXOS.obj
 0005:00020150       __Str_RSP                  00000000100c6150     guideXOS.obj
 0005:00020170       __Str_RTD_Embedded_Technologies__Inc_70C054791DC286B33B520348C4C9FD389BCD0209BFB941169D992EE1152F1ADA 00000000100c6170     guideXOS.obj
 0005:000201c8       __Str_Racal_Interlan_5419DBF4EE116BCE3FD80471F2685ADD6C30B558F0E5C73B2258C1D631DF1598 00000000100c61c8     guideXOS.obj
 0005:00020200       __Str_Racore_Computer_Products_00009C3CEEB7D4FD987784C412D9DEBBF6A4BC50A9BD2835A3BF07729EED443D 00000000100c6200     guideXOS.obj
 0005:00020248       __Str_RadiSys_Corporation_9C1BF19FC7F6F9D114085838D6DECDC3F4E8306B8C7F8C075D7961C315552EB0 00000000100c6248     guideXOS.obj
 0005:00020288       __Str_Radiolan             00000000100c6288     guideXOS.obj
 0005:000202b0       __Str_Radius_Inc_7C2C1DA07C812DB51A5600AC157D81BBC20EF7CBCC3E452CBBBA17CA49A78B61 00000000100c62b0     guideXOS.obj
 0005:000202e0       __Str_Radstone_Technology_Ltd_3AF9AC93EACF37C85A525C55E833AD98CA824AF8FEBC8F15DE8DBFB638ACE9F6 00000000100c62e0     guideXOS.obj
 0005:00020328       __Str_Rainbow_Technologies_4699DF18D0DA12A65E3678AEA83362643ED47AD56D6077B2BCA3EEE3E5F0B860 00000000100c6328     guideXOS.obj
 0005:00020368       __Str_Ralink_Technology__Corp_3EA16B416D833CE72ABECF76639181C7ADA852F061549A131AB08B0947801A8B 00000000100c6368     guideXOS.obj
 0005:000203b0       __Str_Rambus_Inc_25369DF47B6BBB520CB2F4DD5E721EC3CEF808B606093E25066657F342305575 00000000100c63b0     guideXOS.obj
 0005:000203e0       __Str_Ramix_Inc_BA642C616129EB44313BCD99F866EED7056E2A62FE591EC745D20792C007AE94 00000000100c63e0     guideXOS.obj
 0005:00020408       __Str_Random               00000000100c6408     guideXOS.obj
 0005:00020430       __Str_Random_Background_on_Startup___BAA9E7BB244936D3DB363D3F4BBFB1AE2B45397AB0DE2673952F4363DB77E8C7 00000000100c6430     guideXOS.obj
 0005:000204b8       __Str_Rapidstream_Inc_17E4D53871CC8C10CF4FA21AF2472F66970F558D9CE6DAE0A6E86E9594307CBD 00000000100c64b8     guideXOS.obj
 0005:000204f0       __Str_Rascom_Inc_99767D91772670BDE536365087FB01F3A0181C042CF136C49255159AAB196CAE 00000000100c64f0     guideXOS.obj
 0005:00020520       __Str_Rasterops            00000000100c6520     guideXOS.obj
 0005:00020548       __Str_Ratoc_System_Inc_5AF3085FA47E2259D8DACE796013EAF696DF881F550F220614A90B7247C46CBF 00000000100c6548     guideXOS.obj
 0005:00020580       __Str_Ravicad              00000000100c6580     guideXOS.obj
 0005:000205a8       __Str_Raychem              00000000100c65a8     guideXOS.obj
 0005:000205d0       __Str_Raytheon_Company_DB6506319722137F24F084F393D2B8996F4344E22AD8E334A25F1664AE710F18 00000000100c65d0     guideXOS.obj
 0005:00020608       __Str_ReFLEX_CES_0EABE9623AB376422448E7DD932D11D43FA0E5D8353A9CEA6D456019B01FA398 00000000100c6608     guideXOS.obj
 0005:00020638       __Str_Read_speed__F1997AC18A824ACBB50C65B6F426AA35CAC09CD005912FB1F6A6B7AF42BA2374 00000000100c6638     guideXOS.obj
 0005:00020668       __Str_ReadAllBytes         00000000100c6668     guideXOS.obj
 0005:00020698       __Str_Real                 00000000100c6698     guideXOS.obj
 0005:000206b8       __Str_Real_Name_FD982EE9E911D0BB8E3325A5E342F7D498023FB724106DFE00E49307C3B74AA0 00000000100c66b8     guideXOS.obj
 0005:000206e0       __Str_Real_Time_Digital_Inc_B2CD6FFEA1861F6AC849195DFE97B4A24F4163CF298FE8AF23BBB64C918B8010 00000000100c66e0     guideXOS.obj
 0005:00020720       __Str_Reallocate           00000000100c6720     guideXOS.obj
 0005:00020750       __Str_Realtek_Semiconductor_Corp_63D8791F4A4FC24AB9E1BDFA70E63FF2BB752E9B30D47D575346DFF17A88FCA2 00000000100c6750     guideXOS.obj
 0005:000207a0       __Str_Rearden_Steel_BFF5AEBB3E87FB8A59D3C1EB1D6AF1E828843E2F7F90206ABD281C3763ECC6FB 00000000100c67a0     guideXOS.obj
 0005:000207d0       __Str_Reason__Instruction_fetch_from_DF243A31D8FBC5433B6A41AA35CF376E0091AFB32BF7A567D22EA7074FC8F4FE 00000000100c67d0     guideXOS.obj
 0005:00020850       __Str_Reason__Reserved_bit_violation_5D0BB635CE1CD36C9E0EF42E677F135E94E38350BA558CBB7E4C790FA446BD65 00000000100c6850     guideXOS.obj
 0005:000208a8       __Str_Reboot               00000000100c68a8     guideXOS.obj
 0005:000208d0       __Str_Receive__2F79C72FB02734D9407EFDD898B6C396B8E16099AEDC3F4A2D4C0B1A8C548F0E 00000000100c68d0     guideXOS.obj
 0005:000208f8       __Str_Received_bytes__6D4147DF05EB13A06021DEBE236E7E54F68087B5612C604D2AD4AE054196EB89 00000000100c68f8     guideXOS.obj
 0005:00020930       __Str_Recent_Documents_252F310649EFFC8D6820E293C0CCE9CE0E4F325A04BF8F2A6808A5B7C1D2DC94 00000000100c6930     guideXOS.obj
 0005:00020968       __Str_Rect                 00000000100c6968     guideXOS.obj
 0005:00020988       __Str_Refresh              00000000100c6988     guideXOS.obj
 0005:000209b0       __Str_Register_OK__Now_run_authlogin_FCC76EE2546706AFDCA5D5170F0FA94C187E78C4B8A6E4C6493B0159F10F1E59 00000000100c69b0     guideXOS.obj
 0005:00020a08       __Str_Register_data_unavailable__inv_2DE14CEB352FB0D312CB48BCB02BEDF3085BD548B63CEDEEC81DE7E65C99CB7D 00000000100c6a08     guideXOS.obj
 0005:00020a78       __Str_Register_failed___533C7CBEA5B5C1E583DEE05B00BD2655FA84CC42881041588AFE6D754C90B210 00000000100c6a78     guideXOS.obj
 0005:00020ab0       __Str_Registration_failed_B4692F972AD2E1767C355F99AF79FC0A52D0C9E0E3FAAC4AF5510AE1877512FD 00000000100c6ab0     guideXOS.obj
 0005:00020af0       __Str_Releasing_IP_configuration____14B33226A7C880CEE496477D47164B008B91AE41577AD1DF84E69BD0E06DC8B2 00000000100c6af0     guideXOS.obj
 0005:00020b40       __Str_Reload_All_Demos_555D385D384C387E2F47EBE1533112D6113AB3E0115E4ED03AC2A9E048F643B1 00000000100c6b40     guideXOS.obj
 0005:00020b78       __Str_Remove               00000000100c6b78     guideXOS.obj
 0005:00020ba0       __Str_Rendering            00000000100c6ba0     guideXOS.obj
 0005:00020bc8       __Str_Rendering_error_occurred_431E82D5FDD6F1CB5B79A70B78240B6795B341C5D15882CB375864E35A844A1D 00000000100c6bc8     guideXOS.obj
 0005:00020c10       __Str_Rendering____88E63B709A61F844E6E30A8BF66EA8C33F58FB8CC7887AAC962B95A13DD9A294 00000000100c6c10     guideXOS.obj
 0005:00020c40       __Str_Renesas_Electronics_44056ECCAACF3FA426B591EAC77EAA167A535B19001959BD00F33DCED2677277 00000000100c6c40     guideXOS.obj
 0005:00020c80       __Str_Renishaw_PLC_6207C28E752A9C08F47B896E1BF032F688FA0A8C110CA778E16D2A180FEC794F 00000000100c6c80     guideXOS.obj
 0005:00020cb0       __Str_Reply_Group_FD03D73B181CDFEE6E01356ED9C3957D00747A955011607E29805AD37D0C2F37 00000000100c6cb0     guideXOS.obj
 0005:00020ce0       __Str_Reply_from__0___1___2___3___by_168ED48C3EC73B8C9D96D7697734934059E1635270C1E1269F9C2CFA9578C99F 00000000100c6ce0     guideXOS.obj
 0005:00020d68       __Str_Reprosoft_Co_Ltd_492609842539EF36F1B592E38D7F6EA4007CC7234B293469F2D2446EDB55F600 00000000100c6d68     guideXOS.obj
 0005:00020da0       __Str_Request_timed_out__8BC5600A5457DC813E99ABC78D0ACEB1A438439D7480D1E7671748D961F3B485 00000000100c6da0     guideXOS.obj
 0005:00020de0       __Str_Requesting____AE1A744F33EC25276064B8A8FB040209BB026E359AF5B74E3FF1776F976129F2 00000000100c6de0     guideXOS.obj
 0005:00020e10       __Str_Reset                00000000100c6e10     guideXOS.obj
 0005:00020e30       __Str_Resilience_Corporation_37D156EFCEBBC0837454690AF6A431029E0179628CCB5290C8D69F48BCA54E4B 00000000100c6e30     guideXOS.obj
 0005:00020e78       __Str_Resolution           00000000100c6e78     guideXOS.obj
 0005:00020ea8       __Str_Resolved___0___1___2___3__CCAE72FA426B57E9A2C232F2BF8A4F22FF09797CBE7F07FABCC9F8EFBB39BF00 00000000100c6ea8     guideXOS.obj
 0005:00020ef0       __Str_Resolving_irc_libera_chat_DDB3806FD863AB896462B615EA8401404253F40CA5B902450915905F79F4F7DD 00000000100c6ef0     guideXOS.obj
 0005:00020f38       __Str_Resolving_irc_oftc_net_1CAE7F98C8829C32452D7BEF46FD1E3E4E1359AD8849AEBC102680B5740A18ED 00000000100c6f38     guideXOS.obj
 0005:00020f80       __Str_Restore              00000000100c6f80     guideXOS.obj
 0005:00020fa8       __Str_Retix_Corp_0929877960EDD1A3D5FE42E57EF63EE2439DB08C5F33A3C3E0F68E8AF1A2C705 00000000100c6fa8     guideXOS.obj
 0005:00020fd8       __Str_Revert               00000000100c6fd8     guideXOS.obj
 0005:00021000       __Str_Rhetorex_Inc_9275CAC06725F4DF272B8F12AFD0E4094ABAC95851CB16F36C517839D9CDFDE3 00000000100c7000     guideXOS.obj
 0005:00021030       __Str_RicohCompany_Ltd_34F55C245517F2BDAE9BAF376697ED32AEAAD0FD1217F94602EF0CBFD1A79843 00000000100c7030     guideXOS.obj
 0005:00021068       __Str_Ripple               00000000100c7068     guideXOS.obj
 0005:00021090       __Str_Ripple_Waves__FDA1BCD41419C59E6EC3568F47C2B0563D50588BCE758FA68308B4E0A776D19E 00000000100c7090     guideXOS.obj
 0005:000210c0       __Str_Ritmo                00000000100c70c0     guideXOS.obj
 0005:000210e0       __Str_Road_Corporation_E8492351F4E5143CE76868F40190FD1BBB7FFD5C7A35C67F53634B5D9698DCB8 00000000100c70e0     guideXOS.obj
 0005:00021118       __Str_Rockwell_Collins_Inc_9C32F98670333935B2CF94BABE297CC1D0E9B6D73BF8548FC055B74394BEAB47 00000000100c7118     guideXOS.obj
 0005:00021158       __Str_Rohde___Schwarz_GMBH___Co_KG_90EAC25431852C6BD75A270901C05A618BFF680AD7891C1EDA5935F66E4ABB89 00000000100c7158     guideXOS.obj
 0005:000211a8       __Str_Rohm_Research_87121A6CC0500147B1B84BCBB0D357162BCB9DE5FAE9BD59D6B6AC57F61AB39C 00000000100c71a8     guideXOS.obj
 0005:000211d8       __Str_Root                 00000000100c71d8     guideXOS.obj
 0005:000211f8       __Str_Ross_Technology_9C1170CFA85B416C132553237BC107604F86C0900296682D112DC2F77A300356 00000000100c71f8     guideXOS.obj
 0005:00021230       __Str_Rosun_Technologies_Inc_F4793EC378996471DAFF9B8BF0AD283C48F04FEF8257163A929EBEFC54B2AA15 00000000100c7230     guideXOS.obj
 0005:00021278       __Str_Ruby_Tech_Corp_E06C59D80CCF7793C24AF8E84F7A01CBC33D38FEC1F7AD66A9F689D57202E99E 00000000100c7278     guideXOS.obj
 0005:000212b0       __Str_S_S_Technologies_FAC418914136EE8225BD1720A07B4E115704C457FD920AFE59B9B61C8569FEB4 00000000100c72b0     guideXOS.obj
 0005:000212e8       __Str_S_Mos_Systems_95BFCC2307F939968A39D148C1EC514361A547E3E0B3B4E78E8CFB7CDC915887 00000000100c72e8     guideXOS.obj
 0005:00021318       __Str_S2io_Inc_AA7A4DEF5C8FC3D600C62E523383F6F6C4629905CE0B3CF512C1C3D50A5FAB88 00000000100c7318     guideXOS.obj
 0005:00021340       __Str_S3_Graphics_Co__Ltd_245CC2C29FFC4A550B680CC324A36845F7ED3B2E5B033C53B78E0E6464BDA264 00000000100c7340     guideXOS.obj
 0005:00021380       __Str_SA_Telecommunications_30FB01D60DDD33D0C73C89156274AF72D40FFFED1D64082600ECF5362278649E 00000000100c7380     guideXOS.obj
 0005:000213c0       __Str_SAVEDIALOG           00000000100c73c0     guideXOS.obj
 0005:000213f0       __Str_SAVEFILE             00000000100c73f0     guideXOS.obj
 0005:00021418       __Str_SAVETEXT             00000000100c7418     guideXOS.obj
 0005:00021440       __Str_SBE                  00000000100c7440     guideXOS.obj
 0005:00021460       __Str_SBS_Operations_BE839A29576EC6DBADE9619507F84D993505F2D61253D26A0831ECAF4702DD55 00000000100c7460     guideXOS.obj
 0005:00021498       __Str_SBS_Technologies_Inc_7E1D5DB19CB76EA7D960BFDBB4343E30E7F128E5045D10EC91E3E0F52C06A6B8 00000000100c7498     guideXOS.obj
 0005:000214d8       __Str_SBS_OR_Industrial_Computers_10949DD6C37C3383424143C11103F008F76F46F2B70DD95171FF28BD27268DA1 00000000100c74d8     guideXOS.obj
 0005:00021528       __Str_SCM_Microsystems_F58B7AAC39885F6DFFCF77B581CF4DE40AD8FF2CAA1ADABD95C7CDD61ADA53A0 00000000100c7528     guideXOS.obj
 0005:00021560       __Str_SDL_Communications_Inc_AD9C55F8437105E606BAB38501DBE4197B97C93CC44E218131543FF17FEE969D 00000000100c7560     guideXOS.obj
 0005:000215a8       __Str_SEGMENT_NOT_PRESENT_DC73157D4C4415584B819DA8391D37A2B71B9B90D096521087B88B00FD56C722 00000000100c75a8     guideXOS.obj
 0005:000215e8       __Str_SEH_Computertechnik_GMBH_262C91228AFFBE20BCF9C90CF147CB520ED19F6AAA661B3D7400C7127C34757D 00000000100c75e8     guideXOS.obj
 0005:00021630       __Str_SF__0__TF__1__IF__2__DF__3__DA58C017DA437080917BCD53D49BDCB6FA12FCC55083E9D5EE4B03131FA5E3BE 00000000100c7630     guideXOS.obj
 0005:00021680       __Str_SHIFT                00000000100c7680     guideXOS.obj
 0005:000216a0       __Str_SI_Logic_Ltd_2829E60599E8E9988A390B51B28AF3A0C4C893C45CD3AE18D51EB80C3C058E1D 00000000100c76a0     guideXOS.obj
 0005:000216d0       __Str_SIIG                 00000000100c76d0     guideXOS.obj
 0005:000216f0       __Str_SIIG__Inc_F5B35629FC6124339C6E27CF8D49D1CDC4093084445A7A0FC8872DB2C8F86909 00000000100c76f0     guideXOS.obj
 0005:00021718       __Str_SIMD_FLOATING_POINT_EXCEPTION_B7220E8F1DD071A92377FE1A1F2379594E2A36964E1B73094DD457F696F8BFBA 00000000100c7718     guideXOS.obj
 0005:00021768       __Str_SK___Electronics_Co__Ltd_39D5D27C2F02DEBE29888983C01EC34E583E19B9A67CF0770F06A5F4BFD601C6 00000000100c7768     guideXOS.obj
 0005:000217b0       __Str_SMA_Technologie_AG_3724E7275B768F7431BA076825D3FE447AE882FB9A2D49BA8CB192181DB6E415 00000000100c77b0     guideXOS.obj
 0005:000217f0       __Str_SMBIOS_not_found__6DDA1F79F54C38C116C63A93DDECD475F598BCDB2E61A26AE933C7E4C1B960BA 00000000100c77f0     guideXOS.obj
 0005:00021828       __Str_SP3D_Chip_Design_GMBH_76E7CB5186BE284FBBCD6436E033993AF3CE07B715CA46984EAFE4AE5CE2C391 00000000100c7828     guideXOS.obj
 0005:00021868       __Str_SPOT_Imaging_Solutions_a_divis_95791CB2CF574E5AB381955EADBA0836242D8BDB4FFA2C6E257CED04337F83CA 00000000100c7868     guideXOS.obj
 0005:00021900       __Str_SSE_Telecom_Inc_9AC5BFE88E8AE2B037D1A1D144C2769432EFE952687E149BFB98C71D47753B75 00000000100c7900     guideXOS.obj
 0005:00021938       __Str_STACK_SEGMENT_FAULT_EE1BDD18FC0EB8200996B084F934E89B0BF179E5DB5749B201BFBF7CE84ACA63 00000000100c7938     guideXOS.obj
 0005:00021978       __Str_STACK_TRACE__Last_16_values__B931F31B3659E1176026395461B983B343BD150F840C29D7DC66566AC6692214 00000000100c7978     guideXOS.obj
 0005:000219c8       __Str_STARTMENU            00000000100c79c8     guideXOS.obj
 0005:000219f0       __Str_STB_Systems_4E69250CDF3ECD1B44AAC3821D1C3BECD9BE574EC141992B4063AB339ED941FE 00000000100c79f0     guideXOS.obj
 0005:00021a20       __Str_STMicroelectronics   00000000100c7a20     guideXOS.obj
 0005:00021a60       __Str_SUNIX_Co__Ltd_6143AECAED9727BDC85572E52DB67C9AB390495ABE53637D4CC520B8B1F5ACEE 00000000100c7a60     guideXOS.obj
 0005:00021a90       __Str_SUYIN_Corporation_578EF6020B5E83D8465EC91A9AC78815CF71E8979E4780463B73EB7434C0D45D 00000000100c7a90     guideXOS.obj
 0005:00021ac8       __Str_SYSTEM_INFORMATION_BADC1A07F93883B1366CCFD619A85727365407040E64184A44B6AE4CB72C39F7 00000000100c7ac8     guideXOS.obj
 0005:00021b08       __Str_SafeNet_Inc_6E37493DA6AE8589759A58936E6A4972B54642EE0AF64CAF981375B3CD8A832A 00000000100c7b08     guideXOS.obj
 0005:00021b38       __Str_Salient_Systems_Corp_CE2BA942B5B0248687FD050A06C815FF9A9BD7377CF602149702669D0D800844 00000000100c7b38     guideXOS.obj
 0005:00021b78       __Str_Samsung_Electronics_Co_Ltd_4D81BD5C2DED21537D38122C0EB0BEDB766B5F7B674C1DC518962ECF401B4844 00000000100c7b78     guideXOS.obj
 0005:00021bc8       __Str_Samsung_Information_Systems_Am_226CE0D52D0A55D8EE903B889DD9B5FEABC331E322720CD03FB859EA1A0E8191 00000000100c7bc8     guideXOS.obj
 0005:00021c28       __Str_Samsung_Semiconductors_9DBB0413408822E65362B464F2F08CEDBBF49398A309D7403CD64D97538CDA6C 00000000100c7c28     guideXOS.obj
 0005:00021c70       __Str_Samsung_T10_MP3_Player_CCDA021F72B5054E1C109DED0D35644BF6962FC8993EB0A5FE485FB0B2598F58 00000000100c7c70     guideXOS.obj
 0005:00021cb8       __Str_Samsung_Windows_Portable_Devic_5F46D343B9E0B4909BF7CC2AEE15735A910B6D549B3BF908A179D339CB811DFF 00000000100c7cb8     guideXOS.obj
 0005:00021d10       __Str_San_Valley_Systems__Inc_1A093E5737F7F12547310EB7B173AA1C50C0C3596EE4960DADE5FC5E9AAD2177 00000000100c7d10     guideXOS.obj
 0005:00021d58       __Str_Sand_Microelectronics_A826023E328AE1BDE884251759346BA35AD9D42F0DC01F7237E27C453F84427F 00000000100c7d58     guideXOS.obj
 0005:00021d98       __Str_Sandisk_Corp_88F51FBD95424508E8A27B2291739BC3042A1E4E40CE9DCB44B946319C6928B3 00000000100c7d98     guideXOS.obj
 0005:00021dc8       __Str_Sanritz_Automation_Co_LTC_9B7B8F61DA1888A2FB8E9078519D8D243212AE0D43A001B8787F25A4C56A8E55 00000000100c7dc8     guideXOS.obj
 0005:00021e10       __Str_Sanyo_Electric_Co_865858075437C51D016C77EC1E7DEBBF50189B90F176A2B4A6A76F88C24280A7 00000000100c7e10     guideXOS.obj
 0005:00021e48       __Str_Satellite_communications_contr_757E2F6258689FC7535152DF4EA75F2B382EF0B89E036CE46BD44555E90EE02F 00000000100c7e48     guideXOS.obj
 0005:00021ea8       __Str_Save                 00000000100c7ea8     guideXOS.obj
 0005:00021ec8       __Str_Save_As_48014F6E7B3916E033452FA05B5807B9E2F77B97E958E00297D2988A8F7FFC04 00000000100c7ec8     guideXOS.obj
 0005:00021ef0       __Str_Save_Settings_2D375F580104FCCEFD2BF362D9FE4E8B292D77C03CFD46984F0393FE39D1E44C 00000000100c7ef0     guideXOS.obj
 0005:00021f20       __Str_Saved___8F0D2E95A1707B87CC3D438F0CB61DDFD3D242BFAAF5670A95C016A8DA999BB9 00000000100c7f20     guideXOS.obj
 0005:00021f48       __Str_SayHello             00000000100c7f48     guideXOS.obj
 0005:00021f70       __Str_Scalable_Networks_Inc_B3FEF6C123047957FC491011A76A8FACFADD9F4AACDBAC0F750A6ED10AAD5A3D 00000000100c7f70     guideXOS.obj
 0005:00021fb0       __Str_Schneider_Automation_Inc_84086D42FE9168A1881A119DB5FD42E7A68A9FB8733F4027EA90B229618838FF 00000000100c7fb0     guideXOS.obj
 0005:00021ff8       __Str_Sci_Systems_Inc_8573295977F18DD2019BFD165975A406EF7750974EFAD0F40CCD0DD57157D7A4 00000000100c7ff8     guideXOS.obj
 0005:00022030       __Str_Sciemetric_Instruments_Inc_B425FBD35D71CB8778FB9A4D152555716891D8F053EF2E6C659A73C3AF25F428 00000000100c8030     guideXOS.obj
 0005:00022080       __Str_Scientific_Atlanta_AA37CDF1CA39B794DFCC0A2E164EBF8C547FCE74EB8E839F75BC052A6B1ED2E1 00000000100c8080     guideXOS.obj
 0005:000220c0       __Str_Scion_Corp_373B22D7EC22E6F64804A36B6A4FE4E77A5EA173DF26BF2D2B0CC4C426148994 00000000100c80c0     guideXOS.obj
 0005:000220f0       __Str_Scitex_Corporation_Ltd_D67B609B9F8FA238FD6D0CEDB2BD55B499AC981FC0D4140D333EE1E0037FC075 00000000100c80f0     guideXOS.obj
 0005:00022138       __Str_Script               00000000100c8138     guideXOS.obj
 0005:00022160       __Str_Script_loaded___3560E15A6A3BB372CA3A862453D522872333FF574DA712A79C1F59728113F6F2 00000000100c8160     guideXOS.obj
 0005:00022198       __Str_Seachange_International_707A7532BD721D3EFBA0266E9CE2EE29DEA95C0C40492BCE2C5C5276AE9B8CFB 00000000100c8198     guideXOS.obj
 0005:000221e0       __Str_Sealevel_Systems_Inc_46BC15FC4FEE064DC27C4CA15D99D4684FA2C15751B7FFFBB251DC463C3927F1 00000000100c81e0     guideXOS.obj
 0005:00022220       __Str_Seanix_Technology_Inc_C4A9311F1E9F012A00ABEF95C9D57230190EEC66D21D083E49E3F7180B4E4C15 00000000100c8220     guideXOS.obj
 0005:00022260       __Str_Search               00000000100c8260     guideXOS.obj
 0005:00022288       __Str_Seaway_Networks_DCC0D25F816F9A2C8D4F8AFBDA0774322B73B981DF9ECE57A08761A9506FDBF2 00000000100c8288     guideXOS.obj
 0005:000222c0       __Str_Sebring_Systems_Inc_9AF4163CFC3CF7A2F6B7A0CD9B29C40F3D9877EDBC94F8F881A475BED2C62662 00000000100c82c0     guideXOS.obj
 0005:00022300       __Str_Second_Wave_Inc_053FB626A879F9ADD73840296E26E3AE7DE6520719B7A84A3C53734D54554365 00000000100c8300     guideXOS.obj
 0005:00022338       __Str_Seeq_Technology_Inc_49D1E41972ECFF24C8544E24998A7941CF72FD6CA9C82B20569E8A3BBB6FCDD6 00000000100c8338     guideXOS.obj
 0005:00022378       __Str_Sega_Enterprises_Ltd_265940E4531F840F19D1E863A35AB3F194127BA333CCCE58C91D61A3B18FC890 00000000100c8378     guideXOS.obj
 0005:000223b8       __Str_Segment___2E01CE05E56BF8A48003C15AA7BC6812FECCBC5D504270D2360BE6D155F3A21D 00000000100c83b8     guideXOS.obj
 0005:000223e0       __Str_Seiko_Epson_Corporation_A456B23C413FF67C7A92B52AF5908C5C9FDF5F4E7A62953F0903F664A4CD9CD0 00000000100c83e0     guideXOS.obj
 0005:00022428       __Str_Seiko_Instruments_Inc_51CA32795FF3794DB6947C33ADE4AA613B755F2088AA3D7AAF27E6C259277EE6 00000000100c8428     guideXOS.obj
 0005:00022468       __Str_Sejin_Computerland_Co_Ltd_C316B1E529DB363D04945EBFB8FC441E404CD76AEDC97BA28C89B1EC3B4098FD 00000000100c8468     guideXOS.obj
 0005:000224b0       __Str_Select_Background_69A2C51444DD9CC746283310F193366CD3B0A77D8FFA4146CB122C8E9886EF22 00000000100c84b0     guideXOS.obj
 0005:000224e8       __Str_Select_Installation_Disk_B12AD4A73472D2AC5DEB224E4F1FD1DDCBD913F9585B5124C8A59A819C645077 00000000100c84e8     guideXOS.obj
 0005:00022530       __Str_Select_a_background_from_the_g_35939C7A8982B2993A76A99663146F956B673AA5541C45CA80A2770BFC908407 00000000100c8530     guideXOS.obj
 0005:00022590       __Str_Select_a_font_and_size__3D30DEDE8D0D284B4567733695319EBFFAA2C54E609D9302E6E731BE019AD416 00000000100c8590     guideXOS.obj
 0005:000225d8       __Str_Select_a_gradient__8996186EC1FE32B8A54644ACD5A8F4B224B23D95ABE94CCA5DA849DA446E6549 00000000100c85d8     guideXOS.obj
 0005:00022618       __Str_Select_a_network_252E067A831E4B3B59D50A4393861880598D3240E3E886EE14AEC39FCB9A9A77 00000000100c8618     guideXOS.obj
 0005:00022650       __Str_Select_or_add_a_network_195F8050CE82CBE26F842DE1D2DDC6C02F265065D320BD559A7D7FE3CE2B8182 00000000100c8650     guideXOS.obj
 0005:00022698       __Str_Selected___VALUE_4D37C0C482E5283D8FF3CF9B5C79120C3CE9A31E467028991F0D1142FC3E25C1 00000000100c8698     guideXOS.obj
 0005:000226d0       __Str_Self_connect_not_supported_F8C3910FE851502D5980C704917FF65141B2DF35C415B44E4754C12EEE96C517 00000000100c86d0     guideXOS.obj
 0005:00022720       __Str_Semtech_Corporation_645E08D18BEA9EA2172780F72ABECB39E38CC7DCCD497AFFEE4FCE3571A84DF8 00000000100c8720     guideXOS.obj
 0005:00022760       __Str_Send__43B89C9C5987B866FE0C54C2D5053883405F99672C452A3A3B2B3E0CE0544D2B 00000000100c8760     guideXOS.obj
 0005:00022780       __Str_SensoMotoric_Instruments_GmbH_51F831222E1B68E1B203D30B8C919969F3AFF5AEB2E2DD86E7D59E1AF9FAB5ED 00000000100c8780     guideXOS.obj
 0005:000227d0       __Str_Sent_bytes__58A0E66CCA0331830A82C2AD4B5FBD69BA014E1F0C14D99ECFC4FF04CD378A2E 00000000100c87d0     guideXOS.obj
 0005:00022800       __Str_September            00000000100c8800     guideXOS.obj
 0005:00022828       __Str_Sequent_Computer_Systems_998857ABDE2CA6ADA9410E0807D6983CABCC045F17985E56E8C58A9AA141D8D2 00000000100c8828     guideXOS.obj
 0005:00022870       __Str_Serial_bus_controller_D61FB11409B1A2257FC0C849B041BFA7EF85E380CBEB226A05940211455886FF 00000000100c8870     guideXOS.obj
 0005:000228b0       __Str_Serome_Technology_Inc_E9F4424D16099D0785FC56F3C64038FD00C2B6722F661E5DB07A72DDDC066C87 00000000100c88b0     guideXOS.obj
 0005:000228f0       __Str_ServerEngines        00000000100c88f0     guideXOS.obj
 0005:00022920       __Str_ServiceBaseUrl_set_to___0D2D139A8AE4002D6953B26E3AF434DA252F89C1F10B229A15DA04ABE0930DD6 00000000100c8920     guideXOS.obj
 0005:00022968       __Str_Servotest_Ltd_401B97462FBC975FC9192C5C17B400564356A1F24276D72C69B5534D3397AB12 00000000100c8968     guideXOS.obj
 0005:00022998       __Str_Set_FS__Auto_86125D7D87EFBC0DA7338E7605531D816C7C9298E881EDFEEB183E55FEDF1CEC 00000000100c8998     guideXOS.obj
 0005:000229c8       __Str_Set_FS__EXT2_136F98E80368F00BC5004745281BB77B03398247D2E5C465B7DF64DC1B78BDB7 00000000100c89c8     guideXOS.obj
 0005:000229f8       __Str_Set_FS__FAT_702FA3116058D953D5A2327A3CD6394783CAA6C36302F1761E378F518C2DFA17 00000000100c89f8     guideXOS.obj
 0005:00022a28       __Str_Set_FS__TarFS_A563F6B17CC8FE1B4F9C16E91343A24724C62EFE1B8E01FEDC6FF4642C7BA154 00000000100c8a28     guideXOS.obj
 0005:00022a58       __Str_Settings_applied_successfully_48888D96D57ECFC8F0A997BBDDD857D6288B93F27B9304DD8DFE260EAD65991A 00000000100c8a58     guideXOS.obj
 0005:00022aa8       __Str_Settings_reset_to_defaults_09A2D82D6B8B96CC034B938F2BCDA22BA1DE4C434CC214951BE9749B5A19B5FC 00000000100c8aa8     guideXOS.obj
 0005:00022af8       __Str_Settings_saved_successfully__17F5744FB87CCA522EA0BE3F132DB7363D2C372854E3A616F8461CF8B636C9F9 00000000100c8af8     guideXOS.obj
 0005:00022b48       __Str_Shade_Ltd_2A4C11BCBD68AC12DF2E087F0E14E4B0AAF0E1B02DC78ADD60490CD9A476BF69 00000000100c8b48     guideXOS.obj
 0005:00022b70       __Str_Shanghai_Bell_Company_Limited_B5D7DBEF8B818964387C808E4D189E1F3239C2F6160B379925B33207C4247CE3 00000000100c8b70     guideXOS.obj
 0005:00022bc0       __Str_Shanghai_Communications_Techno_E1A1E39C3EAE000674C64C83A900F2A5C1CE96D9D758ED3E9A426BA6E24BC775 00000000100c8bc0     guideXOS.obj
 0005:00022c28       __Str_Sharewave_Inc_B9BD9FF0A87E8B3315DC4A6213CA055B3B2133C2395D8DC4713DD43267CB4F16 00000000100c8c28     guideXOS.obj
 0005:00022c58       __Str_Sharp_Corporation_AA0373E623970D2A68112D9873BDD36DFCD3B0531D100FBB8DF60F5C0B9149D0 00000000100c8c58     guideXOS.obj
 0005:00022c90       __Str_Shiba_Denshi_Systems_Inc_CC100DFF03A3D6B2F7C33F870E4591F898B68AC67D4723F8668B10CE41ABAAD6 00000000100c8c90     guideXOS.obj
 0005:00022cd8       __Str_Shift                00000000100c8cd8     guideXOS.obj
 0005:00022cf8       __Str_Shima_Seiki_Manufacturing_Ltd_9165569327B7FF2AA1C781C34415B9B1FC0911EDE64FEFFDB9A32C840F1D8032 00000000100c8cf8     guideXOS.obj
 0005:00022d48       __Str_Shiva_Corporatin_41763CE2B68E64DE4D4C4F228B6B25F92EEB0C6ECDA423A638AE04F1BFB835C9 00000000100c8d48     guideXOS.obj
 0005:00022d80       __Str_Shiva_Europe_Ltd_58D34330498EFCCDE0D7F74E3C2AB0BC706913913E82404DA0DCDD4A8EFE1056 00000000100c8d80     guideXOS.obj
 0005:00022db8       __Str_Show_Alert_D2860B59CC8D5B551C742C28A893B62D2C2315F1872DCD4D48D3E7C984114E1D 00000000100c8db8     guideXOS.obj
 0005:00022de8       __Str_Show_All_Demos_766052802A144B80EBFF1CA5D649937BA1490D768042256E1EEB6A4D8FADD3C8 00000000100c8de8     guideXOS.obj
 0005:00022e20       __Str_Show_Message_D2DBA7AB084D3253146619227914D6EDCAC6D7D94BC6981E28C6DD9B633E2593 00000000100c8e20     guideXOS.obj
 0005:00022e50       __Str_Shutdown             00000000100c8e50     guideXOS.obj
 0005:00022e78       __Str_Shuttle_Computer_B9B7297C7498D68EA2D33DAE4CCC3898385DB13FE96B1EA5723393C960956431 00000000100c8e78     guideXOS.obj
 0005:00022eb0       __Str_Sibyte_Inc_1B6839BFE76750CD99A0D0B0D7EBF4184E0AB0D39596FF28A3C2BF7C4124062A 00000000100c8eb0     guideXOS.obj
 0005:00022ee0       __Str_Siemens_AG_24075905CD7DF5B542C83469FE06EC8014B4BF1B2169D52CACA3D967C3E969EE 00000000100c8ee0     guideXOS.obj
 0005:00022f10       __Str_Siemens_Healthcare_15215AB44603E1373B7DA5217581D00C20D23962AF6C7E488F05A67BFDA079CB 00000000100c8f10     guideXOS.obj
 0005:00022f50       __Str_Sierra_Research_and_Technology_74105D9547A457644C8987BE60EEA1E9D50631B54C9D51DE35380A0E342CE933 00000000100c8f50     guideXOS.obj
 0005:00022fa8       __Str_Sierra_Semiconductor_ED7BF67407C14EC22A614AAC73E3B54CF57F7AE61076EFEE13F45D78326217E9 00000000100c8fa8     guideXOS.obj
 0005:00022fe8       __Str_Sigma_Designs_Inc_23EA2C227B7655125A8BB85D081D47C39EFFF52E75015C0484EB03F530C9FBB4 00000000100c8fe8     guideXOS.obj
 0005:00023020       __Str_Sigma_Designs__Inc_487FB17166650108D9D08E0FBE9B3BFFEE16CB38ACE609C508CDB726F326C10F 00000000100c9020     guideXOS.obj
 0005:00023060       __Str_Sigmacom_Co_Ltd_E7F5530C4905A8B6C1874A50FBCE0AC819F919F2E68FE2D2DFEDCDE595E116D7 00000000100c9060     guideXOS.obj
 0005:00023098       __Str_Sigmatel_Inc_DCB270BB2B4E1273642F13A2592ABEC0D9C51DF34951AB5F4BCAA5DBD54EE393 00000000100c9098     guideXOS.obj
 0005:000230c8       __Str_Signal_processing_controller_E93AB9F903563BE1967F83310C752D463D105EB3A14C735C4780CAAD9D49AA2C 00000000100c90c8     guideXOS.obj
 0005:00023118       __Str_Signature___035885F107B1D82D19C11F2C0BD24D84244F8B94B2279BFEA59997D3D6ECC99F 00000000100c9118     guideXOS.obj
 0005:00023148       __Str_Silex_Technology_Inc_330E21644866B0E3EF55C670F4EA39F0E00AE0F6867997FB7F31B15E116DA31A 00000000100c9148     guideXOS.obj
 0005:00023188       __Str_Silicon_Engineering_B75124145F9C2D22C79A843F024871F0841A915B9A2450A8DB7B5D40341AE6F6 00000000100c9188     guideXOS.obj
 0005:000231c8       __Str_Silicon_Graphics_2FC029A0E891C7DBFAF7194CFC13DE6E5944037EB55F9EFB084303ADDE3BFE85 00000000100c91c8     guideXOS.obj
 0005:00023200       __Str_Silicon_Image__Inc_2448F54DFFB7D75FF12A746348DC045746AC79F5FACE7D6382EF732040A582FD 00000000100c9200     guideXOS.obj
 0005:00023240       __Str_Silicon_Integrated_Systems_1A97BAC2EB73C991F0BD950029417049234197932366541A8CE3571B397260E7 00000000100c9240     guideXOS.obj
 0005:00023290       __Str_Silicon_Laboratories_E3353D0A920C5F4FCB40A2359A38497D412919E4EF938DFD487B9B25D91FBF81 00000000100c9290     guideXOS.obj
 0005:000232d0       __Str_Silicon_Magic_A40EB406953A0764E3CC66F5C404ED02D9C43416FF8C475DF88EDCEF63E84ADE 00000000100c92d0     guideXOS.obj
 0005:00023300       __Str_Silicon_Motion_5DDA2B1917AF07A7B53900CD8EEAC49FE3DE7893E401B1E00A3E5B78DDFC4986 00000000100c9300     guideXOS.obj
 0005:00023338       __Str_Silicon_Spice_Inc_B0B0ACC0C91D287961FEE8141D28949D057F7B3289EBD41C3C249F357583883D 00000000100c9338     guideXOS.obj
 0005:00023370       __Str_Simpact_Inc_34BB3C590852A34A81B259FA922791613FAAB3B6AD6FA797C8DA1E7BBA9D72B2 00000000100c9370     guideXOS.obj
 0005:000233a0       __Str_Simple               00000000100c93a0     guideXOS.obj
 0005:000233c8       __Str_Sitecom              00000000100c93c8     guideXOS.obj
 0005:000233f0       __Str_Size___549671492C0BFD5ED0D2EA280E3FB7C734D55FDA1E4EE5B2A47A1AEE6199E2A3 00000000100c93f0     guideXOS.obj
 0005:00023418       __Str_Skip_Invisible_Window_Renderin_5A70D958139E20516BE92E43493C00DEA0BF88E1DB9542EA884B24321544FC45 00000000100c9418     guideXOS.obj
 0005:00023470       __Str_Skip_Minimized_Window_Renderin_0AA0856C581B82A2F83E088CD2B86F9F99190C60F7BDFBBC9424E0790E5FD8F9 00000000100c9470     guideXOS.obj
 0005:000234c8       __Str_Skip_Off_screen_Window_Renderi_3D32EEDB9068FF4F56F8FC122A780EE376845E698289FE06F647F6C037802EE3 00000000100c94c8     guideXOS.obj
 0005:00023520       __Str_Sky_Computers_Inc_5E4DD95FE005D21A610648655B2675A4F448381C207727BE8713984C5DB19645 00000000100c9520     guideXOS.obj
 0005:00023558       __Str_Skyware_Corporation_EC5FC2FB9E0479396632C6E36CE07FD8D3C8496E05D66B35E42225F046A366D3 00000000100c9558     guideXOS.obj
 0005:00023598       __Str_Sleep                00000000100c9598     guideXOS.obj
 0005:000235b8       __Str_Slide_Down_Animation__Show__FB1A42A44F0450C558A75444D472253CE0A9054276CE3CED5EF014626F03C00D 00000000100c95b8     guideXOS.obj
 0005:00023608       __Str_Slide_Up_Animation__Hide__3184CD5E2DFC926E1BBA2BB8C65FD45CFB7825F832B4F617F95FF5B6E79DA2E8 00000000100c9608     guideXOS.obj
 0005:00023650       __Str_Smart_Electronic_Development_G_76A9A5FF1C1550DE3222C1ADA11F4D0267E738FADC1B363C8285FED246064159 00000000100c9650     guideXOS.obj
 0005:000236a8       __Str_Smoke_In_13C083CF948D0883E9B1E33D276325C3D24BF82A34EF79625FB17C975C324689 00000000100c96a8     guideXOS.obj
 0005:000236d0       __Str_Smoke_Out_C01335E639287DE9A71FF4BB846388EAD0479575138A6CF1534D4D2E3A4625C1 00000000100c96d0     guideXOS.obj
 0005:000236f8       __Str_Smoke_Particles__D829585D46C93912DEAFEDAFA23CEFD3FB339FD9CAD95C81447289A679BC0B59 00000000100c96f8     guideXOS.obj
 0005:00023730       __Str_SndWrite             00000000100c9730     guideXOS.obj
 0005:00023758       __Str_Softing_AG_DCE0447DCA5EEE0EF9A58E38F7E648A179C3B31CF9AC848A3FEF72AB5F2770E5 00000000100c9758     guideXOS.obj
 0005:00023788       __Str_Sola_Electronics_6D5DFA41A19044D17671766C4BA0D89D2183F0443710FCD8C23E40391A10426D 00000000100c9788     guideXOS.obj
 0005:000237c0       __Str_Solectron            00000000100c97c0     guideXOS.obj
 0005:000237e8       __Str_Solidum_Systems_Corp_F9D0ADBD3A277A83B7A03E1086FFB99FE4AB7F1619C20DCF35E7D198D9D3143A 00000000100c97e8     guideXOS.obj
 0005:00023828       __Str_Soliton_Systems_KK_62ED8299DDE88073B145DAFE1CD1437A782E1D5173A4297A28EC67765F6F6B3C 00000000100c9828     guideXOS.obj
 0005:00023868       __Str_Solitron_Technologies_Inc_82D4D41B680D65AECFCAAC8A28C799D6D06A775E1DF674A451ED04B8C292D1D7 00000000100c9868     guideXOS.obj
 0005:000238b0       __Str_Solliday_Engineering_626C63D8646244B011255A7A48C5C822B34F8C9AFC889F1BA28F848287AF4AFD 00000000100c98b0     guideXOS.obj
 0005:000238f0       __Str_Sonic_Solutions_BBFD1FA8FBF53750E6161711CD45A12374E697E241B1B1A427D343C096CB4B48 00000000100c98f0     guideXOS.obj
 0005:00023928       __Str_Sonicwall_Inc_B4F768B7069513C2E13E79E34019FBBBB7E01893036D234C19384571A6255863 00000000100c9928     guideXOS.obj
 0005:00023958       __Str_Sonnet_Technologies__Inc_DE2993FB5B395C257A9EA0F110E91D3B365978325DBDD005AD9A55CB3F0EFA90 00000000100c9958     guideXOS.obj
 0005:000239a0       __Str_Sony                 00000000100c99a0     guideXOS.obj
 0005:000239c0       __Str_Sony_Corporation_2C79D0A142B0C6667D507D83379351C4653A966F02302F4B2B074DD9912C00A0 00000000100c99c0     guideXOS.obj
 0005:000239f8       __Str_Sopac_Ltd_1788A52641C54C3B8D423474E97616CB6A9BACD874D6991EF8A96EECC9CD8EB5 00000000100c99f8     guideXOS.obj
 0005:00023a20       __Str_Sord_Computer_Corp_C8B84DE5135FDD0C3254CB51BE9F0B43DE58639F5A6FFEE737002CE0AA11CF58 00000000100c9a20     guideXOS.obj
 0005:00023a60       __Str_Sorenson_Vision_Inc_A4104ED83A98902278F4F773366A4055E1C44CF566940FC5EFB93B4C3284B9B0 00000000100c9a60     guideXOS.obj
 0005:00023aa0       __Str_Source_Technology_Inc_9D3C5B8841A0CB38C9BC3A51F0CA14E8DC179E19BE89F9E5E2FC0A6617661588 00000000100c9aa0     guideXOS.obj
 0005:00023ae0       __Str_Soyo_Technology_Corp_Ltd_69A426A83A7ABC9D4F987B321D75D79E2B4E9257CBE1341F2CCD19CCA539D6EC 00000000100c9ae0     guideXOS.obj
 0005:00023b28       __Str_Space                00000000100c9b28     guideXOS.obj
 0005:00023b48       __Str_Spea_Software_AG_1FD6B9A8E093C010C4641838ED34FA6C0FD9805B49A9D32E584437BF5548217B 00000000100c9b48     guideXOS.obj
 0005:00023b80       __Str_Special_Effects_23A778A7A2BF8945FB82CDD195E760B7F33D33227046F3AF1DEF0F9A1F9BCB5B 00000000100c9b80     guideXOS.obj
 0005:00023bb8       __Str_Special_Window_Effects__Tron_s_1B40FF2A360C4AE59FD8E366F33E4AAEE9C4687CF238B8FA826896CA265449E4 00000000100c9bb8     guideXOS.obj
 0005:00023c28       __Str_Specialix_International_Ltd_A5419EB4E1DCA6EC437AC9DACE24141DAA63DD44EF26226787D8138BF2570EE6 00000000100c9c28     guideXOS.obj
 0005:00023c78       __Str_Specialvideo_Engineering_SRL_49F98DD9E7B553F19E8600FFC40EF45FBDF8D57C23C8D730FB80FE7AD0512359 00000000100c9c78     guideXOS.obj
 0005:00023cc8       __Str_Spectracom_Corporation_303D59ADD1FA1D8D78263CCCF203717D4C5FD8E8484D2250A58058323FB1783D 00000000100c9cc8     guideXOS.obj
 0005:00023d10       __Str_Spectrum_Digital_Inc_18AB95576C28A632A9D91057A25535BEAA3684649E28670F432F50BE69E28392 00000000100c9d10     guideXOS.obj
 0005:00023d50       __Str_Spectrum_Signal_Processing_9E68B129941614A21A94F57F432031330C9F285E02E4760FE863CDCB1D2193FF 00000000100c9d50     guideXOS.obj
 0005:00023da0       __Str_Spectrum_Systementwicklung_Mic_7B98767484CCCD4FC652B8976F0A3F57998584919EED8C7531FC8D92385B765F 00000000100c9da0     guideXOS.obj
 0005:00023e18       __Str_Speed__E17095DA24B059C48A8B77BEA02D44F6B7DA0626129CC49C7C424CE8E2F79AEA 00000000100c9e18     guideXOS.obj
 0005:00023e40       __Str_Spellcaster_Telecommunications_A426A1F617D28BD21CB4C8B2FF028589BA4FB63D9FEDE4DA788B800F4B1CDA2A 00000000100c9e40     guideXOS.obj
 0005:00023ea0       __Str_Splash_Technology_Inc_FF381CC292B70AFEF9BF3BC0C615DCE3CDC5F1A67E9AFF5B1AAAA59C735E29F0 00000000100c9ea0     guideXOS.obj
 0005:00023ee0       __Str_Square_Wave_Technology_0DDF31699416C72F9C369E0CB7E46883EE3E1964A4453E9488B8966F61EBACA7 00000000100c9ee0     guideXOS.obj
 0005:00023f28       __Str_Stack_Pointer__0x_5CD2452D52ED728B7F8F90FE51137D6249EC97D4AC9B2A16C26E8E5B334BB365 00000000100c9f28     guideXOS.obj
 0005:00023f60       __Str_Stallion_Technologies_7F8747DB1319B9CF9EE2725A003A5A6AF00C41E86532C0FEB5062DCBE62ABCF1 00000000100c9f60     guideXOS.obj
 0005:00023fa0       __Str_Standard_Microsystems_Corp_F284E9D529A7251A2E1B7A025DB51C737229858F618922048264F832743F4E69 00000000100c9fa0     guideXOS.obj
 0005:00023ff0       __Str_Standard_Microsystems_Corporat_52D0537877E47DB24AB65CC3CEA863980FDAFE6EDF526675FCC60FB1979F3108 00000000100c9ff0     guideXOS.obj
 0005:00024048       __Str_Star_Multimedia_Corp_CB2A97C20CC157E4FACBAB607E009088C9B38217BF7FA81EB17407D713E1AB04 00000000100ca048     guideXOS.obj
 0005:00024088       __Str_StarGen__Inc_2DFF5A7063F3F765D8DCFA6023F18DCE723004B874AEDE1BEBEAA2FF242FC60E 00000000100ca088     guideXOS.obj
 0005:000240b8       __Str_Start                00000000100ca0b8     guideXOS.obj
 0005:000240d8       __Str_Start_Network_Technology_Co__L_88E3A06C17337A2F2987E86F9D6D78C6EF6CA92D030D7F25D9630FE18135B506 00000000100ca0d8     guideXOS.obj
 0005:00024130       __Str_StartThread          00000000100ca130     guideXOS.obj
 0005:00024160       __Str_Status               00000000100ca160     guideXOS.obj
 0005:00024188       __Str_Stelar               00000000100ca188     guideXOS.obj
 0005:000241b0       __Str_Stellar_Semiconductor_Inc_EDD1CD321C1BEE4A1E90631531B92F76E931BB5647BE70AE8E2DBA7F1F0C892B 00000000100ca1b0     guideXOS.obj
 0005:000241f8       __Str_Steps_to_renew__31FDAC3007BD58F117DA4BBAB7EB3349C80C3FF1E00A743C554D4A955D5D8343 00000000100ca1f8     guideXOS.obj
 0005:00024230       __Str_Stratabeam_Technology_C5075468F3C22ABF68F504FDE692512052C4391F0EA0E1DB2973BAE75C9D7C20 00000000100ca230     guideXOS.obj
 0005:00024270       __Str_Stratus_Computer_C6D87A65B637BED83478B5E88A093A3979A3017D879B629563AC980A4DDD85AB 00000000100ca270     guideXOS.obj
 0005:000242a8       __Str_Stratus_Computer_Systems_F065E37939B0442B64ACD1319090BC2EFBCCA73EE161BF8D213FA68F7C769872 00000000100ca2a8     guideXOS.obj
 0005:000242f0       __Str_Studio_Audio___Video_Ltd_4B377267BA985CBD10BEAF587A69C5BAE0630082955EF9171822A5B9D067B91E 00000000100ca2f0     guideXOS.obj
 0005:00024338       __Str_Subnet_mask__D93E922CB2F2CB228D186AA4582B4F26B8928DA7ADF7105C5171085568BE20B7 00000000100ca338     guideXOS.obj
 0005:00024368       __Str_Subtract__15B3820C5D4669331C00916F587EF98768DB77DA736EAE905C4C6EC84726CE02 00000000100ca368     guideXOS.obj
 0005:00024390       __Str_Successful_Frees__7B19E88C863335349B82312F71CB002E55C55760599DF03342C7F99B216C8CF3 00000000100ca390     guideXOS.obj
 0005:000243c8       __Str_Sumitomo_Metal_Industries_Ltd_F013A80B32CD8CCD2BCAF406CD5F110F6AE308297A86EB64185874D5EECEDD07 00000000100ca3c8     guideXOS.obj
 0005:00024418       __Str_Sun_Microsystems_C3A8EE42758C9B92A0CA522EAD787553ECF43CA339CA5A322ACB568B5D79E62A 00000000100ca418     guideXOS.obj
 0005:00024450       __Str_Sunlight_Ultrasound_Technologi_2628BB3D7A7D22D4805E9DA3EB9510F5035B6CADD6883BEA7A526E6F60438378 00000000100ca450     guideXOS.obj
 0005:000244b0       __Str_Super_Micro_Computer_Inc_70F2D3BAE0FD6555659775A2DD5DC3AA0D3D88F83447CF1EA1CAD58C60925860 00000000100ca4b0     guideXOS.obj
 0005:000244f8       __Str_Supernet_Inc_5D5184291AD193B27A8289593BA698125973ED64C0AAC4081900EA6B584D6C42 00000000100ca4f8     guideXOS.obj
 0005:00024528       __Str_Surecom_Technology_BB32FAC0EB94531ACA995072C223E8BD47FF21A79C02C65B7F03C78506C4A23E 00000000100ca528     guideXOS.obj
 0005:00024568       __Str_Switch_to_EXT2_failed__E99EAB23A4C039C7501056A66FC5452E9CD019091C2381898FF093FBABE82EFF 00000000100ca568     guideXOS.obj
 0005:000245b0       __Str_Switch_to_FAT_failed__1DFC573401A21014660E610170D76A8B31F1CFFACC9A62EB8959D37004178B24 00000000100ca5b0     guideXOS.obj
 0005:000245f0       __Str_Switch_to_TAR_failed__F680AE0AFA2B9D46B7109C53126E8D45AB8845819F10AF3851FE16E363AEB914 00000000100ca5f0     guideXOS.obj
 0005:00024630       __Str_SwitchToConsoleMode  00000000100ca630     guideXOS.obj
 0005:00024670       __Str_Switched_Network_Technologies__4D3802EDCB1802EFCCD13C18C8A7DFFE5AD6755F708CA477911E61ABE6137B1B 00000000100ca670     guideXOS.obj
 0005:000246c8       __Str_Syba_Tech_Ltd_A7EAA9A64DBBC08E351E1DBF43CE98C7646F92329B62AD72C2CBB96D7AB6F692 00000000100ca6c8     guideXOS.obj
 0005:000246f8       __Str_Symbol_Technologies__Inc_AE40DD7CFD5988C036F7A8CA8A9AEF9C9FC1177863D2F5534BF4EC46E88138BD 00000000100ca6f8     guideXOS.obj
 0005:00024740       __Str_Symicron_Computer_Communicatio_FC3315C908A43905F68C28E0F6F5536F6A672C678760B7A2BEF5147968254792 00000000100ca740     guideXOS.obj
 0005:000247a0       __Str_Synaptel             00000000100ca7a0     guideXOS.obj
 0005:000247c8       __Str_Systech_Corp_4F033A17D350784692CEFF4160239B10F518E5E59C347271EDC55F2F6618D435 00000000100ca7c8     guideXOS.obj
 0005:000247f8       __Str_System_Craft_Inc_D002221A19B2266A193855AC3ACCD3FF03B3239F3A0A5ABE8E313B04E373F78C 00000000100ca7f8     guideXOS.obj
 0005:00024830       __Str_System_Disk_0__IDE__959CCD753B3760AA33C365C9AE2A19CE87DBAD4D6BBA48BF7C1599B560BCD9E0 00000000100ca830     guideXOS.obj
 0005:00024870       __Str_System_Monitor_D2AFF69D938C837616BB3C3FEA9A8C1A57C3DD724979BC0BBF86AE52E45B490A 00000000100ca870     guideXOS.obj
 0005:000248a8       __Str_System_Uptime__8BBB08187CF45A287E19B4F91F02C08F7AE02E923019227512CC3F45BB264B69 00000000100ca8a8     guideXOS.obj
 0005:000248e0       __Str_System_call___009125376AA49C1C5CF5E3CA8B94E69486ABC302702CAC060355A2A577A44A4C 00000000100ca8e0     guideXOS.obj
 0005:00024910       __Str_System_information_unavailable_BA5E979A13DD97AA90E43DD8E5ECC4B2D7A522F97943EE9BDE3A22217514A751 00000000100ca910     guideXOS.obj
 0005:00024968       __Str_System_Object_A3D7A9E140E282A7AD0B2E72214B725A2CA1CD93944A74183E50C98A769333D8 00000000100ca968     guideXOS.obj
 0005:00024998       __Str_Systemax             00000000100ca998     guideXOS.obj
 0005:000249c0       __Str_Systemsoft_Corporation_49B6FD4B7EA526B731270EBB66B076D138CB1E84F50B857F3AB056BF30A4BAC2 00000000100ca9c0     guideXOS.obj
 0005:00024a08       __Str_T_Square_Design_Inc_524BCCD9E0765ABBADC4FF49963B74A34542B5EBD07490EE0800DE0A15AB0272 00000000100caa08     guideXOS.obj
 0005:00024a48       __Str_T_R_Systems_87B75BA9A2753993944622D4F3047F86038C6EC564FEB02A146794529776D308 00000000100caa48     guideXOS.obj
 0005:00024a78       __Str_TAR__initrd__D47627110BCF1670BC4AABE686426A421A596184DF073E43D56BB17D94688328 00000000100caa78     guideXOS.obj
 0005:00024aa8       __Str_TASKBAR              00000000100caaa8     guideXOS.obj
 0005:00024ad0       __Str_TBS_Voyetra_Technologies_5BA5B0A05F9667854B3AF244A7D408B5E84D22930C7FC0E91C8945228874951D 00000000100caad0     guideXOS.obj
 0005:00024b18       __Str_TC_Labs_Pty_Ltd_32B7DC1D059363ACC44BCCD550D27A74AA9867DAD53D53CB82FBD0D9B04B2C25 00000000100cab18     guideXOS.obj
 0005:00024b50       __Str_TDK_Semiconductor_Corp_FAAAF46922A53E0F8EE527EBFE7D81855A57A6EAE957EF54F019B695161B2788 00000000100cab50     guideXOS.obj
 0005:00024b98       __Str_TDK_USA_Corp_3A3AB3DA7E369513AADAE6AC36309793F41D853E23493BFA7AC2E09D08FC6B98 00000000100cab98     guideXOS.obj
 0005:00024bc8       __Str_TEK_Microsystems_Inc_B0E6CCD482CCE6A65D8628A106756500D78C6168B9EE90744F12B35249566EFA 00000000100cabc8     guideXOS.obj
 0005:00024c08       __Str_TEXTBOX              00000000100cac08     guideXOS.obj
 0005:00024c30       __Str_TFL_LAN_Inc_020482E3A96E8F39AFA1C9FEE5229FEB6344547834C012B3227DE8146D4A8915 00000000100cac30     guideXOS.obj
 0005:00024c60       __Str_TIMING___PATTERN_ANALYSIS_2D583A4FB4B6890B170FAEA6BBF8098B171A16EF4AEA856503B5AD9082FCCB11 00000000100cac60     guideXOS.obj
 0005:00024ca8       __Str_TIMING_NOTE__Crash_after_5__mi_EEC1A7225A4972D596C02C3F5629FE22AE8587A9A292E876B22A7DD877EBB082 00000000100caca8     guideXOS.obj
 0005:00024d20       __Str_TIMING_NOTE__Crash_in_1_2_minu_6229A2D73EB67CAED70B0E3C0D16F83275E98500DC981564BB8FF57F3CBD60FC 00000000100cad20     guideXOS.obj
 0005:00024db0       __Str_TMC_Research_6B68CC0AA4FD6C3B938FB4D13917D188ED568FAF74E85FADB4498F93AF26E6AE 00000000100cadb0     guideXOS.obj
 0005:00024de0       __Str_TOMBSTONE            00000000100cade0     guideXOS.obj
 0005:00024e08       __Str_TOPCON_Corp_ABE5D7BF6B412C5816435B4A8E04EFA9553A0DF4DD70FC440BF8DD011ED55A72 00000000100cae08     guideXOS.obj
 0005:00024e38       __Str_TP_Link_ADD5A07C4E86C07DAC451959107EDA09142EEF721E558987FDEB2F5ED91F861F 00000000100cae38     guideXOS.obj
 0005:00024e60       __Str_TRENTON_Technology__Inc_D714BA13C60D0716F638EFC13C81999ED8E00D7F2CB7A4935F5156DDB0E93266 00000000100cae60     guideXOS.obj
 0005:00024ea8       __Str_TRIDENT_MICRO_DA0A937E06807602DE58D79715CCE9D5B8E5320097B61A11DCFA646189FA26E4 00000000100caea8     guideXOS.obj
 0005:00024ed8       __Str_TROUBLESHOOTING__F2CD744DC32855E841FB1F79AABBC5C4915981D7FB80F47921EC55E97606AB97 00000000100caed8     guideXOS.obj
 0005:00024f10       __Str_TRUE                 00000000100caf10     guideXOS.obj
 0005:00024f30       __Str_TSI_Telsys_C2E698A404971F9149165A29B3B381F6D024E8D2A64A26D572D6757AF14C2E28 00000000100caf30     guideXOS.obj
 0005:00024f60       __Str_TSqware              00000000100caf60     guideXOS.obj
 0005:00024f88       __Str_TTF_Font_Demo_BB61BCE1A9DE86EAA5C13FFFE75CAA17A88895EEB49BC533DC846B35E704CA7F 00000000100caf88     guideXOS.obj
 0005:00024fb8       __Str_Tachyon_Inc_F80D38DF8728CEC4F2408D90C9396ADD67E5708D83A396BFE37D614ECBC21C56 00000000100cafb8     guideXOS.obj
 0005:00024fe8       __Str_Tahoma_Technology_CB433DFFD4FCCB5BA58F2568294137F71B5EB09AE2B2E15DEB3676A6B93A1603 00000000100cafe8     guideXOS.obj
 0005:00025020       __Str_Taiwan_Mycomp_Co_Ltd_62BA467393FB0A0E36D35D0F7363BD7EE9F3DD38045C292CD8CF3A47CAAB6106 00000000100cb020     guideXOS.obj
 0005:00025060       __Str_Tamura_Corporation_D3B3D8FE0A0EA55312C3A9820005E49653A3AD213A1ED6439A182C58F11F9E62 00000000100cb060     guideXOS.obj
 0005:000250a0       __Str_Tandem_Computers_459D3864CFE00C3E6CA43286F8FBE85E32BE02A6127778B8DE81CCFB442D40F2 00000000100cb0a0     guideXOS.obj
 0005:000250d8       __Str_TarFS                00000000100cb0d8     guideXOS.obj
 0005:000250f8       __Str_Tascorp              00000000100cb0f8     guideXOS.obj
 0005:00025120       __Str_Task_Manager_B7D26D2C300B575DD0B1D204DD034D1CBB023116D3F1FA9C7D89885E75E16AA5 00000000100cb120     guideXOS.obj
 0005:00025150       __Str_TaskManager          00000000100cb150     guideXOS.obj
 0005:00025180       __Str_Taskbar_Settings_8CAFC2D454AFF61282A59BF8A67DBEBD8CC9A7357B8D0EC571F3821DF6D8C16E 00000000100cb180     guideXOS.obj
 0005:000251b8       __Str_Taskbar_not_available_8129A76B6683496EFEB258F349E83E5F8BE7BBAC2AB8B10AA9F5748F939AB23E 00000000100cb1b8     guideXOS.obj
 0005:000251f8       __Str_Tateno_Dennou_Inc_5DCD62C8F08DD304FC03716FF433C1F7239251125B08CF837012F3A943421359 00000000100cb1f8     guideXOS.obj
 0005:00025230       __Str_Tateyama_System_Laboratory_Co__6078F6AFBD7AB1E68823C022394B3AF57901A5CFD03367166983C3181E43E816 00000000100cb230     guideXOS.obj
 0005:00025288       __Str_Tatung_Co_5FD49C90782C5FE8352422DE15CAA6CED37C26B54792CCED82C0591FA076FD28 00000000100cb288     guideXOS.obj
 0005:000252b0       __Str_Tatung_Corp_Of_America_FA11859D54F9EC0514F1B300386E7B98DDBE668ED58853460DC8430A7B50FEAE 00000000100cb2b0     guideXOS.obj
 0005:000252f8       __Str_Team_Nexgen_F7522E7BB2EC110FA92138086B2409BCE8B5851B22E0CFDDA201BD8D3DFBBE0E 00000000100cb2f8     guideXOS.obj
 0005:00025328       __Str_Tec_Corporation_0E2D1A9179BE013EB491938825958DBCCC499CABF9B7E6AAD4E5E9D913103A3A 00000000100cb328     guideXOS.obj
 0005:00025360       __Str_Tech_Source_815D634B03525C6A6D4DE4477D75BD8AFFEB3A9DC7CD7336DA9D802C0F564625 00000000100cb360     guideXOS.obj
 0005:00025390       __Str_Technical_Corp_9ECA651BF0D46DA485FD42785D0E6D4794E3FB7703096D852E3E167F41F9EB73 00000000100cb390     guideXOS.obj
 0005:000253c8       __Str_Technical_University_Of_Budape_701AFCE0C5F3014804E8BAAACC345C61E725961F609E8FE7F9FF234CFB57AB61 00000000100cb3c8     guideXOS.obj
 0005:00025420       __Str_Technotrend_Systemtechnik_GMBH_BAEAB68211D146E91AF9F3C61A593337A7A9A551848B6A1701FA8D61753B9A1B 00000000100cb420     guideXOS.obj
 0005:00025478       __Str_Techsan_Electronics_Co_Ltd_0DF7ABB63346FCBC246B0E4933B9893615D66DEEDED43A1A85A3C6CFE89FE314 00000000100cb478     guideXOS.obj
 0005:000254c8       __Str_Techwell_Inc_F24254751897884EEEA1D3B3D25C41096CC0907941AA42B8D2B3E0D5BE506B87 00000000100cb4c8     guideXOS.obj
 0005:000254f8       __Str_Teijin_Seiki_Co_Ltd_9A6CFD4AEF4D3AD94542D818C196B4A9D9D742F233F6A534230DA030FAC8B9F9 00000000100cb4f8     guideXOS.obj
 0005:00025538       __Str_Tekelec_Technologies_F4B7D1924FF6E369508BF4CD750BA0A4851EE5705009AAD7A12061DBA6165807 00000000100cb538     guideXOS.obj
 0005:00025578       __Str_Tekram               00000000100cb578     guideXOS.obj
 0005:000255a0       __Str_Tekram_Technology_Corp_Ltd_71964C5F8D39C8CC2A09F4F23B1C5208A2B8532AD28935AEBF332E78E4EF1F07 00000000100cb5a0     guideXOS.obj
 0005:000255f0       __Str_Tektronix            00000000100cb5f0     guideXOS.obj
 0005:00025618       __Str_Telefon_Aktiebolaget_LM_Ericss_4A1458FAA2E42394836013345F36E777D8F36EE58FBC657E64DAC16FA964998A 00000000100cb618     guideXOS.obj
 0005:00025670       __Str_Telesoft_Design_Ltd_5AAF288EEC08D8E36628BE9E7E9FC933063C05ED1A6C87C25A753E22057B68AC 00000000100cb670     guideXOS.obj
 0005:000256b0       __Str_Telesynergy_Research_Inc_4B436857FC24282F8BDC2EA449E21AF046D3F463591D88115FC1BDB5A4912457 00000000100cb6b0     guideXOS.obj
 0005:000256f8       __Str_Televox_Software_Inc_F125639CDF5AAC61C052F799DFDC22277E102CB4A3DFAC53363CEEB3372635BF 00000000100cb6f8     guideXOS.obj
 0005:00025738       __Str_Telocity_Inc_F31756386D77AC581BB98F064CBC0573A9A400C7B7D89283FB9A8F3F17F4248F 00000000100cb738     guideXOS.obj
 0005:00025768       __Str_Temporal_Research_Ltd_7AE62C7D26ADAE42CF381AB1473E574BB40B863FAEBBC9FA5F2E109B73B295C4 00000000100cb768     guideXOS.obj
 0005:000257a8       __Str_Tenta_Technology_55CC6E3B23B437097E1CE371267AD5E676E57F8F97C24B0BA7DC741C451E7E74 00000000100cb7a8     guideXOS.obj
 0005:000257e0       __Str_TeraRecon__Inc_CFC43064F5867C459217A63D9EEA5DECC3A841ECB0C0B8BB9FD1559D556FA918 00000000100cb7e0     guideXOS.obj
 0005:00025818       __Str_Teradyne_Inc_38DF318C41FF52979E7CB3D298B49FFC9E4270ED03AA809EA9967088D62533B6 00000000100cb818     guideXOS.obj
 0005:00025848       __Str_Teralogic_Inc_8BE94031B2963207773F6FB41C91856B0C4F923277E087A3DB582C1050B9DFB2 00000000100cb848     guideXOS.obj
 0005:00025878       __Str_Terayon_Communications_Systems_E8E906B661B69F12169587A97796345E43CC945476258308876EFB9E5B8DE081 00000000100cb878     guideXOS.obj
 0005:000258d0       __Str_Termination_Failed__8DD8233CAB8219CE9715FBEAB3A186544FAAE43A532CA95BF47A3C14FA31AE69 00000000100cb8d0     guideXOS.obj
 0005:00025910       __Str_Terratec_Electronic_GMBH_FC52BAF8B3A1D6E05F821F658DCF8EE74B3221C7E17DF23F97DEE647916AA6A6 00000000100cb910     guideXOS.obj
 0005:00025958       __Str_Test_Item_1_Test_Item_2_Test_I_6BD2A675AA5652AFEA1FA46CC6D24F2267C54F23601FBC8199BD64AF80CA997E 00000000100cb958     guideXOS.obj
 0005:000259b8       __Str_Test_Window_EC1AA20D14A59ED7F362A73845888FC7D0E70E28E7BB796DAA5F5D93423FE6AF 00000000100cb9b8     guideXOS.obj
 0005:000259e8       __Str_Test_alert_from_new_window__6D535DEB31CC43AABB298DD6A2EFBC460C87827EA82A978DAF8468FF4BE77C7F 00000000100cb9e8     guideXOS.obj
 0005:00025a38       __Str_Testernec            00000000100cba38     guideXOS.obj
 0005:00025a60       __Str_Tews_Technologies_03C667ECEBE33E15182CA1FA07A16C9081670578E13FA085C527CC7B634478A5 00000000100cba60     guideXOS.obj
 0005:00025a98       __Str_Texas_Instruments_A29F5878D8889668627D025D97097437478B3244D7B54DFF1480951B8D8931C8 00000000100cba98     guideXOS.obj
 0005:00025ad0       __Str_Texas_Memory_Systems_Inc_A780FC84207F83B9FB037070452DFE315D7BCA7B71283FA6076E3AD09AE8C4C9 00000000100cbad0     guideXOS.obj
 0005:00025b18       __Str_Texas_Microsystems_AB5999988AAB70AA713E1B9E37F3874B7A0E4DC67849ECE81D2417A598654524 00000000100cbb18     guideXOS.obj
 0005:00025b58       __Str_Thank_you_for_choosing_guideXO_89AF767E4789E9EFC5976837972EE6D12FE6D7DBA08D232CE5D2B71B96B35C56 00000000100cbb58     guideXOS.obj
 0005:00025bb0       __Str_The_3DO_Company_2998C3AB0BFDA6D290949A4F8F549899BA4840B1EBE2750996F2A65093FD3165 00000000100cbbb0     guideXOS.obj
 0005:00025be8       __Str_The_boot_partition_will_contai_9BBF002218D250914A159AEA874D7454A8D841630A446328F103B166A5FEAE37 00000000100cbbe8     guideXOS.obj
 0005:00025c40       __Str_The_following_disk_will_be_for_A13251CED92950970F15DEEA521EAB89CA044F04386A12ECCE91F9D1BE8A76A2 00000000100cbc40     guideXOS.obj
 0005:00025ca0       __Str_The_installer_will_create_the__1B61D8C7B61DC8CC7ECB683F9395CE5C4CB1EE0E99DDD3AD12E23425DDE5587F 00000000100cbca0     guideXOS.obj
 0005:00025d20       __Str_The_quick_brown_fox_D087C9F5F0246E1C8CCCADE4B8F9A2252925D4A7EFBDBDDC667A92975A69913A 00000000100cbd20     guideXOS.obj
 0005:00025d60       __Str_The_quick_brown_fox_jumps_over_3B5B0EAC46C8F0C16FA1B9C187ABC8379CC936F6508892969D49234C6C540E58 00000000100cbd60     guideXOS.obj
 0005:00025dd0       __Str_The_system_partition_will_cont_E1E760F154C71C969410E1A7ED1FCF3E336D2673B9048DF1190427570786DC37 00000000100cbdd0     guideXOS.obj
 0005:00025e30       __Str_Thesys_Microelectronic_s_773636014808D26FFB367B26EDCE288D2528CA07C0A3F388E802E82AC377E40A 00000000100cbe30     guideXOS.obj
 0005:00025e78       __Str_Thine_Electronics_Inc_0E390011F9CC07DFE768958E6747A018B954F8626D87A05CA9769A7555712221 00000000100cbe78     guideXOS.obj
 0005:00025eb8       __Str_Thinking_Machines_Corporation_51BEA04739E6E869676910D652F3C7273FD095C468108A6C2F8CFCB55D815958 00000000100cbeb8     guideXOS.obj
 0005:00025f08       __Str_Third_Millenium_Test_Solutions_2F65DE7BDC802AF079FD04EA9E4884D3758C07440ABDF71760BD3FA4D3CC1B5D 00000000100cbf08     guideXOS.obj
 0005:00025f68       __Str_This_action_CANNOT_be_undone__81953CC4B44328318F1365B322322C0ADBB7344A7FD21369C415AC103EC03757 00000000100cbf68     guideXOS.obj
 0005:00025fb8       __Str_This_includes__27A7935638937A9E41AEC6077D0CFDA4736A4B8BBE6E5CABF9570BC5A6E58555 00000000100cbfb8     guideXOS.obj
 0005:00025ff0       __Str_This_indicates_a_critical_kern_04B6A533FEB1A8A0D049CBEFF622200C15099456EF0ECF73EDC1E9958CFC11AE 00000000100cbff0     guideXOS.obj
 0005:00026058       __Str_This_is_not_a_bitmap_291909945F55072867FF3DBA2BADB69361F3CB4DFD4D93D8B7A6557A14E80670 00000000100cc058     guideXOS.obj
 0005:00026098       __Str_This_timing_suggests__pre_exis_86BFB4E8AD51DE8196BA88426536E3971D5D4D39CDF40DC1E1D8D5534D6D0886 00000000100cc098     guideXOS.obj
 0005:00026108       __Str_This_window_demonstrates_GXM_G_6D0C426834F1BB3416D230331E1942443F7F85F7C14442DB11323429B8551419 00000000100cc108     guideXOS.obj
 0005:00026190       __Str_This_wizard_will_guide_you_thr_DF50B30AA690DC3E1DB1A4B4CE8649ED080D563A63BCECC126F64B93F94C37B6 00000000100cc190     guideXOS.obj
 0005:00026218       __Str_Thomson_Video_Networks_968E42888B1335364D347BB33E62A41614B03C78426BEE75331F8CCB07DD57FE 00000000100cc218     guideXOS.obj
 0005:00026260       __Str_Thomson_CSF_TTM_D37E020DCBAD6F0FA08063B26933A26FDE7B9C2B38459BB04BE75C172C4619DB 00000000100cc260     guideXOS.obj
 0005:00026298       __Str_ThreadPool__Check_for_corrupte_839943C9EBA87AD2AF07AC5D0AEBBB677881536992114B194FE362401C497BF9 00000000100cc298     guideXOS.obj
 0005:00026330       __Str_Threads__C9ED67090C9210A0B90CA4A9B18AADA83B6237CCB28054A0F65B2BEA6EA8635A 00000000100cc330     guideXOS.obj
 0005:00026358       __Str_Tiger_Jet_Network_Inc_05D3C71EAB1F7262E61AE50F7EDC114554955322A0DD9BEF689F5EBC50416096 00000000100cc358     guideXOS.obj
 0005:00026398       __Str_Tilera_Corporation_1405627375ED72316C4BD3BC48ACAF41FF4BCCEAF7D604164158323E3F76A526 00000000100cc398     guideXOS.obj
 0005:000263d8       __Str_Timeout              00000000100cc3d8     guideXOS.obj
 0005:00026400       __Str_Times_N_Systems_Inc_6A456980FDED477AE3650AD8A4B6D7F9C7E21CFE736292FC63890BB06263CF6C 00000000100cc400     guideXOS.obj
 0005:00026440       __Str_Timestep_Corp_58D4B924A191E57322E72AEBA1BE2EE47ECDCD5DF9EB536A20D05DC91605AAC4 00000000100cc440     guideXOS.obj
 0005:00026470       __Str_Timing_analysis_unavailable_3AE125C4E0FD204249F37B0AFFCAA49E84882050FC756E7F2ABEBED17E7EA968 00000000100cc470     guideXOS.obj
 0005:000264c0       __Str_To_ping_a_hostname__50757C7D777E9F774E31D340D8D5F8550A17309965CF04BB9CEE1968A6636FFD 00000000100cc4c0     guideXOS.obj
 0005:00026500       __Str_To_renew_your_IP_address__use__3961FFB05518F317D976B054F9FF9075E5B358F0205B8193A0F3A7A3710C1B95 00000000100cc500     guideXOS.obj
 0005:00026590       __Str_Tokai_Communications_Industry__603022281DBAF47A4BB707F34E35D6F55A2D4F8E0BDC6F13D850DCB5F0FDF109 00000000100cc590     guideXOS.obj
 0005:000265f0       __Str_Token___BCC59BA44825C59766F4C0FBC542B7C7F0B789DF31F29E6C821476271169AA02 00000000100cc5f0     guideXOS.obj
 0005:00026618       __Str_Tokimec_Inc_7BFF846364E60BAFF1C2CB3678D8FA55259076D8509FFBC897E82625ABEE9706 00000000100cc618     guideXOS.obj
 0005:00026648       __Str_Tokyo_Denshi_Sekei_KK_D7007367FD6806F1BE06F00E2E99943A45AD9FEB54976100DDB38665B79745FE 00000000100cc648     guideXOS.obj
 0005:00026688       __Str_Tokyo_Electron_Device_Ltd_0DF6BC3B5BE6780BEA4B50DB608917C804A8EBDA5FCC9DC8A377CDBAF14216E8 00000000100cc688     guideXOS.obj
 0005:000266d0       __Str_Tokyo_Electronic_Industry_Co_L_893FC5AB3FBF9498450D2EAD4923C1DDC37BA9C9FA76A2DBD9FE496C88BCC966 00000000100cc6d0     guideXOS.obj
 0005:00026728       __Str_Tombstoned           00000000100cc728     guideXOS.obj
 0005:00026758       __Str_Tombstoned_Apps_8A8860FA6F9ED7C7E0ECD5A2B48469F44827AB29A86E735BB8B12A2CA5D7FB19 00000000100cc758     guideXOS.obj
 0005:00026790       __Str_Tool___0____Size___1_px_793955898602CD9BCEA993CE0E98A5145CD27696163EC96E080C918942CCA450 00000000100cc790     guideXOS.obj
 0005:000267d8       __Str_Top_owner__E804E5CE3597ACD5292D4CA413D45106D93381E6A2748361ACA93C70A1FCBFEF 00000000100cc7d8     guideXOS.obj
 0005:00026808       __Str_Top_tag__4DC0168F4F154E88DBCE862FC38CEF879F926EA866431BD8C7F32DF0345EE47F 00000000100cc808     guideXOS.obj
 0005:00026830       __Str_Topic_Semiconductor_Corp_D350A2F02D1293FCD496F1BCE458D11850B94F10056B6AE1AE3D97DCFFF9D216 00000000100cc830     guideXOS.obj
 0005:00026878       __Str_Topstar_Digital_Technologies_C_5F073D32A6A86F0D90FA48709B454862E492DC98AB90D2538FC4668EE251E8D5 00000000100cc878     guideXOS.obj
 0005:000268d8       __Str_Toshiba_America_3836F7189AD3487EAB65243979015B644188D5D15FC7AC0B4111F298455BA47C 00000000100cc8d8     guideXOS.obj
 0005:00026910       __Str_Toshiba_Bluetooth_RFBUS__RFCOM_B9052C49DFC95FD597ECFD2055C2123C22B1268A3389C7B399A95CF54CD20784 00000000100cc910     guideXOS.obj
 0005:00026970       __Str_Toshiba_Engineering_Corporatio_882F870ECD5848C30B7602507FFD81F36C1DF6E0F2DCB5A3E13627ADE2939877 00000000100cc970     guideXOS.obj
 0005:000269c8       __Str_Toshiba_corporation_4680BA2BC20EA730D7C24C48C94E5D2F0890080DAEF9BDECA5F5DDD8147FED99 00000000100cc9c8     guideXOS.obj
 0005:00026a08       __Str_Total_Free___Calls__CF0CC77EF4C9588F859BE53D0CAD9680C2F3E110169458A69125F4ECB3F62F9B 00000000100cca08     guideXOS.obj
 0005:00026a48       __Str_Total_Heap_Size__FE445C9187AF7CE99241EDC33375A3F496C80C1153A869F5ADDC3CC890288D4D 00000000100cca48     guideXOS.obj
 0005:00026a80       __Str_Total_Size___39D3C0593779754C69B677B62221D76D9D51952731966DD9E05B1B3D7167E660 00000000100cca80     guideXOS.obj
 0005:00026ab0       __Str_Total__A6F82CEF8171C70920AA5B5A552BDCE5BD93E14DA25FB1263B892B50DB660694 00000000100ccab0     guideXOS.obj
 0005:00026ad8       __Str_Total___E42F52ECDD314E6A6973C37152A673284C417B383A72342599192D8319AA8236 00000000100ccad8     guideXOS.obj
 0005:00026b00       __Str_Tottori_Sanyo_Electric_Co_Ltd_70E62B98B4DDFB9287F37F362C364718EE203A82ADD26BA6D0D26B51D5301943 00000000100ccb00     guideXOS.obj
 0005:00026b50       __Str_Toucan_Technology_6E8B4A5CCCDCB29ED323E5F7DDEB0C45C7237702B3A9A5E380264B769BA64221 00000000100ccb50     guideXOS.obj
 0005:00026b88       __Str_Toyota_MACS_Inc_AB6E191CDB816585046FABCB724D74DD9459E60741FA7FB4EFACB27876F9AC8F 00000000100ccb88     guideXOS.obj
 0005:00026bc0       __Str_Trancell_Systems_Inc_A272178F15BEA61EDE903B8DE634A4A7E35CADB93F701CD0B403CCCE781EA925 00000000100ccbc0     guideXOS.obj
 0005:00026c00       __Str_Transas_Marine__UK__Ltd_CBFADAEC5065EBA675D74CA952A818EAD6D23C2667D10DBF342E93215B54B029 00000000100ccc00     guideXOS.obj
 0005:00026c48       __Str_Transfer_Encoding_4444D1E395BBBA638B091E14A965CBC84EC617AA0F03A479C9277AF38C5F6ACC 00000000100ccc48     guideXOS.obj
 0005:00026c80       __Str_Transfer_Encoding__370D65F72D523CC166FEC3D758E8A1F5483F3250DA3BC813734BBE466C4D5BD2 00000000100ccc80     guideXOS.obj
 0005:00026cc0       __Str_Transition_Networks_7B26EB33F125B44AD891069ABE44C70755EDFBAE7D64354E579639EEAFCD64DD 00000000100cccc0     guideXOS.obj
 0005:00026d00       __Str_Transmeta_Corp_B83D1CC477C78DAA6905A711FC8E1258B62258CF04BA5392C8A4AC1A5C0D4E5F 00000000100ccd00     guideXOS.obj
 0005:00026d38       __Str_Transtech_Parallel_Systems_21C29C278B6219AC40A4A785D9596852F2361C6A4A465FB4162A97F53319DE5F 00000000100ccd38     guideXOS.obj
 0005:00026d88       __Str_Transwitch_Corp_E2250C3637E8B6A210ED6AE9CF023294E4D2898335474ADC23115563968AE83C 00000000100ccd88     guideXOS.obj
 0005:00026dc0       __Str_Tricord_Systems_Inc_88D2A2D7F1AF37D55A5C201D57C086CCA1909EF5129CBBE7C128CAFA5D7B3E41 00000000100ccdc0     guideXOS.obj
 0005:00026e00       __Str_Trigem_Computer_Inc_AEC24001ABE21AAA943084875DC98EFE0669E59F474027A3CC70E422920D8B30 00000000100cce00     guideXOS.obj
 0005:00026e40       __Str_Tripace              00000000100cce40     guideXOS.obj
 0005:00026e68       __Str_Tritech_Microelectronics_Intl__25CCB2798199246CDE32A20E7DEDDFBE063298E6AB14826E98643E891D0386A8 00000000100cce68     guideXOS.obj
 0005:00026ec0       __Str_Triya                00000000100ccec0     guideXOS.obj
 0005:00026ee0       __Str_Troika_Networks_Inc_ABEEFE155601C3DAC9794746D609BEB2A914AD388731AFF8CC99BF346E71E29A 00000000100ccee0     guideXOS.obj
 0005:00026f20       __Str_True                 00000000100ccf20     guideXOS.obj
 0005:00026f40       __Str_TrueTime             00000000100ccf40     guideXOS.obj
 0005:00026f68       __Str_TrueType_Font_Rendering_Test_88CA7726C253E380870F2F4F3E622F1FBD1FE9C91E92EB25D6324AE1614A5D02 00000000100ccf68     guideXOS.obj
 0005:00026fb8       __Str_Truevision           00000000100ccfb8     guideXOS.obj
 0005:00026fe8       __Str_Tseng_Labs_52BA334E4679A8FDBB757E20D09FC618FE42B7D794E2D0A2A86BAEEF2AEBFB3E 00000000100ccfe8     guideXOS.obj
 0005:00027018       __Str_Tsenglabs_International_Corp_59D4EA7AF53D55BA0822057D071E8FBBD6CEB0B98ECAC0BC7E2B2FF4A13C1A3F 00000000100cd018     guideXOS.obj
 0005:00027068       __Str_Tulip_Computers_Int_l_BV_BAC3234A9CFDC00D4A9ECE5D7872AFE9F748445B14068B68D81EE1DEDEC0E4BD 00000000100cd068     guideXOS.obj
 0005:000270b0       __Str_Tundra_Semiconductor_Corp_B414E8A4815E5FE7F6130A00B5CE41ADBE6006A0A5A1A0C257EC1C73FF59A0D8 00000000100cd0b0     guideXOS.obj
 0005:000270f8       __Str_Turbocomm_Tech_Inc_B6608771CFFF31139B0B06E101E9EF90EC01137EC25B3E8FDEB7C18A4D3BB614 00000000100cd0f8     guideXOS.obj
 0005:00027138       __Str_Tvia__Inc_6DCCF6076D8FD17174CDC91971BBC337B675909403FE0A356A42DF939954C2C9 00000000100cd138     guideXOS.obj
 0005:00027160       __Str_Twinhead_International_Corp_4DB79330E88ACC5013F6913D2723EFB48A93B15D9D855AE46F3D783BDFC88F73 00000000100cd160     guideXOS.obj
 0005:000271b0       __Str_Tyan_Computer_BC467D76E7B711D56CF31EDF7E2C2079E6F8CFB25D09978CB3F59D93E6639CBC 00000000100cd1b0     guideXOS.obj
 0005:000271e0       __Str_Type                 00000000100cd1e0     guideXOS.obj
 0005:00027200       __Str_Type_help_to_get_information__C18FAE548B269EE6FA6FA61216C29C1F1053FE536B536036D1218650B54073B3 00000000100cd200     guideXOS.obj
 0005:00027250       __Str_Type__Attempted_to_execute_inv_2878E58CEF609F67C82A875823E9182AC1AB65D3A17850B57B5DD060C20F8323 00000000100cd250     guideXOS.obj
 0005:000272c8       __Str_Type__Division_by_zero_or_over_E2641062133F0CDDB83E0FD0D70EB57851808402BE40ACCCA5B21EDDD0C03F71 00000000100cd2c8     guideXOS.obj
 0005:00027328       __Str_Type__Exception_occurred_while_49AE653219605DC55BDAD9C53E18D74FF150A63A863F903EEB9A7D12651B2C30 00000000100cd328     guideXOS.obj
 0005:000273b0       __Str_Type__General_Protection_Fault_B1FD6A239EFEB40F9A3AB43603F24E219CC9F0633774CAC7D3DF8F153F5E47B4 00000000100cd3b0     guideXOS.obj
 0005:00027408       __Str_Type__Invalid_Memory_Access_8748E9AFFDFAB0C75C565C11F217951925216E5B47D5889581A6D41AF60E84ED 00000000100cd408     guideXOS.obj
 0005:00027458       __Str_Type__NULL_POINTER_DEREFERENCE_2DAA7C2C1B6AFF6647CCA968BDF916832DFE3778D17CCFBB1A7520001FCEB116 00000000100cd458     guideXOS.obj
 0005:000274b0       __Str_ULSI                 00000000100cd4b0     guideXOS.obj
 0005:000274d0       __Str_UMAX_Computer_Corp_15ECE37FBB7F934A06D6818FCAC95FFCC8B65AD9CBFB572BE7CEE5194CE19ABD 00000000100cd4d0     guideXOS.obj
 0005:00027510       __Str_UNKNOWN_EXCEPTION__0x_0_X2___2EDB48DF6D5C09C28C0A218388774933BF4D640AEB1C40B01C3ACBDC177A017F 00000000100cd510     guideXOS.obj
 0005:00027560       __Str_UPEK                 00000000100cd560     guideXOS.obj
 0005:00027580       __Str_US_Robotics_373FE96484B700AF05F2D3695CF27CA5A1F548B96193E3DDE80D3D28C06A8A1D 00000000100cd580     guideXOS.obj
 0005:000275b0       __Str_USB_Disk__0___Removable__AF0556F8787D96E69FE4E5480F83B4426A29E767E068A00AA6C9546FF966A69F 00000000100cd5b0     guideXOS.obj
 0005:000275f8       __Str_USB_Drive_E8B5FE80E6D2EBAB787940720F8F3EA80A5D66EA3E534577298F9D083F6D6201 00000000100cd5f8     guideXOS.obj
 0005:00027620       __Str_USB_Drive__7DAA0672B117B0DC4A181F2B430DB37150E27AC43A4DDC331920EF5C571BB6AD 00000000100cd620     guideXOS.obj
 0005:00027650       __Str_USB_Drives_7EBFA2359E5E46C85C5155259638457A2E0DCB2536CA4121E705329831AB3BAE 00000000100cd650     guideXOS.obj
 0005:00027680       __Str_USB_Files_55F6D8B51E133CCE52A610060B541E62A105DA6FD4D5172C2206F613AD445148 00000000100cd680     guideXOS.obj
 0005:000276a8       __Str_USB_Files__Read_only__3D87C66E64F1184C747422DF5E3D11E8DDF2ED7E39B01C0EE30540E8F13B478B 00000000100cd6a8     guideXOS.obj
 0005:000276e8       __Str_USB_Mass_Storage_81DB3ACACA24CC2942B0E4BD27403899A7F99B40D4B21BE304B5C49668AF54DB 00000000100cd6e8     guideXOS.obj
 0005:00027720       __Str_USB_Rockey_dongle_from_Feitain_62660E80E929600AD8752C87A5ED83D0A948E702B454DDB4ABBC71B3181828A4 00000000100cd720     guideXOS.obj
 0005:00027778       __Str_USBPDO_8_5A20CA66986AF0D81E16D536ABDADF5C9672A81D43DD007B0EC452A93E2A0508 00000000100cd778     guideXOS.obj
 0005:000277a0       __Str_USER                 00000000100cd7a0     guideXOS.obj
 0005:000277c0       __Str_USER__4E858FDD67CCE46670E50788AA25AC4C431824650D540DFF0A127F525F845304 00000000100cd7c0     guideXOS.obj
 0005:000277e0       __Str_Ulticom__Inc_94F09F19FA08538A5EEC6FF361F0A40C838E32BF7AC537CA6F59BA39FD78C014 00000000100cd7e0     guideXOS.obj
 0005:00027810       __Str_Unable_to_read_file_33BF5B9E439037637AE41438B2F5A939C8CAFF3E6B9EDB6AC639E45073ECC54E 00000000100cd810     guideXOS.obj
 0005:00027850       __Str_Unassigned_class_3438A70C9C32CC0D9B52849C5BA0A02BD16E5C15D0EE23DCB0773C02F4358DC3 00000000100cd850     guideXOS.obj
 0005:00027888       __Str_Unclassified_device_293A06007DB6E3FF8BDB75B7789813E2950A0DF57C78FC3F0C5FC55199E7E7CD 00000000100cd888     guideXOS.obj
 0005:000278c8       __Str_Undock               00000000100cd8c8     guideXOS.obj
 0005:000278f0       __Str_Unex_Technology_Corp_5F02BD1A40D214A329F58253B20F60C1E67742D4EF886EE77EBD52089D640F67 00000000100cd8f0     guideXOS.obj
 0005:00027930       __Str_Unibrain_SA_0CC7EAD05888E6BF7C8BB30FC5E6AC325070FE7C4CB877FFD1607939C32450BB 00000000100cd930     guideXOS.obj
 0005:00027960       __Str_Unisys_Corporation_BED9E38A994EB884E8B3BDE3DA0B520571B64F507B12E16C800E3D69984109FD 00000000100cd960     guideXOS.obj
 0005:000279a0       __Str_Unisys_Systems_DC83079D9ADA7C1F495BD62D65516B295CBEC62CC9513B9D27E1DDB0CE741CD9 00000000100cd9a0     guideXOS.obj
 0005:000279d8       __Str_Unitec_Co_Ltd_34CC9E6BECFA86B1AD4E59239AC122AE5CFCA3C218556C1285347D42C2CA0976 00000000100cd9d8     guideXOS.obj
 0005:00027a08       __Str_Unitech_Electronics_Co__Ltd_EC359E09FDC72B4CEE279A175BDD8D38F24BD1FE160FB902703D44675F414365 00000000100cda08     guideXOS.obj
 0005:00027a58       __Str_United_Microelectronics_931F92C89BDDF9462B7A1EC78E2D656977645EA9962AFEB9F1312E99B1572096 00000000100cda58     guideXOS.obj
 0005:00027aa0       __Str_United_Video_Corp_5C35FC18CF5C5D53F357C98FA72F32D01401B9D9BD963F9C78822E31E5C69323 00000000100cdaa0     guideXOS.obj
 0005:00027ad8       __Str_Universal_Scientific_Ind_48F27A200E832E3BB847BE3509DCCA0AFC9994E6BEC9E9CE28DA31D7906B69BE 00000000100cdad8     guideXOS.obj
 0005:00027b20       __Str_Unknown              00000000100cdb20     guideXOS.obj
 0005:00027b48       __Str_Unknown_class_4B7857763F894747003295A221415AD4AFD368AF8E5A40B845D37FACFC8BC912 00000000100cdb48     guideXOS.obj
 0005:00027b78       __Str_Unknown_command___F5455D59591A51EBFA335125DEE2902B7116252639BAF789B16AD5315D814184 00000000100cdb78     guideXOS.obj
 0005:00027bb0       __Str_Unknown_parameter___8661CD05699244FEAF1B0CB5794C50C737D283E6CAB841F23BBEBDC5E63E131D 00000000100cdbb0     guideXOS.obj
 0005:00027bf0       __Str_Unknown_seek_6915F0E145DDA6C273E76A37B7F0C9F7EAAC8EB75579601E750090FCF77B667D 00000000100cdbf0     guideXOS.obj
 0005:00027c20       __Str_Unlock               00000000100cdc20     guideXOS.obj
 0005:00027c48       __Str_Unsaved_changes_F4971E176FB63707895C99D0CE3BFD06EE32A9D20FA70D57E34CFA5E69B3A314 00000000100cdc48     guideXOS.obj
 0005:00027c80       __Str_Untitled             00000000100cdc80     guideXOS.obj
 0005:00027ca8       __Str_Up                   00000000100cdca8     guideXOS.obj
 0005:00027cc8       __Str_Up_Level_80B0D0B7FB094D998831C9E53862B340F2482A79106B32A3C2DAF6AA66E28C3C 00000000100cdcc8     guideXOS.obj
 0005:00027cf0       __Str_Up_one_level_FA8C73EC942858991ABE50C2EA8B0F6CA1AC34C37759E61D1CC090B13868CCAF 00000000100cdcf0     guideXOS.obj
 0005:00027d20       __Str_Update               00000000100cdd20     guideXOS.obj
 0005:00027d48       __Str_Uptime               00000000100cdd48     guideXOS.obj
 0005:00027d70       __Str_Usage___join__channel_B82E10986A6965D29E994A7FD620C3C9F8D45F4F4622157076E345A5A4E62244 00000000100cdd70     guideXOS.obj
 0005:00027db0       __Str_Usage___nick__name__B2933783CFCF7BBEA9E166F926E4C748820C0753D5991C3AB6D1C1F1DE9B826D 00000000100cddb0     guideXOS.obj
 0005:00027df0       __Str_Usage__authlogin__username___p_2712304A6471F8DDBA7BC99E45F53CBD4DE85964E9B2AE01D9F9DE7671B740A9 00000000100cddf0     guideXOS.obj
 0005:00027e58       __Str_Usage__authregister__username__D22498FAB18B57297C7AC87B319E42A099721F61F9A3F8594D4D655C1BF348CA 00000000100cde58     guideXOS.obj
 0005:00027ec0       __Str_Usage__authurl__http___host_po_CFFE964D12B10B29D3411A805520FBA10464AE4F667357C9C2EC784FEEA7EB9C 00000000100cdec0     guideXOS.obj
 0005:00027f18       __Str_Usage__cat__file__299DC1A2AF416917413C83AB89F4A09C66F58B9A992290065D623C7207C96C32 00000000100cdf18     guideXOS.obj
 0005:00027f50       __Str_Usage__cd__path__026D36C28AC045BA4B010E9083124DA58DC1B5A9D647994260DDB21B6F9BCFF8 00000000100cdf50     guideXOS.obj
 0005:00027f88       __Str_Usage__dns__host__4BEE249F851D78FAB86B93D5BB7FB61F163E2DB63167D21EF831EB4EB7174669 00000000100cdf88     guideXOS.obj
 0005:00027fc0       __Str_Usage__fwadd__program__DA4B08CA54BA51B7821F6D0A4510F334E051FF36B160A8353533188CBCBF67CB 00000000100cdfc0     guideXOS.obj
 0005:00028008       __Str_Usage__fwmode__normal_blockall_1E46F5FD43C022FED36BC1A96F09840679237B78B093042F139DE81109BA07D8 00000000100ce008     guideXOS.obj
 0005:00028088       __Str_Usage__gxminfo__file_gxm__EAAA745938FF5A9C68E0FB8AF9FB072645AF143754E7CEF4792968A9646373BE 00000000100ce088     guideXOS.obj
 0005:000280d0       __Str_Usage__ipconfig___release____r_A77EE83BF8F3DF5DA281E7F854BC2B805A1C8BCDDC898EADA633066384FA6E94 00000000100ce0d0     guideXOS.obj
 0005:00028130       __Str_Usage__launch__appname__826DDA9C843D0C076ACC4C8E1C409682B9C40B0D8B09986E0BE658887F297D00 00000000100ce130     guideXOS.obj
 0005:00028178       __Str_Usage__launchscript__script_tx_F0DF900F06F87EBE4EBF0C1A569CC9CFC033D9F0EC49D88D701166DB266C42DB 00000000100ce178     guideXOS.obj
 0005:000281d0       __Str_Usage__mueinfo__file__A268166FF33CDC970AD5EAADD337F6B8A07C2D295C460AF6C57106E48376BE44 00000000100ce1d0     guideXOS.obj
 0005:00028210       __Str_Usage__notepad__file__1DB6325951D16CFD08AA6B65F4677F3EF4BA6D6A3C18493C9386C22935D54A99 00000000100ce210     guideXOS.obj
 0005:00028250       __Str_Usage__ping__ip_address__8A9C5D2258F59D189D1A9848D4748F094D4F11A01BA4536D81A54693D49342AC 00000000100ce250     guideXOS.obj
 0005:00028298       __Str_Usage__setbg__image__2BF568921261CEFEE5723A73B9FE8A56E7FDFEC5DB7C24802DEA1E3FB5203A27 00000000100ce298     guideXOS.obj
 0005:000282d8       __Str_Usage__vi__file__B4C1D8A8FF35C2C90EE12895B622887DEB9753B3976FACA4D62E40F316BBD454 00000000100ce2d8     guideXOS.obj
 0005:00028310       __Str_Use__apps__to_see_available_ap_2A9B4FD0DE140DB05B9FF81EC05BA2D7235745AB14C1416AFCA43D9C0C186BA6 00000000100ce310     guideXOS.obj
 0005:00028378       __Str_Use_the_following_DNS_server_a_6B31F1FB1DF1717835CF854C8E681575FA951FAC7A8BF60393887DC165965AF0 00000000100ce378     guideXOS.obj
 0005:000283e0       __Str_Use_the_following_IP_address__8D02A9E352D90111929F01E112E03D3EAE38B7E01E47C2B5C9AB838C68DE0E57 00000000100ce3e0     guideXOS.obj
 0005:00028430       __Str_User                 00000000100ce430     guideXOS.obj
 0005:00028450       __Str_User_Agent_1387B5888B76FDD8F1A4D0728155D0A8ED0FAF06C8FD9AC9D03550DF5952CEC8 00000000100ce450     guideXOS.obj
 0005:00028480       __Str_Utilization__49E885E46077102F6980865678E4625BFCE393AD13A14EC114753EF3C9EE3BD2 00000000100ce480     guideXOS.obj
 0005:000284b0       __Str_Utimaco_Safeware_AG_D39E08774C4D3986CA38540611AE14A6F17E31862FA53113116F4DA8BC8C35DD 00000000100ce4b0     guideXOS.obj
 0005:000284f0       __Str_VIA_Technologies__Inc_12D6C1D93EE070169281A4BCA2A938E4D60AF38C0DDFEB620C6091EA35595D73 00000000100ce4f0     guideXOS.obj
 0005:00028530       __Str_VIRTUALIZATION_EXCEPTION_73C400AA3DAD0A1DDF7B717BA7E9E1AA8B4ACFFCE7860711E160EE9FF926195F 00000000100ce530     guideXOS.obj
 0005:00028578       __Str_VLSI_Solution_OY_11F978A43B9462F0EBEB6B4E702E052F00EEAA9189C711E11A38111B01B2C445 00000000100ce578     guideXOS.obj
 0005:000285b0       __Str_VLSI_Technology_229FBA1A4D28909FAA48277B689A1F447046291F0CC3CAF82B507B81846E72B2 00000000100ce5b0     guideXOS.obj
 0005:000285e8       __Str_VM__0__AC__1__VIF__2__VIP__3___9F4E8633B5362EED1FF67AB1E53B90428D5E109F59B70B99695FD932D5F68098 00000000100ce5e8     guideXOS.obj
 0005:00028648       __Str_VMIC                 00000000100ce648     guideXOS.obj
 0005:00028668       __Str_VMware_Inc_682E8211D46A60EF16AAB433A48843AFB6DB382CB1ADE7E9C9932C6A6C57F01C 00000000100ce668     guideXOS.obj
 0005:00028698       __Str_VSN_Systemen_BV_DFBCCCBE7640BBDBA6A9B4066080E8D67D259EE8E2D451637CCCE83454992150 00000000100ce698     guideXOS.obj
 0005:000286d0       __Str_Vadem                00000000100ce6d0     guideXOS.obj
 0005:000286f0       __Str_Validity_Sensors__Inc_23D924256E2CF27DD36A506E85DC7D0A8CB6D05CA7ABEC734DF2209A664FE5F5 00000000100ce6f0     guideXOS.obj
 0005:00028730       __Str_Valley_Technologies_Inc_A275B43E80F2C34E598A8FB2B60AE6727816BDC67F2AB679152471527F16028E 00000000100ce730     guideXOS.obj
 0005:00028778       __Str_Valuesoft            00000000100ce778     guideXOS.obj
 0005:000287a0       __Str_Varian__Inc_4DA03A613D280F4CE71996E3BF7F72FD76AA9906E98B15E556CE86EE09B68BA7 00000000100ce7a0     guideXOS.obj
 0005:000287d0       __Str_Varisys_Limited_E7CE56ADF1F7DA2217E4887A640D9EE66F54B35B301501B9DDD1107B88504836 00000000100ce7d0     guideXOS.obj
 0005:00028808       __Str_Vector_Informatik_GmbH_8188D0B02B8CEA78560B945B02497EE4FC1D71D8F5EB067C1F0B20CAD7B969B0 00000000100ce808     guideXOS.obj
 0005:00028850       __Str_Vela_Research_LP_2CD3983946D260BBCB65B56EBF2B1FCDFBC6DF59476DC92F76A5DF5C0B724617 00000000100ce850     guideXOS.obj
 0005:00028888       __Str_Vendor_10EC_Dev_8168_8169_D5FFF592D85D329F57B9BED10F0DDD56ECD9CCBD0E047221602544EE6DEF00F6 00000000100ce888     guideXOS.obj
 0005:000288d0       __Str_Vendor_1274_Dev_1371_A2196FB9362B9A6038EEE48D9DAEAAD33AC8ECDE23A5232638B7A916B07C6FD3 00000000100ce8d0     guideXOS.obj
 0005:00028910       __Str_Vendor_8086_Class_02_1FB34B964C7C8AF280A345ADF475D393E8A4EA83E72ED53989070B21F2635A31 00000000100ce910     guideXOS.obj
 0005:00028950       __Str_Vendor_8086_Dev_2415_E926B9841A54816358CF6FA3E8152B075D2AB47F16D44F3961F6812A33D6F49D 00000000100ce950     guideXOS.obj
 0005:00028990       __Str_Verisys_Inc_025473EA3492D17A326B9CA4A9EBBBA60B06ECCE2E65DC8722C56F77DDBDA595 00000000100ce990     guideXOS.obj
 0005:000289c0       __Str_Version__0_2_EF40122D25BE25F0CA3FCAA9AE1160CE365CD77ABD4C52FEF06E133A68410495 00000000100ce9c0     guideXOS.obj
 0005:000289f0       __Str_Version__0_2_UEFI_74A1B3062DA2C2EFC50496CE23ADB08F78CFFD316C4C9EDFAE26ECDA608FA5FC 00000000100ce9f0     guideXOS.obj
 0005:00028a28       __Str_Version__0__EntryRVA_0x_1_X8___1CAB6092F3CF4D2C8A3A9970A2C5A1A418FE628DB5742B90A36DFC0A8DF4D413 00000000100cea28     guideXOS.obj
 0005:00028aa0       __Str_Vertex_Networks_Inc_8A5B43AC5544493D8298692A7947C32835E023D1919534FE27A298CD2D796E12 00000000100ceaa0     guideXOS.obj
 0005:00028ae0       __Str_Vetronix_Corporation_Engenhari_D7CAD9CFBA0F2FD6D4F3492580C4FCCCFA964CD618244299919D73347FFD4E44 00000000100ceae0     guideXOS.obj
 0005:00028b40       __Str_Victor_Co_of_Japan_Ltd_3EC386611D05BE36E45A29031A65AB491DA02B5C4AF4F379EFAD59F3A4B96B4E 00000000100ceb40     guideXOS.obj
 0005:00028b88       __Str_Vidac_Electronics_GMBH_EB89265CAB0BA9C89130FE460FD3ECBD4337A1D2306BA6F394569E45B94EEEDC 00000000100ceb88     guideXOS.obj
 0005:00028bd0       __Str_Video_Logic_Ltd_9D863337758FFC8BE413D6E1FAB65CD06EC6EE0892BD5AD24D2C5192AF98433D 00000000100cebd0     guideXOS.obj
 0005:00028c08       __Str_VideoTelecom_Inc_DBCCC095D3E8ADC2941B1C00048AFEB36B6794639A8447F20489ACA5032C2713 00000000100cec08     guideXOS.obj
 0005:00028c40       __Str_Videomail_Inc_81BC9699B5D6A976ADA4D42816DDF983169EF942C416514F842C7139204B527F 00000000100cec40     guideXOS.obj
 0005:00028c70       __Str_Videotron_Corp_70EAA7EAABE322B80BF7797CF7A79ADABBD7B76F14281620E1482E9B689236F9 00000000100cec70     guideXOS.obj
 0005:00028ca8       __Str_Vienna_Systems_CECEBF1891A467DD9479240B41D4FAD6989093459B94442429D674904948E65D 00000000100ceca8     guideXOS.obj
 0005:00028ce0       __Str_Viewcast_Com_21B4FD57F9B07FD8B890685E4DD2DAA9EB8023AE9A794E5DD6B452003C293DEE 00000000100cece0     guideXOS.obj
 0005:00028d10       __Str_Viewgraphics_Inc_4B1C913CC0E23072ACB590DF3F2AE132E263F1B34E6D8AE2A701B6A1769ACFF5 00000000100ced10     guideXOS.obj
 0005:00028d48       __Str_Vingmed_Sound_A_S_D975D27077141769EB83DE42060D6AB4ED89D4DE02C12DEDC5D894914A153808 00000000100ced48     guideXOS.obj
 0005:00028d80       __Str_Visicom_Laboratories_Inc_401AFF2C906ACF2EDD4A5813DA17395B705F48EE4127935374239B565E289789 00000000100ced80     guideXOS.obj
 0005:00028dc8       __Str_Vision_Dynamics_Ltd_BA20311A1D6DC8BDC6001B927AB5A6164C82BA559FF73A6D131C32D206FBCC31 00000000100cedc8     guideXOS.obj
 0005:00028e08       __Str_VisionTek            00000000100cee08     guideXOS.obj
 0005:00028e30       __Str_Visionglobal_Network_Corp_80DCDDE231447616665F7BC3AE55ACBCA8D739AE1D79D7F1E1D893BC80B435A6 00000000100cee30     guideXOS.obj
 0005:00028e78       __Str_Visiontech_Ltd_06E0199C8262B322AD1789B900F9CA82EC8CABC0F9B67BEE871701CC05A219E4 00000000100cee78     guideXOS.obj
 0005:00028eb0       __Str_Vista_Controls_Corp_8E650BC1A00F7E37D6DB942E2FA9C5AE8475CB156DA68F354EA9CFA05742514C 00000000100ceeb0     guideXOS.obj
 0005:00028ef0       __Str_Visual_Effects_5BF5C1E91D116835521111FF214950A40BF75B6730536AB9FE9EC0B32A80D2C8 00000000100ceef0     guideXOS.obj
 0005:00028f28       __Str_Visual_Effects___UI_Settings_0CC0D937B3619EED1808820FE75C22D95E9AC8F124FBE360CAD07D604E36653C 00000000100cef28     guideXOS.obj
 0005:00028f78       __Str_Visual_Technology_Inc_9979A64DA00D9B47DF89AE1B68DB1FF8475610766C3EB7357B30C142001F1E87 00000000100cef78     guideXOS.obj
 0005:00028fb8       __Str_Vitesse_Semiconductor_04BF45DB60B1712216C22CE8A122F5698510830D452FA0B7B8B2F793E6A6E116 00000000100cefb8     guideXOS.obj
 0005:00028ff8       __Str_Vivid_Technology_Inc_11A306BB37176FC4FA48173B5021F904C10F5E766AEFBDCC0D82C8A5ACBEA140 00000000100ceff8     guideXOS.obj
 0005:00029038       __Str_Voarx_R_D_Inc_EEED53A944FC3413E59BD3FDD5B11532488F284683FF3716A5A2D6023E6E11C4 00000000100cf038     guideXOS.obj
 0005:00029068       __Str_Voice_Technologies_Group_D6F9C4FE9D33FE1E2DCE322D3B41E94FA4CA40EA1AF8E036103BEFD2FE6E844B 00000000100cf068     guideXOS.obj
 0005:000290b0       __Str_Voltaire_Advanced_Data_Securit_5A28ACC81AF9201B2A1339D4BAAD1D4EA094B6426B4A12FD7295C5F3B153C0C6 00000000100cf0b0     guideXOS.obj
 0005:00029110       __Str_Volume               00000000100cf110     guideXOS.obj
 0005:00029138       __Str_Volumes              00000000100cf138     guideXOS.obj
 0005:00029160       __Str_Vtech_Engineering_Canada_Ltd_655575E7C74C2E3549C012E30B31D01BB3638AD0DE956AC38B972E992C66C098 00000000100cf160     guideXOS.obj
 0005:000291b0       __Str_WARNING__DHCP_renewal_may_take_BA7B132F16C7A7545C806A6CEA0ADE356986088B7C6227A34218C03C2ADF355B 00000000100cf1b0     guideXOS.obj
 0005:00029258       __Str_WARNING__Data_Will_Be_Erased_AD45AF107091EC3FE87BA38C39F3AC53AF979E82C6532080C1121FB0DC5718EC 00000000100cf258     guideXOS.obj
 0005:000292a8       __Str_WARNING__REMOVE_INSTALLATION_M_275212592E3E58DC84502825902AC3C2237ED58AFFD21CB57F0FEF775EC0B2AA 00000000100cf2a8     guideXOS.obj
 0005:00029308       __Str_WARNING__This_will_erase_all_d_2AD2B175C5D86CC0BBEF0D300360A02E1C8DDE253B95B8052955D902D5857AD9 00000000100cf308     guideXOS.obj
 0005:00029390       __Str_WAVPlayer            00000000100cf390     guideXOS.obj
 0005:000293b8       __Str_WINDOW               00000000100cf3b8     guideXOS.obj
 0005:000293e0       __Str_WIS_Technology__Inc_D0F65A35A437F23059D8A886FC71F5B93DD5371F54A0A5035D737A550D8340AC 00000000100cf3e0     guideXOS.obj
 0005:00029420       __Str_WMS_Gaming_FB2BBE7D44451708F0B33406A038ACDBABBC2FA5D2D5DCF26C83DAC6AB417C5E 00000000100cf420     guideXOS.obj
 0005:00029450       __Str_WRITE                00000000100cf450     guideXOS.obj
 0005:00029470       __Str_Waiting_for_network____679A2DDEF364311C06187AD6A337F1EAE887CD0B88F459701935663053DFCCB5 00000000100cf470     guideXOS.obj
 0005:000294b8       __Str_Waiting_response____FD5D9F1A82609623BF65959C00E23CEAB8594A3F0F99F2A6174E68F36229878F 00000000100cf4b8     guideXOS.obj
 0005:000294f8       __Str_Waiting_to_build___0__10_57FFE1F054F42F7390D0D12902FC70C1A44F23E923984F9AEB92729A10C3D98A 00000000100cf4f8     guideXOS.obj
 0005:00029540       __Str_Waldo                00000000100cf540     guideXOS.obj
 0005:00029560       __Str_Warp_Nine_Engineering_02A81D3E9C1B7386B6A4987EBFFFF709CC63F6AE8F38FE85EC27150D3E01157B 00000000100cf560     guideXOS.obj
 0005:000295a0       __Str_Warpspped_Inc_53E04FE1E21DFFFD64400679745BE540DE9D347E379F80EF88D092F86D52C27A 00000000100cf5a0     guideXOS.obj
 0005:000295d0       __Str_Web_Browser_CAD969C729AEDBAE5C7564539059F85D83522DAA0391D3BC303B634F61A90809 00000000100cf5d0     guideXOS.obj
 0005:00029600       __Str_WebBrowser           00000000100cf600     guideXOS.obj
 0005:00029630       __Str_Weitek               00000000100cf630     guideXOS.obj
 0005:00029658       __Str_Welcome              00000000100cf658     guideXOS.obj
 0005:00029680       __Str_Welcome_to_guideXOS_Installer_4CFCB3D7E8DB1E88C8A813ECFEFA01AFA7068924171CD1B98F0C984B90FC02D7 00000000100cf680     guideXOS.obj
 0005:000296d0       __Str_Welcome_to_guideXOS__this_is_a_5794EDCC0BC43C4465307F6748A59CD80D2BD56A20E4F598352B7655A493F129 00000000100cf6d0     guideXOS.obj
 0005:000297a8       __Str_Wellbean_Co_Inc_EF5CE58F388980A3F8C433B08912D4C9BA0566ABE3A14997E6BD7D9B744460B7 00000000100cf7a8     guideXOS.obj
 0005:000297e0       __Str_Western_Avionics_Ltd_519C27B6FBA7F374AD7D771FBB9B3859D9D9E3C6D57A8BC7EE3B23234DFC5368 00000000100cf7e0     guideXOS.obj
 0005:00029820       __Str_Widget_Animations_C260BB82EEC41DB6A5510E720DABC1851F8AC422193957399C8BC8B0AA82AE3B 00000000100cf820     guideXOS.obj
 0005:00029858       __Str_Widget_Fade_In_Duration__DBF9C451F04FCE1C7FFFDFD14868D640B2AFACD53C8A7DC1EF42A9C4788EE363 00000000100cf858     guideXOS.obj
 0005:000298a0       __Str_Widget_Fade_Out_Duration__FA4891EB75353910562A07C9BB308CA79080B8662D63BFDD2EE38E800F073CA0 00000000100cf8a0     guideXOS.obj
 0005:000298e8       __Str_Widget_Settings_2528AB718943FF437B70C1CFC10E479E08365BEC0BA1068B4AD4D8A9987021A8 00000000100cf8e8     guideXOS.obj
 0005:00029920       __Str_Widgets              00000000100cf920     guideXOS.obj
 0005:00029948       __Str_Width                00000000100cf948     guideXOS.obj
 0005:00029968       __Str_Wilson_co_ltd_6BCE6EE3D4FF2D1C731E71A83F4D6AFA6610D0772D8C8D432B0C2565B929E6C1 00000000100cf968     guideXOS.obj
 0005:00029998       __Str_Win_System_Corporation_06A520E5C72C387CD54E9B05C8C843884127DCACFA406B26CA781ABD2765CA84 00000000100cf998     guideXOS.obj
 0005:000299e0       __Str_Winbond_Electronics_Corp_BC4D0F1AE9B0D96B8220B448FBB55775155A6FFCB9DEEE056C918258A3C847A7 00000000100cf9e0     guideXOS.obj
 0005:00029a28       __Str_Winbond_Systems_Labs_A4D7299311F9319318CB6A5E6AAEE691AB454D7228F4C701B3906323022BEA53 00000000100cfa28     guideXOS.obj
 0005:00029a68       __Str_Window_Animation_Settings_E4504421C08A4DC6689C751000DC8720DBE22A3A4B5773F4A3017A8F45C6FF69 00000000100cfa68     guideXOS.obj
 0005:00029ab0       __Str_Window_Close_Effect__E8695D1EEE10D6B431E373550B7B14E946CDF7576741CDB48D82A33A2A4BC901 00000000100cfab0     guideXOS.obj
 0005:00029af0       __Str_Window_Open_Effect__459E124240094B5690B0B05E51898D4F3B791E9F902B2DDA15A4F320930A6E94 00000000100cfaf0     guideXOS.obj
 0005:00029b30       __Str_Window_Rendering_Settings_036D60FA4CAD81C43FBC81E3A2194650C8AA364B6A4E734EE31BD64C22A86269 00000000100cfb30     guideXOS.obj
 0005:00029b78       __Str_Window_Visual_Effects_0CE582D1B13F2DA712A8531341700D88CAD14F38E15F9C94D7BED240706B5CE2 00000000100cfb78     guideXOS.obj
 0005:00029bb8       __Str_Window_drawing_error_E217A85BE3FCC7BF0259D4E0D46A5E03D30815EADBE963805772FBB3E9F422F5 00000000100cfbb8     guideXOS.obj
 0005:00029bf8       __Str_Window1              00000000100cfbf8     guideXOS.obj
 0005:00029c20       __Str_Winnov_LP_39535126052355F52778CA010CE681BAE89D293212E397D2ACE2CDF95012C88E 00000000100cfc20     guideXOS.obj
 0005:00029c48       __Str_Wipro_Infotech_Limited_97BEA5927C048DF589F8F0BC5C0BE52CD620E069958E8ECE267A475A0F1A197C 00000000100cfc48     guideXOS.obj
 0005:00029c90       __Str_Wireless_controller_605A3306C38D6FA0F055AF63A70F50BDAFC00630C8D5EA4F23C1258CEC71CE02 00000000100cfc90     guideXOS.obj
 0005:00029cd0       __Str_Wistron_Corp_5C7BF13D304084F7742209B88AD736CE2A6F7F748073933685963C35FC817E09 00000000100cfcd0     guideXOS.obj
 0005:00029d00       __Str_Wolf_Technology_Inc_4A138CDB3E1AE8F7D45990F7965AE4C3CFF5B59E7D70D0F42AADCA65FE4C6A71 00000000100cfd00     guideXOS.obj
 0005:00029d40       __Str_Woodward_McCoach_Inc_9821744325B77D6058D28B36AD5158EA8F3A3D39EAEF2597CE79B7A71C8F3202 00000000100cfd40     guideXOS.obj
 0005:00029d80       __Str_Workbit_Corp_8ADFB57E0DEFB8C1370E4D32AC20F97E444CEA9EC43942A54E4CCCA97093BB2B 00000000100cfd80     guideXOS.obj
 0005:00029db0       __Str_Workspace__534468A49852D65D5A470F1E53F1F44C95B4C73E6B1DA427BA85CDF339C49C14 00000000100cfdb0     guideXOS.obj
 0005:00029de0       __Str_Workspace_switcher_opened_C5C9EAF4EE4C4140E8E546D9F78BD20D68344F044136F00547398FC76D179C4A 00000000100cfde0     guideXOS.obj
 0005:00029e28       __Str_Workspaces           00000000100cfe28     guideXOS.obj
 0005:00029e58       __Str_Worldspace_Corp_955A70DA6297FAF5ABE6CBCDC8144CC923D6D06AFCE692D2F344F5BB9EA597EA 00000000100cfe58     guideXOS.obj
 0005:00029e90       __Str_Wrap                 00000000100cfe90     guideXOS.obj
 0005:00029eb0       __Str_Write                00000000100cfeb0     guideXOS.obj
 0005:00029ed0       __Str_Write_speed__AA6B4A55BADFAC584C8C061D31FB0D925A161235533D8D9EBDCECA2E04096D7C 00000000100cfed0     guideXOS.obj
 0005:00029f00       __Str_WriteLine            00000000100cff00     guideXOS.obj
 0005:00029f28       __Str_WriteString          00000000100cff28     guideXOS.obj
 0005:00029f58       __Str_Written__EB8554CB527940F7DD50C69DFD1DCD0A578A0D342071887FD4C7A93508094B2A 00000000100cff58     guideXOS.obj
 0005:00029f80       __Str_Wyse_Technology_AF24FF872A217A024741AA621FF4AD3F25DFA0051495D9213757BE5E134C327F 00000000100cff80     guideXOS.obj
 0005:00029fb8       __Str_X_Net_OY_0FD55764E45AFBC22DAE05C2B2C7ABC528A989A886A008F181A541E353CA0F45 00000000100cffb8     guideXOS.obj
 0005:00029fe0       __Str_X16                  00000000100cffe0     guideXOS.obj
 0005:0002a000       __Str_X2                   00000000100d0000     guideXOS.obj
 0005:0002a020       __Str_X4                   00000000100d0020     guideXOS.obj
 0005:0002a040       __Str_XGI_Technology_Inc_799069CFD27E0DC60714423E06C6CA57961F4D16A5313A46D5A3801515E14C74 00000000100d0040     guideXOS.obj
 0005:0002a080       __Str_Xerox_Corporation_E1854CCAF3FE3BC991C8E97C804188FCFC04DADECCE01C853E752505722A0F0C 00000000100d0080     guideXOS.obj
 0005:0002a0b8       __Str_Xilinx_Corporation_CF750B7C8CB4FCE678390DFAAA1BDEA5A9A23095135B0F3200AE078DF9C18237 00000000100d00b8     guideXOS.obj
 0005:0002a0f8       __Str_Xiotech_Corp_8D4F1D5BA607F09CA5795D2D5B789F8B92615747BDF2875351F56A2559C78E9F 00000000100d00f8     guideXOS.obj
 0005:0002a128       __Str_Xircom               00000000100d0128     guideXOS.obj
 0005:0002a150       __Str_Xirlink__Inc_EDD5AF9ACE10C4B8FB61C208AA9F60714BE32EA3A17936FF7697F4294AE4A444 00000000100d0150     guideXOS.obj
 0005:0002a180       __Str_Xpeed_Inc_6E0FEC51E04797E6F9121EA9810B7A9F95DC072CACA2B80FA24265093A88214D 00000000100d0180     guideXOS.obj
 0005:0002a1a8       __Str_Xpoint_Technologies_Inc_7F4DC1377B60128787823B1171B8349BA0AB4ABC1820C0EE95508F345A32169B 00000000100d01a8     guideXOS.obj
 0005:0002a1f0       __Str_Xstreams_PLC__EPL_Limited_3EE416A9913B05C4568674A947A88A629AC4D22B4745E55A07FC6CD40D16C64A 00000000100d01f0     guideXOS.obj
 0005:0002a238       __Str_Xylon_Research_Inc_4D3F3510290F786DC09F8EF29BA1AFF6DFB35800FB2DE285DEE4E3DFB9A1BC7F 00000000100d0238     guideXOS.obj
 0005:0002a278       __Str_Yamaha_Corporation_B429E5BE44DB4A5F4BEC1011A19C58AE56A508C716C5E459805F8A0BB0EB2C35 00000000100d0278     guideXOS.obj
 0005:0002a2b8       __Str_Yamakatsu_Electronics_Industry_CBCB9E69C99FD69AF88DEA42E73E4FCC1476E34C7522594F11FCE4246F1EDC99 00000000100d02b8     guideXOS.obj
 0005:0002a318       __Str_Yamashita_Systems_Corp_9B591A27C782D027DAC0C98A81FC1C590801464509CF1CC701FBD78ADCB8C347 00000000100d0318     guideXOS.obj
 0005:0002a360       __Str_Yaskawa_Electric_Co_6177C00B38499E8CE497FE8DE5206B59F7B9EFF0427FE5086E80877605106F73 00000000100d0360     guideXOS.obj
 0005:0002a3a0       __Str_Yes                  00000000100d03a0     guideXOS.obj
 0005:0002a3c0       __Str_Yokogawa_Electronic_Corp_DD47FAA4F28F1BC2CFE7EE90A6FC351B372DCAEB9038DDECB19FB45F3CB52B22 00000000100d03c0     guideXOS.obj
 0005:0002a408       __Str_YottaYotta_Inc_79BB9992BEED2BAEB8A83982555876331004F3021FF18805240271EB51FB7FC4 00000000100d0408     guideXOS.obj
 0005:0002a440       __Str_You_are_currently_running_guid_03ADD46FCD41B76E36E458A6C5E89EBA21728D9D2FC875511B30C01B83750F71 00000000100d0440     guideXOS.obj
 0005:0002a4d0       __Str_You_can_get_IP_settings_assign_337031B3DA701673BB77FD9907D9EB76FF3B8B10669134300CF997BFD3FB126E 00000000100d04d0     guideXOS.obj
 0005:0002a558       __Str_You_can_now_enjoy__930818EC6A872FB23DF67536CD4238120392A252C5D44CC42E1814487C0EA6CB 00000000100d0558     guideXOS.obj
 0005:0002a598       __Str_Young_Micro_Systems_302CA225AC013AD5AF94C39B66931D9ED62820E0D4D151E9C0FBC7E808D456DF 00000000100d0598     guideXOS.obj
 0005:0002a5d8       __Str_Your_computer_is_now_ready_to__17B84996312A469F5ADD2696A8A31A22935E7318514C90A1B83451AC0CCC1DF3 00000000100d05d8     guideXOS.obj
 0005:0002a660       __Str_Yuan_Yuan_Enterprise_Co_Ltd_3A53FC4AAEAA15F56F61A86325338725C8AD15041BFF2BBC0C51F655CA621EE9 00000000100d0660     guideXOS.obj
 0005:0002a6b0       __Str_ZNYX_Corporation_06F29BAC7607E8DA8F713FBD46D35E906BB37D26E0114B88FB04C4BD82E11065 00000000100d06b0     guideXOS.obj
 0005:0002a6e8       __Str_ZXCVBNM____1AB2F8B44BBC0889785E08030B91A1657725CF31165AFA4C863A44929B15DABC 00000000100d06e8     guideXOS.obj
 0005:0002a718       __Str_Zapex_Technologies_Inc_A3BA9D1A4B93182BF6DFC613F3845AC3DF51DB74B90D66789A230E25F008017F 00000000100d0718     guideXOS.obj
 0005:0002a760       __Str_Zarlink_Semiconductor_2AD31E1F86778F41F3F4343525941F81B9F879D644FEF6A3C3AAA791069A4AF5 00000000100d0760     guideXOS.obj
 0005:0002a7a0       __Str_Zenic_Inc_B7C8EE8DB1DB282444B0863BEA9CB68E9022EF7D6B4DBEDE21CF35ADB6125900 00000000100d07a0     guideXOS.obj
 0005:0002a7c8       __Str_Zenith_Data_Systems_D89EDEF305FFC16D6B6BFA6FB883B00DD8DD4CD2012D26EC8E471B644A041B30 00000000100d07c8     guideXOS.obj
 0005:0002a808       __Str_Zenith_Electronics_Co_E0233FE45297B8FE0BD8557A5A27470D6D900E4E8E3619C643BAD788E58EFC89 00000000100d0808     guideXOS.obj
 0005:0002a848       __Str_Ziatech_Corporation_D2A38975E5493018FCDDE1D0C1505685DE7397AF1A1A8B6424EED876E8E05362 00000000100d0848     guideXOS.obj
 0005:0002a888       __Str_Zida_Technologies_Ltd_0C3DA8DB8E3E975240DE07800DEBB0509A08F3712BB4BAA2F1B2A85348F2B31F 00000000100d0888     guideXOS.obj
 0005:0002a8c8       __Str_Zilog                00000000100d08c8     guideXOS.obj
 0005:0002a8e8       __Str_Zilog_Inc_DBB9E6447072985E3C23A363E695A52E078EFBD448D74F276269A5D0206F1B29 00000000100d08e8     guideXOS.obj
 0005:0002a910       __Str_Zoltrix_International_Limited_0445BEFD7987D3F2F5A8E352AA337F92B7E838A65C688974B3F182ED0C2AAB16 00000000100d0910     guideXOS.obj
 0005:0002a960       __Str_Zoom_Telephonics_Inc_C36E62C931BB9A14CBE611AA4B1B11038CEA87DCFC8BAB97B9FA6437ADA6B8BC 00000000100d0960     guideXOS.obj
 0005:0002a9a0       __Str_Zoran_Corporation_E32B13F78DB1839C01D53602EA5383143DD48C0F4813454A9E766EFA37771131 00000000100d09a0     guideXOS.obj
 0005:0002a9d8       __Str___D851A0155B6A2716E0DA40A1336C5FF311FCF12CE16E53CF06B5A6CBD9CD32DF 00000000100d09d8     guideXOS.obj
 0005:0002a9f0       __Str__ACPI__ACPI_57AA5D4DC89872919E605A6E5F4D8698ED989C6C5E88A590F54DE8FA99CAA819 00000000100d09f0     guideXOS.obj
 0005:0002aa20       __Str__ACPI__RSDP_at_0x_0_X16__367F8B79E862AFA01B87900EF54A27446F9803D78313519CF8187D5E1AFF00BF 00000000100d0a20     guideXOS.obj
 0005:0002aa68       __Str__ARCH__Pointer_Size___0__bytes_7787636BD27F70577C2B720D824A0EF29D950CB823F2B820F07BE2A887CDCD3A 00000000100d0a68     guideXOS.obj
 0005:0002aac8       __Str__ARCH__Pointer_integrity__PASS_BF9EBBE0A55FF96AF08962D104E429E2B42870033EF629976793A5A88466170C 00000000100d0ac8     guideXOS.obj
 0005:0002ab50       __Str__ARCH__Running_in_64_bit_mode__CAA87AA75A4264FBA9ECBEF8FF80F1001AC53BDAF7BFDC4C7851571A31ACE945 00000000100d0b50     guideXOS.obj
 0005:0002abb0       __Str__BOOT__Mounted__dev_sda2_as_ro_89C5F1D273C07E21ACD7DD9B28156CE6CA915DCE549584885C8BF3651DE752C5 00000000100d0bb0     guideXOS.obj
 0005:0002ac08       __Str__BOOT__System_Mode__Installed__8EEAC581B1124545FC48266E21CA7F0B6EEA2F6434624BD97334E9137DAF733C 00000000100d0c08     guideXOS.obj
 0005:0002ac60       __Str__BOOT__System_Mode__LiveMode___F87875ED85E9E2EBF46DD7AD26E1C6F780DA3EC3C00DCBEA52C89CD4412FAE3F 00000000100d0c60     guideXOS.obj
 0005:0002acc0       __Str__BOOT__System_Mode__LiveMode___32387389E44DF91DE7B9F883E7DFC966E252BF9F3197C271EE8EAEBF34789524 00000000100d0cc0     guideXOS.obj
 0005:0002ad38       __Str__BOOT__Using_default_filesyste_FBDC56AB2B550FB0E8EC46CFA1531E66C71BFECDE4E86AA2327EEBB1E5458989 00000000100d0d38     guideXOS.obj
 0005:0002ad90       __Str__BOOT__Using_ramdisk_9A70024C0EC9D6D236BF05DF583F176A2B0BCC7A9E1431F065073D21FA019017 00000000100d0d90     guideXOS.obj
 0005:0002add0       __Str__CONFIG__Cannot_save_in_LiveMo_60CBB78F2D72B092CA7F1F0ECADBF00AC5D61EF0D0499AF456F14AC6D78A8BC7 00000000100d0dd0     guideXOS.obj
 0005:0002ae28       __Str__CONFIG__Configuration_loaded__F362B450FBCB45D6D2146171D50E5A9FD04BC03C5A557885CC956203DC1BCA2E 00000000100d0e28     guideXOS.obj
 0005:0002ae90       __Str__CONFIG__Configuration_saved_t_A9652EC973C472173B51B0BACFB5F3B2D0E23891999CE4D560D97190738F9EDC 00000000100d0e90     guideXOS.obj
 0005:0002aef0       __Str__CONFIG__Configuration_system__CD2E5B84FBFBCEB27F16E9247E18D2A57E83ADD31C8D04AA1F9F8C73FD9C49F4 00000000100d0ef0     guideXOS.obj
 0005:0002af58       __Str__CONFIG__Error_loading_UI_sett_C0BBCBD8C4F790AA615E0D2F486F5CB7B20B45CCAE5D08D90905C662FF918A83 00000000100d0f58     guideXOS.obj
 0005:0002afb8       __Str__CONFIG__Error_loading_configu_D4FD27AE1A2CCBDBE638CF2819028B2C82A7B9B3782139F4771A166B4B22FBD0 00000000100d0fb8     guideXOS.obj
 0005:0002b018       __Str__CONFIG__Error_saving_UI_setti_85C7B8CB556CF52CAFD34D4A46A1D91F088D5B695999A800502233F0624D8582 00000000100d1018     guideXOS.obj
 0005:0002b070       __Str__CONFIG__Error_saving_configur_10848E1F76A65AC071822800F2F12948290E904664B2CBBF31A6D9553730A75E 00000000100d1070     guideXOS.obj
 0005:0002b0d0       __Str__CONFIG__Initializing_configur_823C0F0F67C9242C7C502F40EC378303BBE8482FE360B95632F51DA69CAFA5A6 00000000100d10d0     guideXOS.obj
 0005:0002b140       __Str__CONFIG__LiveMode_detected___s_611F0043C4868C0BCC03D3866F716B873249CABA761770DB45FADA4F3E5368EB 00000000100d1140     guideXOS.obj
 0005:0002b1c8       __Str__CONFIG__Storage_not_writable_72FB4AEFBDFE1E4920153624D381F56E943C6CC03C64624CCD6B887A851B589F 00000000100d11c8     guideXOS.obj
 0005:0002b218       __Str__CONFIG__UI_settings_loaded_FAF0BDF3E0373D3AF809F72429AEA5C8367B9590888635D6A58CBFF743B37154 00000000100d1218     guideXOS.obj
 0005:0002b268       __Str__CONFIG__UI_settings_saved_74C3B0C0E44D954940BD540E2EB26AAB273AD79F0FEA62708A74C9D65D597289 00000000100d1268     guideXOS.obj
 0005:0002b2b8       __Str__DHCP__configured__IP__0___1___473F88BE677B14566620CA9F0A3FA64B7D587423EED31A7B00E82D55064FB47F 00000000100d12b8     guideXOS.obj
 0005:0002b320       __Str__DNS__type__0__class__1__ttl___80E389D4B765C081BE548D5B32C9F5DF70FE4A7652D57865FE67723FF9D72577 00000000100d1320     guideXOS.obj
 0005:0002b3b0       __Str__EHCI__Transmission_failed_1816FD3BA817C37B84D3A72A500BECC9FBB11CE6FE6DF69AD51C86ECE5F329C0 00000000100d13b0     guideXOS.obj
 0005:0002b400       __Str__GXM__User_mode_transition_not_375772E7CC2F63C38348F8314F33EA111E5EC9285798687458838E94D5511915 00000000100d1400     guideXOS.obj
 0005:0002b488       __Str__HPET__HPET_Initialized_187D5FC476B20D94EBF58D602ED117706BC5B0F7C304AE573B1928A34A1FA5E6 00000000100d1488     guideXOS.obj
 0005:0002b4d0       __Str__HPET__HPET_not_found__F5030E24E68F7EA85AA908662B037BB28EFF7499C35A0DF929D67924A1A1EB0C 00000000100d14d0     guideXOS.obj
 0005:0002b518       __Str__I_O_APIC__Can_t_initialize_I__B8D4DCEEAC294FDD6C7595DB4ABFBA00E8DAFDF9B155D2ABCB91937FA48422F7 00000000100d1518     guideXOS.obj
 0005:0002b578       __Str__IDE___48CFDDBBE8C65D0A4BB3982086CA2F60CAE57BF1158F0064A9FA7EE85A587C05 00000000100d1578     guideXOS.obj
 0005:0002b5a0       __Str__IDE__IDE_controller_Failed_to_9E91611D9E189BF43EB1186AA62944038F7692F11E0C6ACB8BF842459DAEA522 00000000100d15a0     guideXOS.obj
 0005:0002b608       __Str__Initrd__Initializing_Ramdisk_D2EF84CEF2F60975115788774DBAAB724607E3270A41D27D095A47862AD7FC88 00000000100d1608     guideXOS.obj
 0005:0002b658       __Str__Initrd__Initrd__0x_3B9AECC2CFCD64EDEC3BE7813367F3177CA28BC9821A4E8AC38F120D2FB5265B 00000000100d1658     guideXOS.obj
 0005:0002b698       __Str__Initrd__Ramdisk_at_0x_0_X16___39A312723F2AEAA6D18231CA80CCBA8AA819C7CED0C0838B9AB8E6CF33BF5DB9 00000000100d1698     guideXOS.obj
 0005:0002b708       __Str__Initrd__WARNING__No_ramdisk_l_AFF73D2DC48BFCBB4A22BD99398E4297D50C20B2DDAAC070929D90791399C5AC 00000000100d1708     guideXOS.obj
 0005:0002b768       __Str__Intel825xx__Configuration_Don_1EDF7C7A0491E36D3D90A08C9F484CABAC230DE6677785189403291A4EFF17DE 00000000100d1768     guideXOS.obj
 0005:0002b7c0       __Str__Intel825xx__EEPROM_on_this_co_466179D6D73A55AFFD4779E35E08D5D9DD684DF3C3EE0F11A3ECF3467FDF6F02 00000000100d17c0     guideXOS.obj
 0005:0002b828       __Str__Intel825xx__Found_Intel_devic_B0F82CBE7818A03A7E1C4C660169AB45706C7B5FFADD0630DD099F5278199AA4 00000000100d1828     guideXOS.obj
 0005:0002b898       __Str__Intel825xx__Matched_device__0_A82F757D286A5B215AA72243D5411BC2CB23341F8681E3E2424E3B2822E6D938 00000000100d1898     guideXOS.obj
 0005:0002b8f0       __Str__Intel825xx__No_Intel_NIC_foun_993BA1874330E53E721D39CCFF8EE19DD5D24649B558F8EB6729C36B28504B5C 00000000100d18f0     guideXOS.obj
 0005:0002b948       __Str__Intel825xx__Reseting_controll_DFCAE1A426F69DB4DF3194AD115CD54F1A1EC4AB9CA098D727967983E91DC200 00000000100d1948     guideXOS.obj
 0005:0002b9a8       __Str__Intel825xx__Scanning_for_Inte_AD3129B676B760708E5DAF52F0BA5F6B2570DBB3018B357C61DF7072099AD38C 00000000100d19a8     guideXOS.obj
 0005:0002ba10       __Str__Intel825xx__This_controller_h_DC853C74AD8FAB22A815FA2995B583A4A867C5C7828C3AA06559D15A8DA4585A 00000000100d1a10     guideXOS.obj
 0005:0002ba80       __Str__Intel825xx__Total_PCI_devices_9ED5F01B5F62ADC6F9ACF92371FF1203E742DCD2679717106B1BA5069CAFD859 00000000100d1a80     guideXOS.obj
 0005:0002bad8       __Str__Intel825xx__Waiting_for_netwo_1ABD57826CC60CA5779BEB7889793FDEAB3855DE17233D930559F195BE2EA1F0 00000000100d1ad8     guideXOS.obj
 0005:0002bb48       __Str__Local_APIC__Local_APIC_failed_016A83E7097B7886340740505E8425084AEBD166140FD76B75B32543D36D1783 00000000100d1b48     guideXOS.obj
 0005:0002bbb8       __Str__NET__Attempting_DHCP__this_ma_09EBEC45E06E6E0AF7EC5BD5B42E5DF1D9A954112FA20445D43956CF54CC9881 00000000100d1bb8     guideXOS.obj
 0005:0002bc40       __Str__NET__Attempting_DHCP_configur_55AC0162A042EB259A7204356131813F4C9AAA6212BE9AFAE5EC266C5C1502A1 00000000100d1c40     guideXOS.obj
 0005:0002bca8       __Str__NET__Configuration_error_494DF0E9CEAC19FF0858CD891C4D23835BBAFB88AD050FC084F7BE1160C4CBB2 00000000100d1ca8     guideXOS.obj
 0005:0002bcf0       __Str__NET__DHCP_error_EB0197C74793902BD61EEC1F1D817387A279B61966071C5449A836A724EC0522 00000000100d1cf0     guideXOS.obj
 0005:0002bd28       __Str__NET__DHCP_failed_0101B850EB44AF89277967366C9F1883AD6823EBC3CEC1515E6B613893A7127A 00000000100d1d28     guideXOS.obj
 0005:0002bd60       __Str__NET__DHCP_successful_8E15DD09AE505A275D27F553E4EE33EB99559F7FF9A1485D71D64653C1C7270E 00000000100d1d60     guideXOS.obj
 0005:0002bda0       __Str__NET__IP___D9AB676CEBD0532AE19C9A3FF2210DEF70E28139514C85F6EC085329D33D1DA2 00000000100d1da0     guideXOS.obj
 0005:0002bdd0       __Str__NET__IP___0___1___2___3__413A744F1B5865649CD90542A09ADE0AA57E03F46E97DC59CB39712A9E5DC88C 00000000100d1dd0     guideXOS.obj
 0005:0002be18       __Str__NET__Initializing_stack_562023EC5FAA8D0A70A974D7A83B55A5FB07608483C410B8F49F4B2797A0F442 00000000100d1e18     guideXOS.obj
 0005:0002be60       __Str__NET__Intel825xx_found_40E24DD080D724AD9CA4BD113D4823882755263508781ACF52EC4A44BD54F525 00000000100d1e60     guideXOS.obj
 0005:0002bea8       __Str__NET__Manual_configuration_app_3DF5B39245481C2924774471EE4187603068DC7AE18F7A672BAA01F16DFEA467 00000000100d1ea8     guideXOS.obj
 0005:0002bf08       __Str__NET__Network_already_initiali_78C23D670EBDFEC54C78804EE99DB43289C8F5284408A34024A3181DC45F87F4 00000000100d1f08     guideXOS.obj
 0005:0002bf60       __Str__NET__No_supported_NIC_found_2C68895D3D1B96CA362F1237AC6C638EDF3CE5C6F1CDCAD5AE8271A0E2C7FFDF 00000000100d1f60     guideXOS.obj
 0005:0002bfb0       __Str__NET__RTL8111_found_A32A9B67F5A0188B1D03CFE077CAE1244FA223B033DC3103E7494F7FED126EE2 00000000100d1fb0     guideXOS.obj
 0005:0002bff0       __Str__NET__Scanning_for_NICs_B1487E27CCB74D082A0EBDFB5D2888D16F31ACC32F36F2675ADC1CFEABA85973 00000000100d1ff0     guideXOS.obj
 0005:0002c038       __Str__NET__Stack_initialization_fai_DA85C06C97C1860E8D2613B21934E2B9D8E058CC7DAEF6F06CBE98A6BACBD219 00000000100d2038     guideXOS.obj
 0005:0002c090       __Str__PCI_Express__0___1___2____3___AA5DFEC66395C77DE7BD8586327B5912ADC87A2F8A83FC22BFA1D01933C3E306 00000000100d2090     guideXOS.obj
 0005:0002c0e8       __Str__PCI__0___1___2____3___4__1A6B78E37C8CAE168FD9B0B51E96BA99939DA8F867C86763B0EA50035EBDF8F9 00000000100d20e8     guideXOS.obj
 0005:0002c130       __Str__PS2KBD__PS_2_Keyboard_initial_623F3195BCBED210735158808D5C1F57091E7FE018B36F66DA1FD7EF77FBD573 00000000100d2130     guideXOS.obj
 0005:0002c190       __Str__PS2Mouse__Initialized__Device_3A2C7C1A63B64E1A41B250EF46B9501513188B0DF42C3A73B5D0171DC7D74DA3 00000000100d2190     guideXOS.obj
 0005:0002c1f0       __Str__RSP_0x_6A0B31D9AA7631F33AC5A93576807746DECB6221ACFDDB477D41A95C1CCBCD62 00000000100d21f0     guideXOS.obj
 0005:0002c218       __Str__RTL8111__Found_Realtek_device_88EBDE4F2E7178E411A3E243890A47508F61CDC9F3C5E1174F45A16AEBF200C5 00000000100d2218     guideXOS.obj
 0005:0002c280       __Str__RTL8111__Matched_device__0x_3E5FE5679125DCE73E47C180C0556915812D73637B6C6088E4CF14FB80B61CFE 00000000100d2280     guideXOS.obj
 0005:0002c2d0       __Str__RTL8111__No_compatible_device_37789A897A5D4C60BBC4A1159D294F01BB6612B544C93387B9A09A59C98B9468 00000000100d22d0     guideXOS.obj
 0005:0002c338       __Str__RTL8111__Scanning_for_Realtek_47E24A46C2C0BFF30C0E2823276B115199F8F12AEEAE3F32C6FC66020864E116 00000000100d2338     guideXOS.obj
 0005:0002c3a0       __Str__RTL8111__Total_PCI_devices___99E3783383017EA17714B817AD425CB7F977D5F8AD636F5C20AF7605AFEF3742 00000000100d23a0     guideXOS.obj
 0005:0002c3f0       __Str__RTL8111__device_found___E2393A61DB929223740C47BC2ED67D9FEC5E21DFFA247C4D92DBECF5A44DBC18 00000000100d23f0     guideXOS.obj
 0005:0002c438       __Str__RTL8111__device_initialized__18A9C52C76E39C7FBBE268B03E1E2B792BBAF6F4E3A2CD52B67E42FC9E94877A 00000000100d2438     guideXOS.obj
 0005:0002c488       __Str__SATA__SATA_Port__41F5EFA0306410C2878C7DF19A62FB24D4AA77E2B1570BCB80E75D200B2653CD 00000000100d2488     guideXOS.obj
 0005:0002c4c0       __Str__SATA__Too_many_sectors_to_rea_80D9BEEE1FCD03488246146182AF5D6209092226EF56A6560049050ACF276A75 00000000100d24c0     guideXOS.obj
 0005:0002c518       __Str__SMP__Starting_all_CPUs_EF137C8E7E671080FA639D31DE085DB1B881A967E26F1F85EB54DB2FF87F45DE 00000000100d2518     guideXOS.obj
 0005:0002c560       __Str__SMP__Trampoline__0x_A726A464BF3F27EB23163DE296C69807A89471321FE4A1567EB444941634EB12 00000000100d2560     guideXOS.obj
 0005:0002c5a0       __Str__SMP___0__CPUs_started_2BE50BCEB2074133D3D58565D7A6808862943737F7004B785D72B342B124743A 00000000100d25a0     guideXOS.obj
 0005:0002c5e8       __Str__TEST_MODE__Only_showing_1_dem_C203E1D2D7728F389EB30163869CE81FF69AABBF597764DECE05E2A14B9A1595 00000000100d25e8     guideXOS.obj
 0005:0002c650       __Str__TTF__Loaded_font___0__glyphs__ED801239CA5F8BB083268B89DCFCDCC053D55071F72E349D19F1D6B87300DFB0 00000000100d2650     guideXOS.obj
 0005:0002c6d8       __Str__TTF__Missing__cmap__table_FA7AB9EE594425228246E2C13E805AD2996F8D28F5CC24559641B9164EB6B9BC 00000000100d26d8     guideXOS.obj
 0005:0002c728       __Str__TTF__Missing__glyf__table_28CE6F34F9EBE428BDDEEF1DF45567C1A6BDB1B1D4B978C3F4B4BD535DE636CF 00000000100d2728     guideXOS.obj
 0005:0002c778       __Str__TTF__Missing__head__table_C58EF82386C2BB1A21CF4C4F81E430879E534FF338B14BF03A092AB788B1F08E 00000000100d2778     guideXOS.obj
 0005:0002c7c8       __Str__TTF__Missing__hhea__table_CD38181DD23785462A838734733D0D570C658E97C8D97B50BF54015496E1A92F 00000000100d27c8     guideXOS.obj
 0005:0002c818       __Str__TTF__Missing__hmtx__table_58A6686BFAEDD5131BF743B34D84DA2F4076694022FC734B2E947574DAC2A9CA 00000000100d2818     guideXOS.obj
 0005:0002c868       __Str__TTF__Missing__loca__table_7346CE45F3B30516820B9E055819A1740BA6BA086F84E1EC96557DE390884F92 00000000100d2868     guideXOS.obj
 0005:0002c8b8       __Str__TTF__Missing__maxp__table_2625A1274C96916E0EA97547CA463E39BEB50CBDEFC325E1584659664136A7FB 00000000100d28b8     guideXOS.obj
 0005:0002c908       __Str__TTF__No_Unicode_cmap_found_796FB71A63620971E819042140C802F9701CBAF4972A6045E188E84996DC6FA5 00000000100d2908     guideXOS.obj
 0005:0002c958       __Str__TTF__Not_a_valid_TrueType_fon_AD507718E1539AA733846FDD0E073B6BDB4CC374813F729CFA6DF50B18099A6A 00000000100d2958     guideXOS.obj
 0005:0002c9b0       __Str__TTF__Unsupported_cmap_format__08B6F87F70F34FC2D4BBB11A03609912929A3CD3970262E2B9FF4FBE0F39AAB2 00000000100d29b0     guideXOS.obj
 0005:0002ca10       __Str__Timer__Bus_clock_is__0_mhz_04573D68D29D9EFC24AA97A60091CE4274B94B90569BC264B0047FE615BFA90F 00000000100d2a10     guideXOS.obj
 0005:0002ca60       __Str__Timer__CPU_clock_is__0_mhz_06D6C4FC54510354F1A051048F0991DD51975C06C6C33A8402483A00688C1FBF 00000000100d2a60     guideXOS.obj
 0005:0002cab0       __Str__UEFI__BootInfo_Magic__0x_0_X8_FAFED56BE34F1605F09A53B6FB235E52E974D67852B77D2B138432EEDBB1F2D5 00000000100d2ab0     guideXOS.obj
 0005:0002cb08       __Str__UEFI__BootInfo_Version___0__919C66190B0997E0C995937AF5BD92F3B300AA3C36820691532AAC303379AE9B 00000000100d2b08     guideXOS.obj
 0005:0002cb58       __Str__UEFI__Booting_from_UEFI_bootl_84B42850FD46988FDEEF0C2629EF29272C6D02628595A4D2909C2E147CAA1617 00000000100d2b58     guideXOS.obj
 0005:0002cbb8       __Str__VMware_tools__Initializing_VM_767FA87878FE61FD7EE25943A575570C1248B26EAC09E9867E0C504399E259BB 00000000100d2bb8     guideXOS.obj
 0005:0002cc20       __Str___1472D0645F552820B5472B91341C2D9A118C8A96F4A72758D6AEEB14C10A1107 00000000100d2c20     guideXOS.obj
 0005:0002cc38       __Str___B230EC74895E4131AECD468AFE2723678730E6F7471BD48C3F239320587FAEB7 00000000100d2c38     guideXOS.obj
 0005:0002cc50       __Str____804779EAC33E29BC0631A6BBAE7359393E89CCE7778929AFDE36C60530F956AC 00000000100d2c50     guideXOS.obj
 0005:0002cc70       __Str_______External___202F8B1F1717BEF06E285F1D73568B2A9042B37DAD1F9B71B6771E29F1964C7A 00000000100d2c70     guideXOS.obj
 0005:0002cca8       __Str____0x_8FC78C03EEF6ECE3108C2975550483C6ADC88A3E41BEB38533A88F894E81F77E 00000000100d2ca8     guideXOS.obj
 0005:0002ccc8       __Str_____invalid_memory__657CEDACB7C020C09A0C9C96E7800C6502BF27F0BAF5C2A6053E958E6DA60DDF 00000000100d2cc8     guideXOS.obj
 0005:0002cd08       __Str__thumb_PNG_7E49907630A06D35A68B112A1E28FCB8DEB7E71DB913D06BFD2BEAF4ADF2B9A5 00000000100d2d08     guideXOS.obj
 0005:0002cd38       __Str__thumb_png_281C1F42E322AF967C6D5EEE44280B65717CAEA562752B3ED0245699710255B0 00000000100d2d38     guideXOS.obj
 0005:0002cd68       __Str___F3DF0A62B10F205B0F29768AA3D69E777154CAAA179F64AABB0A4899C666B017 00000000100d2d68     guideXOS.obj
 0005:0002cd80       __Str__1234567890___5BD41969340865699DB6779D353ABA5D585873625F3057FD2A1202B0DDA97EB1 00000000100d2d80     guideXOS.obj
 0005:0002cdb0       __Str_a__CB4A2B2E26954DB04C0FD5E5B7AA478877F7B8ADE722319C18E0838513059FDA 00000000100d2db0     guideXOS.obj
 0005:0002cdd0       __Str_amc330               00000000100d2dd0     guideXOS.obj
 0005:0002cdf8       __Str_application_json_044C6E09F1444418719320DDB6FA04AA7C4E15D34576B3ACB83FD55A30459AA2 00000000100d2df8     guideXOS.obj
 0005:0002ce30       __Str_apps                 00000000100d2e30     guideXOS.obj
 0005:0002ce50       __Str_arp                  00000000100d2e50     guideXOS.obj
 0005:0002ce70       __Str_asdfghjkl___FEC35912B46BE2767EBCE23E9023FD3183F7B2729D2EBBCE8CD5C3AD7AA65C2F 00000000100d2e70     guideXOS.obj
 0005:0002cea0       __Str_austriamicrosystems  00000000100d2ea0     guideXOS.obj
 0005:0002cee0       __Str_authlogin            00000000100d2ee0     guideXOS.obj
 0005:0002cf08       __Str_authregister         00000000100d2f08     guideXOS.obj
 0005:0002cf38       __Str_authtoken            00000000100d2f38     guideXOS.obj
 0005:0002cf60       __Str_authurl              00000000100d2f60     guideXOS.obj
 0005:0002cf88       __Str_autolearn            00000000100d2f88     guideXOS.obj
 0005:0002cfb0       __Str_back                 00000000100d2fb0     guideXOS.obj
 0005:0002cfd0       __Str_background_rotation_interval_m_21815B0335B8FFA2C0D25746C397CBC089565F6983F08C673E50F9915F69C638 00000000100d2fd0     guideXOS.obj
 0005:0002d030       __Str_black                00000000100d3030     guideXOS.obj
 0005:0002d050       __Str_blockall             00000000100d3050     guideXOS.obj
 0005:0002d078       __Str_blue                 00000000100d3078     guideXOS.obj
 0005:0002d098       __Str_boot_from_the_USB_drive_again__BC1558BF20A9D20D2BC2888BE400A087CD2DF24DE25D4ADC8E1C909ED5D835AB 00000000100d3098     guideXOS.obj
 0005:0002d118       __Str_br                   00000000100d3118     guideXOS.obj
 0005:0002d138       __Str_br__EA430B67FD8CD91B4FB32CA9AEA4E79818417241483BFA0F79B015798BFB8A89 00000000100d3138     guideXOS.obj
 0005:0002d158       __Str_cat                  00000000100d3158     guideXOS.obj
 0005:0002d178       __Str_cd                   00000000100d3178     guideXOS.obj
 0005:0002d198       __Str_cd__no_such_directory___52A6564E3EBB9072AB7981C0FF0D7E7AC889060A230342B333E30497C9478C00 00000000100d3198     guideXOS.obj
 0005:0002d1e0       __Str_cdback               00000000100d31e0     guideXOS.obj
 0005:0002d208       __Str_chunked              00000000100d3208     guideXOS.obj
 0005:0002d230       __Str_clear                00000000100d3230     guideXOS.obj
 0005:0002d250       __Str_close                00000000100d3250     guideXOS.obj
 0005:0002d270       __Str_cmap                 00000000100d3270     guideXOS.obj
 0005:0002d290       __Str_cpu                  00000000100d3290     guideXOS.obj
 0005:0002d2b0       __Str_cx__E33788200F7DF2682DA5622FE3F9E4FD23B0086024D3507E5CA1F8AEA3A59FB0 00000000100d32b0     guideXOS.obj
 0005:0002d2d0       __Str_cy__BC65994119C775E7AAB0941B1A7643FF874E23543A2519C6F0F27A5D9EA4B893 00000000100d32d0     guideXOS.obj
 0005:0002d2f0       __Str_d__8914416D717290938808F4647C951D626DE97D9C8C74BE754CB8B5F65AAA78E2 00000000100d32f0     guideXOS.obj
 0005:0002d310       __Str_d__4C119BD82A378AB6606F457FA748FB318E2FD2E92244ED6CC4D5F5D93BFFA009 00000000100d3310     guideXOS.obj
 0005:0002d330       __Str_devolo_AG_F653BD9E4CD977A095BE59281C4C0CE6E94CF2082116E8B73E1F3E5E310FF238 00000000100d3330     guideXOS.obj
 0005:0002d358       __Str_disabled             00000000100d3358     guideXOS.obj
 0005:0002d380       __Str_display_cfg_DC895CDB1B22B76FD8F174F747E7BE31BBE62B2C036729E8BCF03CCA6FD11416 00000000100d3380     guideXOS.obj
 0005:0002d3b0       __Str_div                  00000000100d33b0     guideXOS.obj
 0005:0002d3d0       __Str_dns                  00000000100d33d0     guideXOS.obj
 0005:0002d3f0       __Str_document_txt_D8CA11E9E01229CCB3DD49A997F8802CDA54E41FC5EB304428FD1A500CA57867 00000000100d33f0     guideXOS.obj
 0005:0002d420       __Str_echo                 00000000100d3420     guideXOS.obj
 0005:0002d440       __Str_echo__missing_filename_after___137665D8973C3A38B5C692F9EC1E43864E49D819FC85E902F6B3AB5B354988C5 00000000100d3440     guideXOS.obj
 0005:0002d498       __Str_enable_auto_background_rotatio_DC0B6BEE0D1BC454A8D812B9454C0CA97E1C3D7319812DC0D5CD1B2B399DAB66 00000000100d3498     guideXOS.obj
 0005:0002d4f0       __Str_enable_fade_animations__62DC4851B2BBFEC15A7BF4F09F4C66BC8B6C97436484E962CA2139317F68E1C8 00000000100d34f0     guideXOS.obj
 0005:0002d538       __Str_enable_window_slide_animations_4F824EFAEE150021858C14F2A91F7AFA1942776AC2C1DF7669F110652377849B 00000000100d3538     guideXOS.obj
 0005:0002d590       __Str_error__fuzzy_match_7854DF62E84EB43827D2D25B2567590D9C55BCC77715B3402C5BE368C037056A 00000000100d3590     guideXOS.obj
 0005:0002d5d0       __Str_esd_Electronic_System_Design_G_597D358764ED9E6F13024ECCF089379A863BD3CC0871A74AD7B5E792A3BA2111 00000000100d35d0     guideXOS.obj
 0005:0002d628       __Str_exit                 00000000100d3628     guideXOS.obj
 0005:0002d648       __Str_false                00000000100d3648     guideXOS.obj
 0005:0002d668       __Str_fat32                00000000100d3668     guideXOS.obj
 0005:0002d688       __Str_fill                 00000000100d3688     guideXOS.obj
 0005:0002d6a8       __Str_fontdemo             00000000100d36a8     guideXOS.obj
 0005:0002d6d0       __Str_fopen__file_not_found__DA0255E30BCCD1694365B33FDCCC234DA542D287B150E533BD8334B121294625 00000000100d36d0     guideXOS.obj
 0005:0002d718       __Str_fwadd                00000000100d3718     guideXOS.obj
 0005:0002d738       __Str_fwlist               00000000100d3738     guideXOS.obj
 0005:0002d760       __Str_fwmode               00000000100d3760     guideXOS.obj
 0005:0002d788       __Str_fwui                 00000000100d3788     guideXOS.obj
 0005:0002d7a8       __Str_glyf                 00000000100d37a8     guideXOS.obj
 0005:0002d7c8       __Str_goback               00000000100d37c8     guideXOS.obj
 0005:0002d7f0       __Str_green                00000000100d37f0     guideXOS.obj
 0005:0002d810       __Str_guideXOS             00000000100d3810     guideXOS.obj
 0005:0002d838       __Str_guideXOS___KERNEL_PANIC_FFC993DD96AEFE9F18E2A2E6EFADDDCBE1F87DCF99CB2D5631662335FC68DB13 00000000100d3838     guideXOS.obj
 0005:0002d880       __Str_guideXOS_Firewall_7591222030421ABC642EC39D406AD94686300A4D0ACF76936A1ABE18F98BBC20 00000000100d3880     guideXOS.obj
 0005:0002d8b8       __Str_guideXOS_User_CCD3B6EFE2E17C0FD97BB7BC909836568A4988350DAD4571327EA450D5EB103F 00000000100d38b8     guideXOS.obj
 0005:0002d8e8       __Str_guideXOS_has_been_successfully_CB3D9257E8C12DABB2A8166C3F3077AFBEDE40236C64AF853F20B5460A29D54D 00000000100d38e8     guideXOS.obj
 0005:0002d950       __Str_guideXOS_0_2_D0538D29BE73037F3B2B90FCB764F0A5745C520028026B1CB3CE2BA39B72DF3E 00000000100d3950     guideXOS.obj
 0005:0002d980       __Str_guidexos             00000000100d3980     guideXOS.obj
 0005:0002d9a8       __Str_gxminfo              00000000100d39a8     guideXOS.obj
 0005:0002d9d0       __Str_h                    00000000100d39d0     guideXOS.obj
 0005:0002d9e8       __Str_h1                   00000000100d39e8     guideXOS.obj
 0005:0002da08       __Str_h2                   00000000100d3a08     guideXOS.obj
 0005:0002da28       __Str_h3                   00000000100d3a28     guideXOS.obj
 0005:0002da48       __Str_head                 00000000100d3a48     guideXOS.obj
 0005:0002da68       __Str_heading              00000000100d3a68     guideXOS.obj
 0005:0002da90       __Str_height__D4720DEB0B3876CA41265191F0A247E59B6640C5292D0C8F8883A4AFC1327C17 00000000100d3a90     guideXOS.obj
 0005:0002dab8       __Str_help                 00000000100d3ab8     guideXOS.obj
 0005:0002dad8       __Str_hhea                 00000000100d3ad8     guideXOS.obj
 0005:0002daf8       __Str_hmtx                 00000000100d3af8     guideXOS.obj
 0005:0002db18       __Str_http____53B22FE30D62DDCF3F247422999599F4412286C0B43583E6DD3398DE6ADBAFFF 00000000100d3b18     guideXOS.obj
 0005:0002db40       __Str_http___example_com__0E386A0CCD000B654B7DE6889CD88A0DD3ADE8B79AAEFE2FC57BA05AED47DECA 00000000100d3b40     guideXOS.obj
 0005:0002db80       __Str_http___localhost_5068__40C6721EB2226CF07ACBF7986767A89C44B90EDB38B411C69F4DD9058BA5EB4F 00000000100d3b80     guideXOS.obj
 0005:0002dbc8       __Str_http___team_nexgen_com_6F6D51B5385C26304F3A6FC65B5DA8F4B475937D9FDDB211C343C89CFFEFA743 00000000100d3bc8     guideXOS.obj
 0005:0002dc10       __Str_iba_AG_FFB020A5E41DE0BE97EDCAB8DC70BC8EC737497DD2054383C3AC76881E56B570 00000000100d3c10     guideXOS.obj
 0005:0002dc38       __Str_icon_size__688C48F046DF5FFD857D2F542364B33BB3B9BB1C79384D3B2955E6391A231E39 00000000100d3c38     guideXOS.obj
 0005:0002dc68       __Str_icons                00000000100d3c68     guideXOS.obj
 0005:0002dc88       __Str_ifconfig             00000000100d3c88     guideXOS.obj
 0005:0002dcb0       __Str_install_date__0___3B96851306F689CC84C28B2CC0B3758D32B555878DF7B972805C87A812FFD6AD 00000000100d3cb0     guideXOS.obj
 0005:0002dce8       __Str_installed_system_on_your_hard__E02BA2D83CE4D5DB0FCB81AC8AE03B382A6A711F06A6D3E386C1FFBB97470B88 00000000100d3ce8     guideXOS.obj
 0005:0002dd48       __Str_intel                00000000100d3d48     guideXOS.obj
 0005:0002dd68       __Str_ipconfig             00000000100d3d68     guideXOS.obj
 0005:0002dd90       __Str_irc_example_net_0F35ECB7DEA432CDE39CB31DD97628EAC0B5837642C0569D299E42DB1B44EB54 00000000100d3d90     guideXOS.obj
 0005:0002ddc8       __Str_irc_libera_chat_5CCAE9C9BE617FB1EC3625C9BDF65392030091D03E59BC9AC7855BF6672E2566 00000000100d3dc8     guideXOS.obj
 0005:0002de00       __Str_irc_oftc_net_45721129529634C64B39B33F0E0F09228B138A8E9559BE6863ABE3C1F6B12222 00000000100d3e00     guideXOS.obj
 0005:0002de30       __Str_is_in_Fonts_roboto__directory_9C05ADFB839FD041866D2261C853CBF8984ACC9371D541EA8F027797B7142C51 00000000100d3e30     guideXOS.obj
 0005:0002de80       __Str_launch               00000000100d3e80     guideXOS.obj
 0005:0002dea8       __Str_launchscript         00000000100d3ea8     guideXOS.obj
 0005:0002ded8       __Str_link                 00000000100d3ed8     guideXOS.obj
 0005:0002def8       __Str_listapps             00000000100d3ef8     guideXOS.obj
 0005:0002df20       __Str_ll                   00000000100d3f20     guideXOS.obj
 0005:0002df40       __Str_ll__cannot_access___96F9BCE14A808F33FD848004877C878BE7BDCC6B57198B26DBBB30F5AD0A3DF9 00000000100d3f40     guideXOS.obj
 0005:0002df80       __Str_loca                 00000000100d3f80     guideXOS.obj
 0005:0002dfa0       __Str_localhost            00000000100d3fa0     guideXOS.obj
 0005:0002dfc8       __Str_logout               00000000100d3fc8     guideXOS.obj
 0005:0002dff0       __Str_ls                   00000000100d3ff0     guideXOS.obj
 0005:0002e010       __Str_ls__cannot_access___070A5E1714BECC2D5B215001D099F1828706559CFAC17B4796E042D0095E0711 00000000100d4010     guideXOS.obj
 0005:0002e050       __Str_master               00000000100d4050     guideXOS.obj
 0005:0002e078       __Str_maxp                 00000000100d4078     guideXOS.obj
 0005:0002e098       __Str_miro_Computer_Products_AG_46E32291AD5660D2BFADDA78A6AF2D42DA93522EA12A0D0A0BDFC6AB02444308 00000000100d4098     guideXOS.obj
 0005:0002e0e0       __Str_mohamed_alsherif_C1425894EC26BFA0AD86EB7A63D1DA8F2CCA5FBF45ACF2AE8AD74B4346065330 00000000100d40e0     guideXOS.obj
 0005:0002e118       __Str_mueinfo              00000000100d4118     guideXOS.obj
 0005:0002e140       __Str_netinit              00000000100d4140     guideXOS.obj
 0005:0002e168       __Str_network_supports_this_capabili_8F58B9BBC329E09EF059F9C5F23A4579F2F7E50AD279DDABA76C96C1887AFCC2 00000000100d4168     guideXOS.obj
 0005:0002e1e8       __Str_nexIRC               00000000100d41e8     guideXOS.obj
 0005:0002e210       __Str_none                 00000000100d4210     guideXOS.obj
 0005:0002e230       __Str_normal               00000000100d4230     guideXOS.obj
 0005:0002e258       __Str_notepad              00000000100d4258     guideXOS.obj
 0005:0002e280       __Str_notepad_txt_829EE19594D4BB8A7ED27A9D0FD5A11E37C0207832AD151394A13C704F814808 00000000100d4280     guideXOS.obj
 0005:0002e2b0       __Str_notes_txt_5E513F5B0304A131ACC83C0D2BD8334083E400167DF2B6C66E346F0B1D633CA7 00000000100d42b0     guideXOS.obj
 0005:0002e2d8       __Str_null                 00000000100d42d8     guideXOS.obj
 0005:0002e2f8       __Str_or_installation_media_from_you_0CFA172398625392FA78FEEAE6A5A1A18F22620AF173A3CF03AB2D7D73A979B4 00000000100d42f8     guideXOS.obj
 0005:0002e360       __Str_p                    00000000100d4360     guideXOS.obj
 0005:0002e378       __Str_pctel                00000000100d4378     guideXOS.obj
 0005:0002e398       __Str_ping                 00000000100d4398     guideXOS.obj
 0005:0002e3b8       __Str_points__5EAA221B3A53CF5E55EDF6E2E1FBA1AC3F9A6A5D2CABFE2073BA9AF2021D1FA8 00000000100d43b8     guideXOS.obj
 0005:0002e3e0       __Str_pwd                  00000000100d43e0     guideXOS.obj
 0005:0002e400       __Str_qwertyuiop____E128D5395E5E00794DD942715C50134BA480F0FA43C74301469D2BA6EE1DB599 00000000100d4400     guideXOS.obj
 0005:0002e430       __Str_r__51E0E3AA96A3645CC52C34C67E615966C2B343F4E78B49637CC7ACD48588B303 00000000100d4430     guideXOS.obj
 0005:0002e450       __Str_ramdisk              00000000100d4450     guideXOS.obj
 0005:0002e478       __Str_reboot               00000000100d4478     guideXOS.obj
 0005:0002e4a0       __Str_red                  00000000100d44a0     guideXOS.obj
 0005:0002e4c0       __Str_run                  00000000100d44c0     guideXOS.obj
 0005:0002e4e0       __Str_rx__D39A1C9D3B6F06DFA54232E52A720737AE3E79D3FE7C2BB741AE270416705337 00000000100d44e0     guideXOS.obj
 0005:0002e500       __Str_ry__4CA0EB9B32FE5F7FFE9973966978F65544E53667BF1EC0928A334B7BF5D5DD2C 00000000100d4500     guideXOS.obj
 0005:0002e520       __Str_s                    00000000100d4520     guideXOS.obj
 0005:0002e538       __Str_s___not_the_typical_5min_patte_FE04931E97F164A61AF17079F0667B39C1E41034F285526D0501C8C3A24F16E4 00000000100d4538     guideXOS.obj
 0005:0002e590       __Str_s__35EBF432370AE37C3339023E7BD8A1B668457677118CAB40CD93279FA6BEB354 00000000100d4590     guideXOS.obj
 0005:0002e5b0       __Str_sanyo                00000000100d45b0     guideXOS.obj
 0005:0002e5d0       __Str_sci_worx_GmbH_4491D5729F1751922501309CA9E17E2F7E4725BC78559E080A329A27DBF2A0F5 00000000100d45d0     guideXOS.obj
 0005:0002e600       __Str_set_timeout_3_set_default_0__m_B41B300853D96F3523F1FA9AE254BCD4062D47D57D84DCEE1399CB7694F8CF9F 00000000100d4600     guideXOS.obj
 0005:0002e8b0       __Str_setbg                00000000100d48b0     guideXOS.obj
 0005:0002e8d0       __Str_setbg__ambiguous___multiple_im_51A316E150D28A65615EA656428960EF2EA918F082D74CC74BA6226B53ED0C86 00000000100d48d0     guideXOS.obj
 0005:0002e940       __Str_setbg__cannot_access_directory_30C81B55C50714884D0A89EAAF1FA0AD5F7C63DF2521DBEFF356FAFE155969AD 00000000100d4940     guideXOS.obj
 0005:0002e998       __Str_setbg__failed_to_load_image__n_379754E8A6917C0792CD66480B81ECE9211E8FFEB9E6AB20DE3968DEB8C5C7BA 00000000100d4998     guideXOS.obj
 0005:0002ea10       __Str_setbg__file_not_found___3E24DE3AD69F1732AB8EEEC3A74342DA17F0E693EBECE7751532E83259B04FE0 00000000100d4a10     guideXOS.obj
 0005:0002ea58       __Str_setbg__no_image_file_found_mat_7567F95C5BF2E60BE5ACDD25FF80B8EC3BFB3BB820AD3A78697BB17406083E80 00000000100d4a58     guideXOS.obj
 0005:0002eab8       __Str_setbg__unable_to_read_file___4B120FD07C2675879C40A1382E9830C427641BE4C4DAEC399F58A992432DFF07 00000000100d4ab8     guideXOS.obj
 0005:0002eb08       __Str_show_widgets_on_startup__C006F777930CF37264AB77B207FB813BA1ED956F01035362C5031E62707E7D6A 00000000100d4b08     guideXOS.obj
 0005:0002eb50       __Str_shutdown             00000000100d4b50     guideXOS.obj
 0005:0002eb78       __Str_start                00000000100d4b78     guideXOS.obj
 0005:0002eb98       __Str_stroke               00000000100d4b98     guideXOS.obj
 0005:0002ebc0       __Str_stroke_width__B43559A85871167850B801B5DE7033D4902C7EF1CAB78E702138FDACB9D85E47 00000000100d4bc0     guideXOS.obj
 0005:0002ebf0       __Str_tcp_connect_0A093B55575B4C2082A78DDEC66CB7BF4321DBB1B88E3127E07BD94B187EB8EF 00000000100d4bf0     guideXOS.obj
 0005:0002ec20       __Str_text                 00000000100d4c20     guideXOS.obj
 0005:0002ec40       __Str_th                   00000000100d4c40     guideXOS.obj
 0005:0002ec60       __Str_themrtaish           00000000100d4c60     guideXOS.obj
 0005:0002ec90       __Str_to_ask_your_network_administra_E02F65CB54FD79F14DBC4C571963171AA388C4D76D6CF108AD662389F67AC0CE 00000000100d4c90     guideXOS.obj
 0005:0002ed10       __Str_to_your_computer_s_hard_drive__A060DFEEA8858EAE9CCA7B1EFD02CD68328BAF1424280337A3634393AC3D83FA 00000000100d4d10     guideXOS.obj
 0005:0002ed68       __Str_true                 00000000100d4d68     guideXOS.obj
 0005:0002ed88       __Str_unknown_error_521B9505D8769F84154E3C002B4CACAF9A6D298A67712FB62A81BD704293C67A 00000000100d4d88     guideXOS.obj
 0005:0002edb8       __Str_untitled_txt_5FA04C12D3B43397C3BFC1FEB915582D92EADAB1333B1B8439AD12CDD26753E1 00000000100d4db8     guideXOS.obj
 0005:0002ede8       __Str_user                 00000000100d4de8     guideXOS.obj
 0005:0002ee08       __Str_vi                   00000000100d4e08     guideXOS.obj
 0005:0002ee28       __Str_viewBox              00000000100d4e28     guideXOS.obj
 0005:0002ee50       __Str_wchcn                00000000100d4e50     guideXOS.obj
 0005:0002ee70       __Str_white                00000000100d4e70     guideXOS.obj
 0005:0002ee90       __Str_width__260A1FE9CCDB8A53CADFF2F8828A26439E206FC938912ED45C0F4946AB288949 00000000100d4e90     guideXOS.obj
 0005:0002eeb8       __Str_workspaces           00000000100d4eb8     guideXOS.obj
 0005:0002eee8       __Str_x2                   00000000100d4ee8     guideXOS.obj
 0005:0002ef08       __Str_x87_FLOATING_POINT_EXCEPTION_BD050129B8C2C4FD5EE32AF2FB00D7BB9E66B741FD3141F1D7C3DFB45C1E6C29 00000000100d4f08     guideXOS.obj
 0005:0002ef58       __Str_x__615A74A0C4E3D2E6058089130C470E7F85F6319363E1A527DAC247FD75D7B7EE 00000000100d4f58     guideXOS.obj
 0005:0002ef78       __Str_y__8D202815AD5CEF62A371E179AEA28A23EB6AC5E1FB34F4DC62A854CF9E471304 00000000100d4f78     guideXOS.obj
 0005:0002ef98       __Str_your_newly_installed_guideXOS__63195B96B1F806F59D907453FDDEA9B6DCD24475B927F0169B66F2A3202DD3D1 00000000100d4f98     guideXOS.obj
 0005:0002eff8       __Str_zxcvbnm____7DD25DD206A65EF0A4B18C8813761D2170D0C1127527D52E5F4EEE630CB56A37 00000000100d4ff8     guideXOS.obj
 0005:0002f028       __Str___username___04E031EC5D373D4173D279D830522A135A2F122415707768ECC5C4DF1157B717 00000000100d5028     guideXOS.obj
 0005:0002f058       __Str__0___1CB7E307B1C3AF12E3F6178E660ED2750479B5AE559131F40CBC40A307121E58 00000000100d5058     guideXOS.obj
 0005:0002f078       __Str__0___1___2___3______4_x2___5_x_A2151749AAEF09DBA259D25DB7ABED7F301549949862E982A6259E25C74127B7 00000000100d5078     guideXOS.obj
 0005:0002f108       __Str__0__0_1__A37B61851EFE65D362118E5C922CFA5D0E942072439CB3EFA007A9DA0BE28CD8 00000000100d5108     guideXOS.obj
 0005:0002f130       __Str__0___1__54D5E469507CAB22A4B03A9C09AB860E9B7E14418940C177A039FC4D842229A2 00000000100d5130     guideXOS.obj
 0005:0002f158       __Str__0_x_1__0EC7B0B031B60429496C7E47D3BBFDC5F216FFA7A0FC24DAB1FFBDAD039F91C3 00000000100d5158     guideXOS.obj
 0005:0002f180       __Str___D34E9CD20975DE76F07459CD78E5F80EEA529CCCFC79996B3A9361478AD544F2 00000000100d5180     guideXOS.obj
 0005:0002f198       __Str___40F6916B78CE91E89F740A14CDC77AB0E69292DAEFB8E06ABE4B67637CCC30C5 00000000100d5198     guideXOS.obj
 0005:0002f1b0       __Str_______________5A2C9039C732C5408E1D83335019D13E3D6E9FACEB52D6A9FBDFA90F6B06DC46 00000000100d51b0     guideXOS.obj
 0005:0002f1e0       __Str___FD1C1772F1DF8498646A27A3B83337BAB3FEAF9E1B086262D89D255CC7C3C095 00000000100d51e0     guideXOS.obj
 0005:0002f1f8       __Str___CURRENT_0BD346A692828A766EDAB22D6AAD43413990EC83294EC3333FBD6138E54F48AC 00000000100d51f8     guideXOS.obj
 0005:0002f220       __FrozenObj_guideXOS_guideXOS_GUI_DisplayOptions___c____9 00000000100d5220     guideXOS.obj
 0005:0002f230       __FrozenObj_guideXOS_guideXOS_Modules_ModuleManager___c____9 00000000100d5230     guideXOS.obj
 0005:0002f240       __FrozenObj_guideXOS_Program___c____9 00000000100d5240     guideXOS.obj
 0005:0002f250       __FrozenObj_guideXOS_guideXOS_Kernel_Drivers_DisplayManager___AvailableResolutions_k__BackingField 00000000100d5250     guideXOS.obj
 0005:0002f298       __FrozenObj_guideXOS_Allocator___sync 00000000100d5298     guideXOS.obj
 0005:0002f2a8       __FrozenSegmentRegionEnd   00000000100d52a8     guideXOS.obj
 0005:0002f2a8       __GCStaticRegionStart      00000000100d52a8     guideXOS.obj
 0005:0002f420       __GCStaticRegionEnd        00000000100d5420     guideXOS.obj
 0005:0002f420       __typemanager_indirection  00000000100d5420     guideXOS.obj
 0005:0002f430       __pinvoke_guideXOS__Module__Error__Error__Ansi 00000000100d5430     guideXOS.obj
 0005:0002f450       ?__NONGCSTATICS@guideXOS_Program@@ 00000000100d5450     guideXOS.obj
 0005:0002f460       ?__NONGCSTATICS@guideXOS_Allocator@@ 00000000100d5460     guideXOS.obj
 0005:0036f530       ?__NONGCSTATICS@guideXOS_System_StringPool@@ 0000000010415530     guideXOS.obj
 0005:0036f536       ?__NONGCSTATICS@guideXOS_guideXOS_Network_Http@@ 0000000010415536     guideXOS.obj
 0005:0036f538       ?__NONGCSTATICS@guideXOS_guideXOS_Kernel_Drivers_DisplayManager@@ 0000000010415538     guideXOS.obj
 0005:0036f53c       ?__NONGCSTATICS@guideXOS_guideXOS_Kernel_Drivers_PS2Mouse@@ 000000001041553c     guideXOS.obj
 0005:0036f578       ?__NONGCSTATICS@guideXOS_guideXOS_Kernel_Drivers_SATA@@ 0000000010415578     guideXOS.obj
 0005:0036f590       ?__NONGCSTATICS@guideXOS_guideXOS_Kernel_Drivers_USBStorage@@ 0000000010415590     guideXOS.obj
 0005:0036f5a8       ?__NONGCSTATICS@guideXOS_guideXOS_OS_Firewall@@ 00000000104155a8     guideXOS.obj
 0005:0036f5ac       ?__NONGCSTATICS@guideXOS_guideXOS_OS_SystemMode@@ 00000000104155ac     guideXOS.obj
 0005:0036f5c0       ?__NONGCSTATICS@guideXOS_guideXOS_GUI_Desktop@@ 00000000104155c0     guideXOS.obj
 0005:0036f5c0       ?__NONGCSTATICS@guideXOS_guideXOS_Modules_ModuleManager@@ 00000000104155c0     guideXOS.obj
 0005:0036f5f0       ?__NONGCSTATICS@guideXOS_guideXOS_GUI_Icons@@ 00000000104155f0     guideXOS.obj
 0005:0036f608       ?__NONGCSTATICS@guideXOS_guideXOS_GUI_OnScreenKeyboard@@ 0000000010415608     guideXOS.obj
 0005:0036f618       ?__NONGCSTATICS@guideXOS_guideXOS_GUI_PinnedManager@@ 0000000010415618     guideXOS.obj
 0005:0036f628       ?__NONGCSTATICS@guideXOS_guideXOS_GUI_RecentManager@@ 0000000010415628     guideXOS.obj
 0005:0036f628       ?__NONGCSTATICS@guideXOS_guideXOS_GUI_SpecialEffects@@ 0000000010415628     guideXOS.obj
 0005:0036f62c       ?__NONGCSTATICS@guideXOS_guideXOS_GUI_StartMenu@@ 000000001041562c     guideXOS.obj
 0005:0036f63c       ?__NONGCSTATICS@guideXOS_guideXOS_GUI_UISettings@@ 000000001041563c     guideXOS.obj
 0005:0036f878       ?__NONGCSTATICS@guideXOS_guideXOS_GUI_WorkspaceManager@@ 0000000010415878     guideXOS.obj
 0005:0036f884       ?__NONGCSTATICS@guideXOS_guideXOS_DockableWidgets_Clock@@ 0000000010415884     guideXOS.obj
 0005:0036f88c       ?__NONGCSTATICS@guideXOS_guideXOS_DefaultApps_nexIRC@@ 000000001041588c     guideXOS.obj
 0005:0036f88e       ?__NONGCSTATICS@guideXOS_guideXOS_DefaultApps_WebBrowser@@ 000000001041588e     guideXOS.obj
 0005:0036f8a0       ?__GCSTATICS@guideXOS_Program@@ 00000000104158a0     guideXOS.obj
 0005:0036f8a0       ?__NONGCSTATICS@guideXOS_System_Array_EmptyArray_1<String>@@ 00000000104158a0     guideXOS.obj
 0005:0036f8b0       ?__GCSTATICS@guideXOS_Allocator@@ 00000000104158b0     guideXOS.obj
 0005:0036f8c0       ?__GCSTATICS@guideXOS_IDT@@ 00000000104158c0     guideXOS.obj
 0005:0036f8c8       ?__GCSTATICS@guideXOS_System_DateTime@@ 00000000104158c8     guideXOS.obj
 0005:0036f8d0       ?__GCSTATICS@guideXOS_System_StringPool@@ 00000000104158d0     guideXOS.obj
 0005:0036f8d8       ?__GCSTATICS@guideXOS_guideXOS_Animator@@ 00000000104158d8     guideXOS.obj
 0005:0036f8e0       ?__GCSTATICS@guideXOS_guideXOS_ASC16@@ 00000000104158e0     guideXOS.obj
 0005:0036f8e8       ?__GCSTATICS@guideXOS_guideXOS_Console@@ 00000000104158e8     guideXOS.obj
 0005:0036f8f0       ?__GCSTATICS@guideXOS_guideXOS_NETv4@@ 00000000104158f0     guideXOS.obj
 0005:0036f8f8       ?__GCSTATICS@guideXOS_guideXOS_FS_Disk@@ 00000000104158f8     guideXOS.obj
 0005:0036f900       ?__GCSTATICS@guideXOS_guideXOS_FS_File@@ 0000000010415900     guideXOS.obj
 0005:0036f908       ?__GCSTATICS@guideXOS_guideXOS_Kernel_Drivers_AC97@@ 0000000010415908     guideXOS.obj
 0005:0036f910       ?__GCSTATICS@guideXOS_guideXOS_Kernel_Drivers_ACPI@@ 0000000010415910     guideXOS.obj
 0005:0036f918       ?__GCSTATICS@guideXOS_guideXOS_Kernel_Drivers_DisplayManager@@ 0000000010415918     guideXOS.obj
 0005:0036f928       ?__GCSTATICS@guideXOS_guideXOS_Kernel_Drivers_Framebuffer@@ 0000000010415928     guideXOS.obj
 0005:0036f930       ?__GCSTATICS@guideXOS_guideXOS_Kernel_Drivers_IDE@@ 0000000010415930     guideXOS.obj
 0005:0036f938       ?__GCSTATICS@guideXOS_guideXOS_Kernel_Drivers_Keyboard@@ 0000000010415938     guideXOS.obj
 0005:0036f940       ?__GCSTATICS@guideXOS_guideXOS_Kernel_Drivers_PCI@@ 0000000010415940     guideXOS.obj
 0005:0036f948       ?__GCSTATICS@guideXOS_guideXOS_Kernel_Drivers_PS2Mouse@@ 0000000010415948     guideXOS.obj
 0005:0036f958       ?__GCSTATICS@guideXOS_guideXOS_Kernel_Drivers_SATA@@ 0000000010415958     guideXOS.obj
 0005:0036f968       ?__GCSTATICS@guideXOS_guideXOS_Kernel_Drivers_USBStorage@@ 0000000010415968     guideXOS.obj
 0005:0036f970       ?__GCSTATICS@guideXOS_guideXOS_OS_Firewall@@ 0000000010415970     guideXOS.obj
 0005:0036f978       ?__GCSTATICS@guideXOS_guideXOS_OS_Session@@ 0000000010415978     guideXOS.obj
 0005:0036f988       ?__GCSTATICS@guideXOS_guideXOS_OS_SystemMode@@ 0000000010415988     guideXOS.obj
 0005:0036f998       ?__GCSTATICS@guideXOS_guideXOS_Modules_ModuleManager@@ 0000000010415998     guideXOS.obj
 0005:0036f9a0       ?__GCSTATICS@guideXOS_guideXOS_Misc_BootSplash@@ 00000000104159a0     guideXOS.obj
 0005:0036f9a8       ?__GCSTATICS@guideXOS_guideXOS_Misc_Interrupts@@ 00000000104159a8     guideXOS.obj
 0005:0036f9b0       ?__GCSTATICS@guideXOS_guideXOS_Misc_ThreadPool@@ 00000000104159b0     guideXOS.obj
 0005:0036f9b8       ?__GCSTATICS@guideXOS_guideXOS_GUI_BackgroundRotationManager@@ 00000000104159b8     guideXOS.obj
 0005:0036f9c0       ?__GCSTATICS@guideXOS_guideXOS_GUI_Desktop@@ 00000000104159c0     guideXOS.obj
 0005:0036f9d0       ?__GCSTATICS@guideXOS_guideXOS_GUI_Icons@@ 00000000104159d0     guideXOS.obj
 0005:0036f9d8       ?__GCSTATICS@guideXOS_guideXOS_GUI_Lockscreen@@ 00000000104159d8     guideXOS.obj
 0005:0036f9e0       ?__GCSTATICS@guideXOS_guideXOS_GUI_NotificationManager@@ 00000000104159e0     guideXOS.obj
 0005:0036f9e8       ?__GCSTATICS@guideXOS_guideXOS_GUI_OnScreenKeyboard@@ 00000000104159e8     guideXOS.obj
 0005:0036f9f0       ?__GCSTATICS@guideXOS_guideXOS_GUI_PinnedManager@@ 00000000104159f0     guideXOS.obj
 0005:0036f9f8       ?__GCSTATICS@guideXOS_guideXOS_GUI_RecentManager@@ 00000000104159f8     guideXOS.obj
 0005:0036fa00       ?__GCSTATICS@guideXOS_guideXOS_GUI_SpecialEffects@@ 0000000010415a00     guideXOS.obj
 0005:0036fa10       ?__GCSTATICS@guideXOS_guideXOS_GUI_WindowManager@@ 0000000010415a10     guideXOS.obj
 0005:0036fa18       ?__GCSTATICS@guideXOS_guideXOS_GUI_WorkspaceManager@@ 0000000010415a18     guideXOS.obj
 0005:0036fa20       ?__GCSTATICS@guideXOS_guideXOS_DockableWidgets_Clock@@ 0000000010415a20     guideXOS.obj
 0005:0036fa30       ?__GCSTATICS@guideXOS_guideXOS_DockableWidgets_Uptime@@ 0000000010415a30     guideXOS.obj
 0005:0036fa38       ?__GCSTATICS@guideXOS_guideXOS_DefaultApps_WAVPlayer@@ 0000000010415a38     guideXOS.obj
 0005:0036fa40       ?__GCSTATICS@guideXOS_Program___c@@ 0000000010415a40     guideXOS.obj
 0005:0036fa50       ?__GCSTATICS@guideXOS_guideXOS_Modules_ModuleManager___c@@ 0000000010415a50     guideXOS.obj
 0005:0036fa60       ?__GCSTATICS@guideXOS_guideXOS_GUI_DisplayOptions___c@@ 0000000010415a60     guideXOS.obj
 0005:0036fa70       ?__GCSTATICS@guideXOS_guideXOS_GUI_SaveDialog___O@@ 0000000010415a70     guideXOS.obj
 0005:0036fa78       ?__GCSTATICS@guideXOS_System_Array_EmptyArray_1<String>@@ 0000000010415a78     guideXOS.obj
 0005:0036fa80       __module_initializers      0000000010415a80     guideXOS.obj
 0005:0036fa80       __module_initializers_End  0000000010415a80     guideXOS.obj
 0005:0036fa80       __nativemodule_guideXOS__Module__Error 0000000010415a80     guideXOS.obj
 0005:0036faa0       ?__NONGCSTATICS@guideXOS_GDT@@ 0000000010415aa0     guideXOS.obj
 0005:0036fb4a       ?__NONGCSTATICS@guideXOS_IDT@@ 0000000010415b4a     guideXOS.obj
 0005:0036fb58       ?__NONGCSTATICS@guideXOS_System_Windows_Forms_Control@@ 0000000010415b58     guideXOS.obj
 0005:0036fb64       ?__NONGCSTATICS@guideXOS_guideXOS_Kbd2Mouse@@ 0000000010415b64     guideXOS.obj
 0005:0036fb6c       ?__NONGCSTATICS@guideXOS_guideXOS_Console@@ 0000000010415b6c     guideXOS.obj
 0005:0036fb78       ?__NONGCSTATICS@guideXOS_guideXOS_PageTable@@ 0000000010415b78     guideXOS.obj
 0005:0036fb80       ?__NONGCSTATICS@guideXOS_guideXOS_Intel825xx@@ 0000000010415b80     guideXOS.obj
 0005:0036fba0       ?__NONGCSTATICS@guideXOS_guideXOS_NETv4@@ 0000000010415ba0     guideXOS.obj
 0005:0036fbd0       ?__NONGCSTATICS@guideXOS_guideXOS_RTL8111@@ 0000000010415bd0     guideXOS.obj
 0005:0036fbe8       ?__NONGCSTATICS@guideXOS_guideXOS_SMP@@ 0000000010415be8     guideXOS.obj
 0005:0036fbf0       ?__NONGCSTATICS@guideXOS_guideXOS_Kernel_Drivers_AC97@@ 0000000010415bf0     guideXOS.obj
 0005:0036fc10       ?__NONGCSTATICS@guideXOS_guideXOS_Kernel_Drivers_ACPI@@ 0000000010415c10     guideXOS.obj
 0005:0036fc40       ?__NONGCSTATICS@guideXOS_guideXOS_Kernel_Drivers_EHCI@@ 0000000010415c40     guideXOS.obj
 0005:0036fca0       ?__NONGCSTATICS@guideXOS_guideXOS_Kernel_Drivers_Framebuffer@@ 0000000010415ca0     guideXOS.obj
 0005:0036fcc8       ?__NONGCSTATICS@guideXOS_guideXOS_Kernel_Drivers_HPET@@ 0000000010415cc8     guideXOS.obj
 0005:0036fcd0       ?__NONGCSTATICS@guideXOS_guideXOS_Kernel_Drivers_Keyboard@@ 0000000010415cd0     guideXOS.obj
 0005:0036fce0       ?__NONGCSTATICS@guideXOS_guideXOS_Kernel_Drivers_PS2Keyboard@@ 0000000010415ce0     guideXOS.obj
 0005:0036fcf0       ?__NONGCSTATICS@guideXOS_guideXOS_Kernel_Drivers_RTC@@ 0000000010415cf0     guideXOS.obj
 0005:0036fcf8       ?__NONGCSTATICS@guideXOS_guideXOS_Kernel_Drivers_Timer@@ 0000000010415cf8     guideXOS.obj
 0005:0036fd10       ?__NONGCSTATICS@guideXOS_guideXOS_Kernel_Drivers_VMwareTools@@ 0000000010415d10     guideXOS.obj
 0005:0036fd11       ?__NONGCSTATICS@guideXOS_guideXOS_OS_Configuration@@ 0000000010415d11     guideXOS.obj
 0005:0036fd18       ?__NONGCSTATICS@guideXOS_guideXOS_Misc_Audio@@ 0000000010415d18     guideXOS.obj
 0005:0036fd30       ?__NONGCSTATICS@guideXOS_guideXOS_Misc_BootSplash@@ 0000000010415d30     guideXOS.obj
 0005:0036fd68       ?__NONGCSTATICS@guideXOS_guideXOS_Misc_Panic@@ 0000000010415d68     guideXOS.obj
 0005:0036fd70       ?__NONGCSTATICS@guideXOS_guideXOS_Misc_ThreadPool@@ 0000000010415d70     guideXOS.obj
 0005:0036fd90       ?__NONGCSTATICS@guideXOS_guideXOS_GUI_BackgroundRotationManager@@ 0000000010415d90     guideXOS.obj
 0005:0036fdb8       ?__NONGCSTATICS@guideXOS_guideXOS_GUI_Busy@@ 0000000010415db8     guideXOS.obj
 0005:0036fdc0       ?__NONGCSTATICS@guideXOS_guideXOS_GUI_WindowManager@@ 0000000010415dc0     guideXOS.obj
 0005:0036fdd8       ?__NONGCSTATICS@guideXOS_guideXOS_DockableWidgets_Uptime@@ 0000000010415dd8     guideXOS.obj
 0005:0036fde8       ?__NONGCSTATICS@guideXOS_guideXOS_DefaultApps_WAVPlayer@@ 0000000010415de8     guideXOS.obj
 0005:0036fe20       __writableDataBool         0000000010415e20     guideXOS.obj
 0005:0036fe28       __writableDataChar         0000000010415e28     guideXOS.obj
 0005:0036fe30       __writableDataInt16        0000000010415e30     guideXOS.obj
 0005:0036fe38       __writableDataInt32        0000000010415e38     guideXOS.obj
 0005:0036fe40       __writableDataObject       0000000010415e40     guideXOS.obj
 0005:0036fe48       __writableDataSingle       0000000010415e48     guideXOS.obj
 0005:0036fe50       __writableDataString       0000000010415e50     guideXOS.obj
 0005:0036fe58       __writableDataUInt16       0000000010415e58     guideXOS.obj
 0005:0036fe60       __writableDataUInt32       0000000010415e60     guideXOS.obj
 0005:0036fe68       __writableDataUInt64       0000000010415e68     guideXOS.obj
 0005:0036fe70       __writableDataUInt8        0000000010415e70     guideXOS.obj
 0005:0036fe78       __writableData__Array<Bool> 0000000010415e78     guideXOS.obj
 0005:0036fe80       __writableData__Array<Char> 0000000010415e80     guideXOS.obj
 0005:0036fe88       __writableData__Array<Int16> 0000000010415e88     guideXOS.obj
 0005:0036fe90       __writableData__Array<Int32> 0000000010415e90     guideXOS.obj
 0005:0036fe98       __writableData__Array<Object> 0000000010415e98     guideXOS.obj
 0005:0036fea0       __writableData__Array<Single> 0000000010415ea0     guideXOS.obj
 0005:0036fea8       __writableData__Array<String> 0000000010415ea8     guideXOS.obj
 0005:0036feb0       __writableData__Array<UInt32> 0000000010415eb0     guideXOS.obj
 0005:0036feb8       __writableData__Array<UInt64> 0000000010415eb8     guideXOS.obj
 0005:0036fec0       __writableData__Array<UInt8> 0000000010415ec0     guideXOS.obj
 0005:0036fec8       __writableData__Array<__Array<UInt8>> 0000000010415ec8     guideXOS.obj
 0005:0036fed0       __writableData__Array<guideXOS_Allocator_OwnerSnapshot> 0000000010415ed0     guideXOS.obj
 0005:0036fed8       __writableData__Array<guideXOS_IDT_IDTEntry> 0000000010415ed8     guideXOS.obj
 0005:0036fee0       __writableData__Array<guideXOS_System_Drawing_Image> 0000000010415ee0     guideXOS.obj
 0005:0036fee8       __writableData__Array<guideXOS_System_Drawing_Point> 0000000010415ee8     guideXOS.obj
 0005:0036fef0       __writableData__Array<guideXOS_guideXOS_DefaultApps_Devices_Row> 0000000010415ef0     guideXOS.obj
 0005:0036fef8       __writableData__Array<guideXOS_guideXOS_DefaultApps_DiskManager_DiskEntry> 0000000010415ef8     guideXOS.obj
 0005:0036ff00       __writableData__Array<guideXOS_guideXOS_DefaultApps_DiskManager_Part> 0000000010415f00     guideXOS.obj
 0005:0036ff08       __writableData__Array<guideXOS_guideXOS_DefaultApps_DriveInfo> 0000000010415f08     guideXOS.obj
 0005:0036ff10       __writableData__Array<guideXOS_guideXOS_DefaultApps_HDInstaller_DiskInfo> 0000000010415f10     guideXOS.obj
 0005:0036ff18       __writableData__Array<guideXOS_guideXOS_DefaultApps_IRCNetworks_Entry> 0000000010415f18     guideXOS.obj
 0005:0036ff20       __writableData__Array<guideXOS_guideXOS_DefaultApps_PaintTool> 0000000010415f20     guideXOS.obj
 0005:0036ff28       __writableData__Array<guideXOS_guideXOS_DefaultApps_WebBrowser_BrowserTab> 0000000010415f28     guideXOS.obj
 0005:0036ff30       __writableData__Array<guideXOS_guideXOS_DefaultApps_WebBrowser_RenderElement> 0000000010415f30     guideXOS.obj
 0005:0036ff38       __writableData__Array<guideXOS_guideXOS_FS_EXT2_DirEnt> 0000000010415f38     guideXOS.obj
 0005:0036ff40       __writableData__Array<guideXOS_guideXOS_FS_FileInfo> 0000000010415f40     guideXOS.obj
 0005:0036ff48       __writableData__Array<guideXOS_guideXOS_GUI_DockableWidget> 0000000010415f48     guideXOS.obj
 0005:0036ff50       __writableData__Array<guideXOS_guideXOS_GUI_GXMScriptWindow_Btn> 0000000010415f50     guideXOS.obj
 0005:0036ff58       __writableData__Array<guideXOS_guideXOS_GUI_GXMScriptWindow_Callback> 0000000010415f58     guideXOS.obj
 0005:0036ff60       __writableData__Array<guideXOS_guideXOS_GUI_GXMScriptWindow_DropdownDef> 0000000010415f60     guideXOS.obj
 0005:0036ff68       __writableData__Array<guideXOS_guideXOS_GUI_GXMScriptWindow_Label> 0000000010415f68     guideXOS.obj
 0005:0036ff70       __writableData__Array<guideXOS_guideXOS_GUI_GXMScriptWindow_ListViewDef> 0000000010415f70     guideXOS.obj
 0005:0036ff78       __writableData__Array<guideXOS_guideXOS_GUI_GXMScriptWindow_TextBoxDef> 0000000010415f78     guideXOS.obj
 0005:0036ff80       __writableData__Array<guideXOS_guideXOS_GUI_PinnedManager_Pinned> 0000000010415f80     guideXOS.obj
 0005:0036ff88       __writableData__Array<guideXOS_guideXOS_GUI_RecentDocumentEntry> 0000000010415f88     guideXOS.obj
 0005:0036ff90       __writableData__Array<guideXOS_guideXOS_GUI_RecentProgramEntry> 0000000010415f90     guideXOS.obj
 0005:0036ff98       __writableData__Array<guideXOS_guideXOS_GUI_StartMenu_AppEntry> 0000000010415f98     guideXOS.obj
 0005:0036ffa0       __writableData__Array<guideXOS_guideXOS_GUI_USBDrives_Entry> 0000000010415fa0     guideXOS.obj
 0005:0036ffa8       __writableData__Array<guideXOS_guideXOS_GUI_Widgets_Button> 0000000010415fa8     guideXOS.obj
 0005:0036ffb0       __writableData__Array<guideXOS_guideXOS_GUI_Window> 0000000010415fb0     guideXOS.obj
 0005:0036ffb8       __writableData__Array<guideXOS_guideXOS_GUI_WindowEffectType> 0000000010415fb8     guideXOS.obj
 0005:0036ffc0       __writableData__Array<guideXOS_guideXOS_GUI_WorkspaceSwitcher_WindowSnapshot> 0000000010415fc0     guideXOS.obj
 0005:0036ffc8       __writableData__Array<guideXOS_guideXOS_Kernel_Drivers_IDEDevice> 0000000010415fc8     guideXOS.obj
 0005:0036ffd0       __writableData__Array<guideXOS_guideXOS_Kernel_Drivers_PCIDevice> 0000000010415fd0     guideXOS.obj
 0005:0036ffd8       __writableData__Array<guideXOS_guideXOS_Kernel_Drivers_Resolution> 0000000010415fd8     guideXOS.obj
 0005:0036ffe0       __writableData__Array<guideXOS_guideXOS_Kernel_Drivers_SATA_SATADevice> 0000000010415fe0     guideXOS.obj
 0005:0036ffe8       __writableData__Array<guideXOS_guideXOS_Misc_Interrupts_INT> 0000000010415fe8     guideXOS.obj
 0005:0036fff0       __writableData__Array<guideXOS_guideXOS_Misc_Thread> 0000000010415ff0     guideXOS.obj
 0005:0036fff8       __writableData__Array<guideXOS_guideXOS_Misc_TrueTypeFont_Point> 0000000010415ff8     guideXOS.obj
 0005:00370000       __writableData__Array<guideXOS_guideXOS_Misc_TrueTypeFont_TableRecord> 0000000010416000     guideXOS.obj
 0005:00370008       __writableData__Array<guideXOS_guideXOS_Misc_USBDevice> 0000000010416008     guideXOS.obj
 0005:00370010       __writableData__Array<guideXOS_guideXOS_Modules_ModuleManager_ModuleEntry> 0000000010416010     guideXOS.obj
 0005:00370018       __writableData__Array<guideXOS_guideXOS_NETv4_ARPCache> 0000000010416018     guideXOS.obj
 0005:00370020       __writableData__Array<guideXOS_guideXOS_NETv4_TCPClient> 0000000010416020     guideXOS.obj
 0005:00370028       __writableData__Array<guideXOS_guideXOS_NETv4_UDPClient> 0000000010416028     guideXOS.obj
 0005:00370030       __writableData__Array<guideXOS_guideXOS_Network_Http_Header> 0000000010416030     guideXOS.obj
 0005:00370038       __writableData__Array<guideXOS_guideXOS_OS_FirewallMode> 0000000010416038     guideXOS.obj
 0005:00370040       __writableDataguideXOS_Allocator_OwnerSnapshot 0000000010416040     guideXOS.obj
 0005:00370048       __writableDataguideXOS_IDT_IDTEntry 0000000010416048     guideXOS.obj
 0005:00370050       __writableDataguideXOS_Program___c 0000000010416050     guideXOS.obj
 0005:00370058       __writableDataguideXOS_System_Action 0000000010416058     guideXOS.obj
 0005:00370060       __writableDataguideXOS_System_Action_1 0000000010416060     guideXOS.obj
 0005:00370068       __writableDataguideXOS_System_Action_1<String> 0000000010416068     guideXOS.obj
 0005:00370070       __writableDataguideXOS_System_Action_1<UInt32> 0000000010416070     guideXOS.obj
 0005:00370078       __writableDataguideXOS_System_Array 0000000010416078     guideXOS.obj
 0005:00370080       __writableDataguideXOS_System_Array_EmptyArray_1 0000000010416080     guideXOS.obj
 0005:00370088       __writableDataguideXOS_System_Array_EmptyArray_1<String> 0000000010416088     guideXOS.obj
 0005:00370090       __writableDataguideXOS_System_Collections_Generic_Dictionary_2 0000000010416090     guideXOS.obj
 0005:00370098       __writableDataguideXOS_System_Collections_Generic_Dictionary_2<Char__Int32> 0000000010416098     guideXOS.obj
 0005:003700a0       __writableDataguideXOS_System_Collections_Generic_Dictionary_2<Char__guideXOS_System_Drawing_Image> 00000000104160a0     guideXOS.obj
 0005:003700a8       __writableDataguideXOS_System_Collections_Generic_Dictionary_2<String__guideXOS_guideXOS_Misc_TrueTypeFont_TableRecord> 00000000104160a8     guideXOS.obj
 0005:003700b0       __writableDataguideXOS_System_Collections_Generic_Dictionary_2<guideXOS_guideXOS_GUI_Widgets_Button__Int32> 00000000104160b0     guideXOS.obj
 0005:003700b8       __writableDataguideXOS_System_Collections_Generic_Dictionary_2<guideXOS_guideXOS_GUI_Widgets_Button__guideXOS_guideXOS_DefaultApps_PaintTool> 00000000104160b8     guideXOS.obj
 0005:003700c0       __writableDataguideXOS_System_Collections_Generic_List_1 00000000104160c0     guideXOS.obj
 0005:003700c8       __writableDataguideXOS_System_Collections_Generic_List_1<Bool> 00000000104160c8     guideXOS.obj
 0005:003700d0       __writableDataguideXOS_System_Collections_Generic_List_1<Char> 00000000104160d0     guideXOS.obj
 0005:003700d8       __writableDataguideXOS_System_Collections_Generic_List_1<Int32> 00000000104160d8     guideXOS.obj
 0005:003700e0       __writableDataguideXOS_System_Collections_Generic_List_1<String> 00000000104160e0     guideXOS.obj
 0005:003700e8       __writableDataguideXOS_System_Collections_Generic_List_1<UInt32> 00000000104160e8     guideXOS.obj
 0005:003700f0       __writableDataguideXOS_System_Collections_Generic_List_1<UInt64> 00000000104160f0     guideXOS.obj
 0005:003700f8       __writableDataguideXOS_System_Collections_Generic_List_1<UInt8> 00000000104160f8     guideXOS.obj
 0005:00370100       __writableDataguideXOS_System_Collections_Generic_List_1<__Array<UInt8>> 0000000010416100     guideXOS.obj
 0005:00370108       __writableDataguideXOS_System_Collections_Generic_List_1<guideXOS_System_Drawing_Image> 0000000010416108     guideXOS.obj
 0005:00370110       __writableDataguideXOS_System_Collections_Generic_List_1<guideXOS_System_Drawing_Point> 0000000010416110     guideXOS.obj
 0005:00370118       __writableDataguideXOS_System_Collections_Generic_List_1<guideXOS_guideXOS_DefaultApps_DiskManager_DiskEntry> 0000000010416118     guideXOS.obj
 0005:00370120       __writableDataguideXOS_System_Collections_Generic_List_1<guideXOS_guideXOS_DefaultApps_DriveInfo> 0000000010416120     guideXOS.obj
 0005:00370128       __writableDataguideXOS_System_Collections_Generic_List_1<guideXOS_guideXOS_DefaultApps_HDInstaller_DiskInfo> 0000000010416128     guideXOS.obj
 0005:00370130       __writableDataguideXOS_System_Collections_Generic_List_1<guideXOS_guideXOS_DefaultApps_IRCNetworks_Entry> 0000000010416130     guideXOS.obj
 0005:00370138       __writableDataguideXOS_System_Collections_Generic_List_1<guideXOS_guideXOS_DefaultApps_PaintTool> 0000000010416138     guideXOS.obj
 0005:00370140       __writableDataguideXOS_System_Collections_Generic_List_1<guideXOS_guideXOS_DefaultApps_WebBrowser_BrowserTab> 0000000010416140     guideXOS.obj
 0005:00370148       __writableDataguideXOS_System_Collections_Generic_List_1<guideXOS_guideXOS_DefaultApps_WebBrowser_RenderElement> 0000000010416148     guideXOS.obj
 0005:00370150       __writableDataguideXOS_System_Collections_Generic_List_1<guideXOS_guideXOS_FS_EXT2_DirEnt> 0000000010416150     guideXOS.obj
 0005:00370158       __writableDataguideXOS_System_Collections_Generic_List_1<guideXOS_guideXOS_FS_FileInfo> 0000000010416158     guideXOS.obj
 0005:00370160       __writableDataguideXOS_System_Collections_Generic_List_1<guideXOS_guideXOS_GUI_DockableWidget> 0000000010416160     guideXOS.obj
 0005:00370168       __writableDataguideXOS_System_Collections_Generic_List_1<guideXOS_guideXOS_GUI_GXMScriptWindow_Btn> 0000000010416168     guideXOS.obj
 0005:00370170       __writableDataguideXOS_System_Collections_Generic_List_1<guideXOS_guideXOS_GUI_GXMScriptWindow_Callback> 0000000010416170     guideXOS.obj
 0005:00370178       __writableDataguideXOS_System_Collections_Generic_List_1<guideXOS_guideXOS_GUI_GXMScriptWindow_DropdownDef> 0000000010416178     guideXOS.obj
 0005:00370180       __writableDataguideXOS_System_Collections_Generic_List_1<guideXOS_guideXOS_GUI_GXMScriptWindow_Label> 0000000010416180     guideXOS.obj
 0005:00370188       __writableDataguideXOS_System_Collections_Generic_List_1<guideXOS_guideXOS_GUI_GXMScriptWindow_ListViewDef> 0000000010416188     guideXOS.obj
 0005:00370190       __writableDataguideXOS_System_Collections_Generic_List_1<guideXOS_guideXOS_GUI_GXMScriptWindow_TextBoxDef> 0000000010416190     guideXOS.obj
 0005:00370198       __writableDataguideXOS_System_Collections_Generic_List_1<guideXOS_guideXOS_GUI_PinnedManager_Pinned> 0000000010416198     guideXOS.obj
 0005:003701a0       __writableDataguideXOS_System_Collections_Generic_List_1<guideXOS_guideXOS_GUI_RecentDocumentEntry> 00000000104161a0     guideXOS.obj
 0005:003701a8       __writableDataguideXOS_System_Collections_Generic_List_1<guideXOS_guideXOS_GUI_RecentProgramEntry> 00000000104161a8     guideXOS.obj
 0005:003701b0       __writableDataguideXOS_System_Collections_Generic_List_1<guideXOS_guideXOS_GUI_Widgets_Button> 00000000104161b0     guideXOS.obj
 0005:003701b8       __writableDataguideXOS_System_Collections_Generic_List_1<guideXOS_guideXOS_GUI_Window> 00000000104161b8     guideXOS.obj
 0005:003701c0       __writableDataguideXOS_System_Collections_Generic_List_1<guideXOS_guideXOS_GUI_WorkspaceSwitcher_WindowSnapshot> 00000000104161c0     guideXOS.obj
 0005:003701c8       __writableDataguideXOS_System_Collections_Generic_List_1<guideXOS_guideXOS_Kernel_Drivers_IDEDevice> 00000000104161c8     guideXOS.obj
 0005:003701d0       __writableDataguideXOS_System_Collections_Generic_List_1<guideXOS_guideXOS_Kernel_Drivers_PCIDevice> 00000000104161d0     guideXOS.obj
 0005:003701d8       __writableDataguideXOS_System_Collections_Generic_List_1<guideXOS_guideXOS_Kernel_Drivers_SATA_SATADevice> 00000000104161d8     guideXOS.obj
 0005:003701e0       __writableDataguideXOS_System_Collections_Generic_List_1<guideXOS_guideXOS_Misc_Interrupts_INT> 00000000104161e0     guideXOS.obj
 0005:003701e8       __writableDataguideXOS_System_Collections_Generic_List_1<guideXOS_guideXOS_Misc_Thread> 00000000104161e8     guideXOS.obj
 0005:003701f0       __writableDataguideXOS_System_Collections_Generic_List_1<guideXOS_guideXOS_Misc_TrueTypeFont_Point> 00000000104161f0     guideXOS.obj
 0005:003701f8       __writableDataguideXOS_System_Collections_Generic_List_1<guideXOS_guideXOS_Misc_TrueTypeFont_TableRecord> 00000000104161f8     guideXOS.obj
 0005:00370200       __writableDataguideXOS_System_Collections_Generic_List_1<guideXOS_guideXOS_Misc_USBDevice> 0000000010416200     guideXOS.obj
 0005:00370208       __writableDataguideXOS_System_Collections_Generic_List_1<guideXOS_guideXOS_Modules_ModuleManager_ModuleEntry> 0000000010416208     guideXOS.obj
 0005:00370210       __writableDataguideXOS_System_Collections_Generic_List_1<guideXOS_guideXOS_NETv4_ARPCache> 0000000010416210     guideXOS.obj
 0005:00370218       __writableDataguideXOS_System_Collections_Generic_List_1<guideXOS_guideXOS_NETv4_TCPClient> 0000000010416218     guideXOS.obj
 0005:00370220       __writableDataguideXOS_System_Collections_Generic_List_1<guideXOS_guideXOS_NETv4_UDPClient> 0000000010416220     guideXOS.obj
 0005:00370228       __writableDataguideXOS_System_Collections_Generic_List_1<guideXOS_guideXOS_Network_Http_Header> 0000000010416228     guideXOS.obj
 0005:00370230       __writableDataguideXOS_System_Collections_Generic_Queue_1 0000000010416230     guideXOS.obj
 0005:00370238       __writableDataguideXOS_System_Collections_Generic_Queue_1<__Array<UInt8>> 0000000010416238     guideXOS.obj
 0005:00370240       __writableDataguideXOS_System_ConsoleKeyInfo 0000000010416240     guideXOS.obj
 0005:00370248       __writableDataguideXOS_System_Delegate 0000000010416248     guideXOS.obj
 0005:00370250       __writableDataguideXOS_System_Drawing_Image 0000000010416250     guideXOS.obj
 0005:00370258       __writableDataguideXOS_System_Drawing_Point 0000000010416258     guideXOS.obj
 0005:00370260       __writableDataguideXOS_System_Enum 0000000010416260     guideXOS.obj
 0005:00370268       __writableDataguideXOS_System_EventHandler_1 0000000010416268     guideXOS.obj
 0005:00370270       __writableDataguideXOS_System_EventHandler_1<guideXOS_System_ConsoleKeyInfo> 0000000010416270     guideXOS.obj
 0005:00370278       __writableDataguideXOS_System_Func_2 0000000010416278     guideXOS.obj
 0005:00370280       __writableDataguideXOS_System_Func_2<Int32__guideXOS_System_Drawing_Image> 0000000010416280     guideXOS.obj
 0005:00370288       __writableDataguideXOS_System_Func_5 0000000010416288     guideXOS.obj
 0005:00370290       __writableDataguideXOS_System_Func_5<String__Bool__UInt32__UInt32__Bool> 0000000010416290     guideXOS.obj
 0005:00370298       __writableDataguideXOS_System_MulticastDelegate 0000000010416298     guideXOS.obj
 0005:003702a0       __writableDataguideXOS_System_ValueType 00000000104162a0     guideXOS.obj
 0005:003702a8       __writableDataguideXOS__Module_ 00000000104162a8     guideXOS.obj
 0005:003702b0       __writableDataguideXOS_guideXOS_Animation 00000000104162b0     guideXOS.obj
 0005:003702b8       __writableDataguideXOS_guideXOS_Console 00000000104162b8     guideXOS.obj
 0005:003702c0       __writableDataguideXOS_guideXOS_Console_OnWriteHandler 00000000104162c0     guideXOS.obj
 0005:003702c8       __writableDataguideXOS_guideXOS_DefaultApps_Calculator 00000000104162c8     guideXOS.obj
 0005:003702d0       __writableDataguideXOS_guideXOS_DefaultApps_ComputerFiles 00000000104162d0     guideXOS.obj
 0005:003702d8       __writableDataguideXOS_guideXOS_DefaultApps_Devices 00000000104162d8     guideXOS.obj
 0005:003702e0       __writableDataguideXOS_guideXOS_DefaultApps_Devices_Row 00000000104162e0     guideXOS.obj
 0005:003702e8       __writableDataguideXOS_guideXOS_DefaultApps_DiskManager 00000000104162e8     guideXOS.obj
 0005:003702f0       __writableDataguideXOS_guideXOS_DefaultApps_DiskManager_DiskEntry 00000000104162f0     guideXOS.obj
 0005:003702f8       __writableDataguideXOS_guideXOS_DefaultApps_DiskManager_Part 00000000104162f8     guideXOS.obj
 0005:00370300       __writableDataguideXOS_guideXOS_DefaultApps_DiskManager___c__DisplayClass38_0 0000000010416300     guideXOS.obj
 0005:00370308       __writableDataguideXOS_guideXOS_DefaultApps_DiskManager___c__DisplayClass54_0 0000000010416308     guideXOS.obj
 0005:00370310       __writableDataguideXOS_guideXOS_DefaultApps_DriveInfo 0000000010416310     guideXOS.obj
 0005:00370318       __writableDataguideXOS_guideXOS_DefaultApps_FConsole 0000000010416318     guideXOS.obj
 0005:00370320       __writableDataguideXOS_guideXOS_DefaultApps_FirewallAlert 0000000010416320     guideXOS.obj
 0005:00370328       __writableDataguideXOS_guideXOS_DefaultApps_FirewallWindow 0000000010416328     guideXOS.obj
 0005:00370330       __writableDataguideXOS_guideXOS_DefaultApps_GUISamples 0000000010416330     guideXOS.obj
 0005:00370338       __writableDataguideXOS_guideXOS_DefaultApps_HDInstaller 0000000010416338     guideXOS.obj
 0005:00370340       __writableDataguideXOS_guideXOS_DefaultApps_HDInstaller_DiskInfo 0000000010416340     guideXOS.obj
 0005:00370348       __writableDataguideXOS_guideXOS_DefaultApps_IRCNetworks 0000000010416348     guideXOS.obj
 0005:00370350       __writableDataguideXOS_guideXOS_DefaultApps_IRCNetworks_Entry 0000000010416350     guideXOS.obj
 0005:00370358       __writableDataguideXOS_guideXOS_DefaultApps_Notepad 0000000010416358     guideXOS.obj
 0005:00370360       __writableDataguideXOS_guideXOS_DefaultApps_Notepad___c__DisplayClass24_0 0000000010416360     guideXOS.obj
 0005:00370368       __writableDataguideXOS_guideXOS_DefaultApps_Paint 0000000010416368     guideXOS.obj
 0005:00370370       __writableDataguideXOS_guideXOS_DefaultApps_PaintTool 0000000010416370     guideXOS.obj
 0005:00370378       __writableDataguideXOS_guideXOS_DefaultApps_TTFFontDemo 0000000010416378     guideXOS.obj
 0005:00370380       __writableDataguideXOS_guideXOS_DefaultApps_TaskManager 0000000010416380     guideXOS.obj
 0005:00370388       __writableDataguideXOS_guideXOS_DefaultApps_TaskManager_Chart 0000000010416388     guideXOS.obj
 0005:00370390       __writableDataguideXOS_guideXOS_DefaultApps_USBDrives 0000000010416390     guideXOS.obj
 0005:00370398       __writableDataguideXOS_guideXOS_DefaultApps_WebBrowser 0000000010416398     guideXOS.obj
 0005:003703a0       __writableDataguideXOS_guideXOS_DefaultApps_WebBrowser_BrowserTab 00000000104163a0     guideXOS.obj
 0005:003703a8       __writableDataguideXOS_guideXOS_DefaultApps_WebBrowser_RenderElement 00000000104163a8     guideXOS.obj
 0005:003703b0       __writableDataguideXOS_guideXOS_DefaultApps_Welcome 00000000104163b0     guideXOS.obj
 0005:003703b8       __writableDataguideXOS_guideXOS_DefaultApps_nexIRC 00000000104163b8     guideXOS.obj
 0005:003703c0       __writableDataguideXOS_guideXOS_DockableWidgets_Clock 00000000104163c0     guideXOS.obj
 0005:003703c8       __writableDataguideXOS_guideXOS_DockableWidgets_Monitor 00000000104163c8     guideXOS.obj
 0005:003703d0       __writableDataguideXOS_guideXOS_DockableWidgets_Monitor_Chart 00000000104163d0     guideXOS.obj
 0005:003703d8       __writableDataguideXOS_guideXOS_DockableWidgets_PerformanceWidget 00000000104163d8     guideXOS.obj
 0005:003703e0       __writableDataguideXOS_guideXOS_DockableWidgets_Uptime 00000000104163e0     guideXOS.obj
 0005:003703e8       __writableDataguideXOS_guideXOS_FS_AutoFS 00000000104163e8     guideXOS.obj
 0005:003703f0       __writableDataguideXOS_guideXOS_FS_CloudFS 00000000104163f0     guideXOS.obj
 0005:003703f8       __writableDataguideXOS_guideXOS_FS_Disk 00000000104163f8     guideXOS.obj
 0005:00370400       __writableDataguideXOS_guideXOS_FS_EXT2 0000000010416400     guideXOS.obj
 0005:00370408       __writableDataguideXOS_guideXOS_FS_EXT2_DirEnt 0000000010416408     guideXOS.obj
 0005:00370410       __writableDataguideXOS_guideXOS_FS_FAT 0000000010416410     guideXOS.obj
 0005:00370418       __writableDataguideXOS_guideXOS_FS_FAT___c__DisplayClass50_0 0000000010416418     guideXOS.obj
 0005:00370420       __writableDataguideXOS_guideXOS_FS_FAT___c__DisplayClass50_1 0000000010416420     guideXOS.obj
 0005:00370428       __writableDataguideXOS_guideXOS_FS_FAT___c__DisplayClass60_0 0000000010416428     guideXOS.obj
 0005:00370430       __writableDataguideXOS_guideXOS_FS_FileInfo 0000000010416430     guideXOS.obj
 0005:00370438       __writableDataguideXOS_guideXOS_FS_FileSystem 0000000010416438     guideXOS.obj
 0005:00370440       __writableDataguideXOS_guideXOS_FS_TarFS 0000000010416440     guideXOS.obj
 0005:00370448       __writableDataguideXOS_guideXOS_GUI_Base_WindowBase 0000000010416448     guideXOS.obj
 0005:00370450       __writableDataguideXOS_guideXOS_GUI_ColorPicker 0000000010416450     guideXOS.obj
 0005:00370458       __writableDataguideXOS_guideXOS_GUI_DisplayOptions 0000000010416458     guideXOS.obj
 0005:00370460       __writableDataguideXOS_guideXOS_GUI_DisplayOptions___c 0000000010416460     guideXOS.obj
 0005:00370468       __writableDataguideXOS_guideXOS_GUI_DockableWidget 0000000010416468     guideXOS.obj
 0005:00370470       __writableDataguideXOS_guideXOS_GUI_GXMScriptWindow 0000000010416470     guideXOS.obj
 0005:00370478       __writableDataguideXOS_guideXOS_GUI_GXMScriptWindow_Btn 0000000010416478     guideXOS.obj
 0005:00370480       __writableDataguideXOS_guideXOS_GUI_GXMScriptWindow_Callback 0000000010416480     guideXOS.obj
 0005:00370488       __writableDataguideXOS_guideXOS_GUI_GXMScriptWindow_DropdownDef 0000000010416488     guideXOS.obj
 0005:00370490       __writableDataguideXOS_guideXOS_GUI_GXMScriptWindow_Label 0000000010416490     guideXOS.obj
 0005:00370498       __writableDataguideXOS_guideXOS_GUI_GXMScriptWindow_ListViewDef 0000000010416498     guideXOS.obj
 0005:003704a0       __writableDataguideXOS_guideXOS_GUI_GXMScriptWindow_TextBoxDef 00000000104164a0     guideXOS.obj
 0005:003704a8       __writableDataguideXOS_guideXOS_GUI_IconsPrivate 00000000104164a8     guideXOS.obj
 0005:003704b0       __writableDataguideXOS_guideXOS_GUI_NetworkConfigurationDialog 00000000104164b0     guideXOS.obj
 0005:003704b8       __writableDataguideXOS_guideXOS_GUI_Notify 00000000104164b8     guideXOS.obj
 0005:003704c0       __writableDataguideXOS_guideXOS_GUI_OnScreenKeyboard 00000000104164c0     guideXOS.obj
 0005:003704c8       __writableDataguideXOS_guideXOS_GUI_OpenDialog 00000000104164c8     guideXOS.obj
 0005:003704d0       __writableDataguideXOS_guideXOS_GUI_PinnedManager_Pinned 00000000104164d0     guideXOS.obj
 0005:003704d8       __writableDataguideXOS_guideXOS_GUI_RecentDocumentEntry 00000000104164d8     guideXOS.obj
 0005:003704e0       __writableDataguideXOS_guideXOS_GUI_RecentProgramEntry 00000000104164e0     guideXOS.obj
 0005:003704e8       __writableDataguideXOS_guideXOS_GUI_RightMenu 00000000104164e8     guideXOS.obj
 0005:003704f0       __writableDataguideXOS_guideXOS_GUI_SaveChangesDialog 00000000104164f0     guideXOS.obj
 0005:003704f8       __writableDataguideXOS_guideXOS_GUI_SaveDialog 00000000104164f8     guideXOS.obj
 0005:00370500       __writableDataguideXOS_guideXOS_GUI_ShutdownDialog 0000000010416500     guideXOS.obj
 0005:00370508       __writableDataguideXOS_guideXOS_GUI_StartMenu 0000000010416508     guideXOS.obj
 0005:00370510       __writableDataguideXOS_guideXOS_GUI_StartMenu_AppEntry 0000000010416510     guideXOS.obj
 0005:00370518       __writableDataguideXOS_guideXOS_GUI_TaskbarMenu 0000000010416518     guideXOS.obj
 0005:00370520       __writableDataguideXOS_guideXOS_GUI_USBDrives 0000000010416520     guideXOS.obj
 0005:00370528       __writableDataguideXOS_guideXOS_GUI_USBDrives_Entry 0000000010416528     guideXOS.obj
 0005:00370530       __writableDataguideXOS_guideXOS_GUI_USBFiles 0000000010416530     guideXOS.obj
 0005:00370538       __writableDataguideXOS_guideXOS_GUI_VisualEffectsSettings 0000000010416538     guideXOS.obj
 0005:00370540       __writableDataguideXOS_guideXOS_GUI_WidgetContainer 0000000010416540     guideXOS.obj
 0005:00370548       __writableDataguideXOS_guideXOS_GUI_WidgetContextMenu 0000000010416548     guideXOS.obj
 0005:00370550       __writableDataguideXOS_guideXOS_GUI_WidgetToggleButton 0000000010416550     guideXOS.obj
 0005:00370558       __writableDataguideXOS_guideXOS_GUI_Widgets_Base_Widget 0000000010416558     guideXOS.obj
 0005:00370560       __writableDataguideXOS_guideXOS_GUI_Widgets_Button 0000000010416560     guideXOS.obj
 0005:00370568       __writableDataguideXOS_guideXOS_GUI_Window 0000000010416568     guideXOS.obj
 0005:00370570       __writableDataguideXOS_guideXOS_GUI_WindowEffectType 0000000010416570     guideXOS.obj
 0005:00370578       __writableDataguideXOS_guideXOS_GUI_WorkspaceSwitcher 0000000010416578     guideXOS.obj
 0005:00370580       __writableDataguideXOS_guideXOS_GUI_WorkspaceSwitcher_WindowSnapshot 0000000010416580     guideXOS.obj
 0005:00370588       __writableDataguideXOS_guideXOS_Graph_Graphics 0000000010416588     guideXOS.obj
 0005:00370590       __writableDataguideXOS_guideXOS_Kernel_Drivers_IDEDevice 0000000010416590     guideXOS.obj
 0005:00370598       __writableDataguideXOS_guideXOS_Kernel_Drivers_PCIDevice 0000000010416598     guideXOS.obj
 0005:003705a0       __writableDataguideXOS_guideXOS_Kernel_Drivers_Ramdisk 00000000104165a0     guideXOS.obj
 0005:003705a8       __writableDataguideXOS_guideXOS_Kernel_Drivers_Resolution 00000000104165a8     guideXOS.obj
 0005:003705b0       __writableDataguideXOS_guideXOS_Kernel_Drivers_SATA_SATADevice 00000000104165b0     guideXOS.obj
 0005:003705b8       __writableDataguideXOS_guideXOS_Kernel_Drivers_USBMSCBot_USBDisk 00000000104165b8     guideXOS.obj
 0005:003705c0       __writableDataguideXOS_guideXOS_Kernel_Drivers_VMWareSVGAII 00000000104165c0     guideXOS.obj
 0005:003705c8       __writableDataguideXOS_guideXOS_Misc_Bitmap 00000000104165c8     guideXOS.obj
 0005:003705d0       __writableDataguideXOS_guideXOS_Misc_IFont 00000000104165d0     guideXOS.obj
 0005:003705d8       __writableDataguideXOS_guideXOS_Misc_Interrupts_INT 00000000104165d8     guideXOS.obj
 0005:003705e0       __writableDataguideXOS_guideXOS_Misc_PNG 00000000104165e0     guideXOS.obj
 0005:003705e8       __writableDataguideXOS_guideXOS_Misc_SVG 00000000104165e8     guideXOS.obj
 0005:003705f0       __writableDataguideXOS_guideXOS_Misc_Thread 00000000104165f0     guideXOS.obj
 0005:003705f8       __writableDataguideXOS_guideXOS_Misc_TrueTypeFont 00000000104165f8     guideXOS.obj
 0005:00370600       __writableDataguideXOS_guideXOS_Misc_TrueTypeFont_GlyphOutline 0000000010416600     guideXOS.obj
 0005:00370608       __writableDataguideXOS_guideXOS_Misc_TrueTypeFont_Point 0000000010416608     guideXOS.obj
 0005:00370610       __writableDataguideXOS_guideXOS_Misc_TrueTypeFont_TableRecord 0000000010416610     guideXOS.obj
 0005:00370618       __writableDataguideXOS_guideXOS_Misc_USBDevice 0000000010416618     guideXOS.obj
 0005:00370620       __writableDataguideXOS_guideXOS_Modules_ModuleManager_ModuleEntry 0000000010416620     guideXOS.obj
 0005:00370628       __writableDataguideXOS_guideXOS_Modules_ModuleManager___c 0000000010416628     guideXOS.obj
 0005:00370630       __writableDataguideXOS_guideXOS_NETv4_ARPCache 0000000010416630     guideXOS.obj
 0005:00370638       __writableDataguideXOS_guideXOS_NETv4_TCPClient 0000000010416638     guideXOS.obj
 0005:00370640       __writableDataguideXOS_guideXOS_NETv4_UDPClient 0000000010416640     guideXOS.obj
 0005:00370648       __writableDataguideXOS_guideXOS_Network_Http_Header 0000000010416648     guideXOS.obj
 0005:00370650       __writableDataguideXOS_guideXOS_Network_Http_Request 0000000010416650     guideXOS.obj
 0005:00370658       __writableDataguideXOS_guideXOS_Network_Http_Response 0000000010416658     guideXOS.obj
 0005:00370660       __writableDataguideXOS_guideXOS_OS_FirewallMode 0000000010416660     guideXOS.obj
 0007:00000000       __Module                   000000001041c000     guideXOS.obj

 entry point at        0003:0001ddd4

 Static symbols

 0008:000000a0       $R000000                   000000001041d0a0     guideXOS.res
 0008:000002f0       $R000250                   000000001041d2f0     guideXOS.res
